ARM GAS  C:\DOCUME~1\Owner\LOCALS~1\Temp\cc3wUi6F.s 			page 1


   1              		.cpu cortex-m0
   2              		.fpu softvfp
   3              		.eabi_attribute 20, 1
   4              		.eabi_attribute 21, 1
   5              		.eabi_attribute 23, 3
   6              		.eabi_attribute 24, 1
   7              		.eabi_attribute 25, 1
   8              		.eabi_attribute 26, 1
   9              		.eabi_attribute 30, 6
  10              		.eabi_attribute 34, 0
  11              		.eabi_attribute 18, 4
  12              		.code	16
  13              		.file	"CyFlash.c"
  14              		.text
  15              	.Ltext0:
  16              		.cfi_sections	.debug_frame
  17              		.bss
  18              		.align	2
  19              	cySysFlashBackup:
  20 0000 00000000 		.space	4
  21              		.section	.text.CySysFlashWriteRow,"ax",%progbits
  22              		.align	2
  23              		.global	CySysFlashWriteRow
  24              		.code	16
  25              		.thumb_func
  26              		.type	CySysFlashWriteRow, %function
  27              	CySysFlashWriteRow:
  28              	.LFB0:
  29              		.file 1 ".\\Generated_Source\\PSoC4\\CyFlash.c"
   1:.\Generated_Source\PSoC4/CyFlash.c **** /*******************************************************************************
   2:.\Generated_Source\PSoC4/CyFlash.c **** * File Name: CyFlash.c
   3:.\Generated_Source\PSoC4/CyFlash.c **** * Version 4.20
   4:.\Generated_Source\PSoC4/CyFlash.c **** *
   5:.\Generated_Source\PSoC4/CyFlash.c **** *  Description:
   6:.\Generated_Source\PSoC4/CyFlash.c **** *   Provides an API for the FLASH.
   7:.\Generated_Source\PSoC4/CyFlash.c **** *
   8:.\Generated_Source\PSoC4/CyFlash.c **** *  Note:
   9:.\Generated_Source\PSoC4/CyFlash.c **** *   This code is endian agnostic.
  10:.\Generated_Source\PSoC4/CyFlash.c **** *
  11:.\Generated_Source\PSoC4/CyFlash.c **** *  Note:
  12:.\Generated_Source\PSoC4/CyFlash.c **** *   Documentation of the API's in this file is located in the
  13:.\Generated_Source\PSoC4/CyFlash.c **** *   System Reference Guide provided with PSoC Creator.
  14:.\Generated_Source\PSoC4/CyFlash.c **** *
  15:.\Generated_Source\PSoC4/CyFlash.c **** ********************************************************************************
  16:.\Generated_Source\PSoC4/CyFlash.c **** * Copyright 2010-2014, Cypress Semiconductor Corporation.  All rights reserved.
  17:.\Generated_Source\PSoC4/CyFlash.c **** * You may use this file only in accordance with the license, terms, conditions,
  18:.\Generated_Source\PSoC4/CyFlash.c **** * disclaimers, and limitations in the end user license agreement accompanying
  19:.\Generated_Source\PSoC4/CyFlash.c **** * the software package with which this file was provided.
  20:.\Generated_Source\PSoC4/CyFlash.c **** *******************************************************************************/
  21:.\Generated_Source\PSoC4/CyFlash.c **** 
  22:.\Generated_Source\PSoC4/CyFlash.c **** #include "CyFlash.h"
  23:.\Generated_Source\PSoC4/CyFlash.c **** 
  24:.\Generated_Source\PSoC4/CyFlash.c **** static CY_SYS_FLASH_CLOCK_BACKUP_STRUCT cySysFlashBackup;
  25:.\Generated_Source\PSoC4/CyFlash.c **** 
  26:.\Generated_Source\PSoC4/CyFlash.c **** static cystatus CySysFlashClockBackup(void);
  27:.\Generated_Source\PSoC4/CyFlash.c **** static cystatus CySysFlashClockRestore(void);
  28:.\Generated_Source\PSoC4/CyFlash.c **** #if(CY_IP_FMLT)
ARM GAS  C:\DOCUME~1\Owner\LOCALS~1\Temp\cc3wUi6F.s 			page 2


  29:.\Generated_Source\PSoC4/CyFlash.c ****     static cystatus CySysFlashClockConfig(void);
  30:.\Generated_Source\PSoC4/CyFlash.c **** #endif  /* (CY_IP_FMLT) */
  31:.\Generated_Source\PSoC4/CyFlash.c **** 
  32:.\Generated_Source\PSoC4/CyFlash.c **** 
  33:.\Generated_Source\PSoC4/CyFlash.c **** /*******************************************************************************
  34:.\Generated_Source\PSoC4/CyFlash.c **** * Function Name: CySysFlashWriteRow
  35:.\Generated_Source\PSoC4/CyFlash.c **** ********************************************************************************
  36:.\Generated_Source\PSoC4/CyFlash.c **** *
  37:.\Generated_Source\PSoC4/CyFlash.c **** * Summary:
  38:.\Generated_Source\PSoC4/CyFlash.c **** *  Erases a row of Flash and programs it with the new data.
  39:.\Generated_Source\PSoC4/CyFlash.c **** *
  40:.\Generated_Source\PSoC4/CyFlash.c **** * Parameters:
  41:.\Generated_Source\PSoC4/CyFlash.c **** *  uint16 rowNum:
  42:.\Generated_Source\PSoC4/CyFlash.c **** *   The flash row number. The number of the flash rows is defined by the
  43:.\Generated_Source\PSoC4/CyFlash.c **** *   CY_FLASH_NUMBER_ROWS macro for the selected device. Refer to the device
  44:.\Generated_Source\PSoC4/CyFlash.c **** *   datasheet for the details.
  45:.\Generated_Source\PSoC4/CyFlash.c **** *
  46:.\Generated_Source\PSoC4/CyFlash.c **** *  uint8* rowData:
  47:.\Generated_Source\PSoC4/CyFlash.c **** *   Array of bytes to write. The size of the array must be equal to the flash
  48:.\Generated_Source\PSoC4/CyFlash.c **** *   row size. The flash row size for the selected device is defined by
  49:.\Generated_Source\PSoC4/CyFlash.c **** *   the CY_FLASH_SIZEOF_ROW macro. Refer to the device datasheet for the
  50:.\Generated_Source\PSoC4/CyFlash.c **** *   details.
  51:.\Generated_Source\PSoC4/CyFlash.c **** *
  52:.\Generated_Source\PSoC4/CyFlash.c **** * Return:
  53:.\Generated_Source\PSoC4/CyFlash.c **** *  Status
  54:.\Generated_Source\PSoC4/CyFlash.c **** *     Value                     Description
  55:.\Generated_Source\PSoC4/CyFlash.c **** *    CY_SYS_FLASH_SUCCESS           Successful
  56:.\Generated_Source\PSoC4/CyFlash.c **** *    CY_SYS_FLASH_INVALID_ADDR      Specified flash row address is invalid
  57:.\Generated_Source\PSoC4/CyFlash.c **** *    CY_SYS_FLASH_PROTECTED         Specified flash row is protected
  58:.\Generated_Source\PSoC4/CyFlash.c **** *    Other non-zero                 Failure
  59:.\Generated_Source\PSoC4/CyFlash.c **** *
  60:.\Generated_Source\PSoC4/CyFlash.c **** * Side Effects:
  61:.\Generated_Source\PSoC4/CyFlash.c **** *   The IMO must be enabled before calling this function. The operation of the
  62:.\Generated_Source\PSoC4/CyFlash.c **** *   flash writing hardware is dependent on the IMO.
  63:.\Generated_Source\PSoC4/CyFlash.c **** *
  64:.\Generated_Source\PSoC4/CyFlash.c **** *   For PSoC 4000 devices this API will automatically modify the clock settings
  65:.\Generated_Source\PSoC4/CyFlash.c **** *   for the device. Writing to flash requires that changes be made to the IMO
  66:.\Generated_Source\PSoC4/CyFlash.c **** *   and HFCLK settings. The configuration is restored before returning. HFCLK
  67:.\Generated_Source\PSoC4/CyFlash.c **** *   will have several frequency changes during the operation of this API between
  68:.\Generated_Source\PSoC4/CyFlash.c **** *   a minimum frequency of the current IMO frequency divided by 8 and a maximum
  69:.\Generated_Source\PSoC4/CyFlash.c **** *   frequency of 12 MHz. This will impact the operation of most of the hardware
  70:.\Generated_Source\PSoC4/CyFlash.c **** *   in the device.
  71:.\Generated_Source\PSoC4/CyFlash.c **** *
  72:.\Generated_Source\PSoC4/CyFlash.c **** *******************************************************************************/
  73:.\Generated_Source\PSoC4/CyFlash.c **** uint32 CySysFlashWriteRow(uint32 rowNum, const uint8 rowData[])
  74:.\Generated_Source\PSoC4/CyFlash.c **** {
  30              		.loc 1 74 0
  31              		.cfi_startproc
  32 0000 90B5     		push	{r4, r7, lr}
  33              		.cfi_def_cfa_offset 12
  34              		.cfi_offset 4, -12
  35              		.cfi_offset 7, -8
  36              		.cfi_offset 14, -4
  37 0002 CFB0     		sub	sp, sp, #316
  38              		.cfi_def_cfa_offset 328
  39 0004 00AF     		add	r7, sp, #0
  40              		.cfi_def_cfa_register 7
ARM GAS  C:\DOCUME~1\Owner\LOCALS~1\Temp\cc3wUi6F.s 			page 3


  41 0006 7860     		str	r0, [r7, #4]
  42 0008 3960     		str	r1, [r7]
  75:.\Generated_Source\PSoC4/CyFlash.c ****     volatile uint32 retValue = CY_SYS_FLASH_SUCCESS;
  43              		.loc 1 75 0
  44 000a 0023     		mov	r3, #0
  45 000c 8A20     		mov	r0, #138
  46 000e 4000     		lsl	r0, r0, #1
  47 0010 C019     		add	r0, r0, r7
  48 0012 0360     		str	r3, [r0]
  76:.\Generated_Source\PSoC4/CyFlash.c ****     volatile uint32 clkCnfRetValue = CY_SYS_FLASH_SUCCESS;
  49              		.loc 1 76 0
  50 0014 0023     		mov	r3, #0
  51 0016 8821     		mov	r1, #136
  52 0018 4900     		lsl	r1, r1, #1
  53 001a C919     		add	r1, r1, r7
  54 001c 0B60     		str	r3, [r1]
  77:.\Generated_Source\PSoC4/CyFlash.c ****     volatile uint32   parameters[(CY_FLASH_SIZEOF_ROW + CY_FLASH_SRAM_ROM_DATA)/4u];
  78:.\Generated_Source\PSoC4/CyFlash.c ****     uint8  interruptState;
  79:.\Generated_Source\PSoC4/CyFlash.c **** 
  80:.\Generated_Source\PSoC4/CyFlash.c ****     #if (CY_PSOC4_4000 || CY_PSOC4_4100 || CY_PSOC4_4200)
  81:.\Generated_Source\PSoC4/CyFlash.c ****         uint32 rowDataTmp[CY_FLASH_SIZEOF_ROW / sizeof(uint32)];
  82:.\Generated_Source\PSoC4/CyFlash.c **** 
  83:.\Generated_Source\PSoC4/CyFlash.c ****         uint32 needChecksumWorkaround = 0u;
  55              		.loc 1 83 0
  56 001e 0023     		mov	r3, #0
  57 0020 9022     		mov	r2, #144
  58 0022 5200     		lsl	r2, r2, #1
  59 0024 D219     		add	r2, r2, r7
  60 0026 1360     		str	r3, [r2]
  84:.\Generated_Source\PSoC4/CyFlash.c ****         uint32 savedIndex = 0u;
  61              		.loc 1 84 0
  62 0028 0023     		mov	r3, #0
  63 002a 9A20     		mov	r0, #154
  64 002c 4000     		lsl	r0, r0, #1
  65 002e C019     		add	r0, r0, r7
  66 0030 0360     		str	r3, [r0]
  85:.\Generated_Source\PSoC4/CyFlash.c ****         uint32 savedValue = 0u;
  67              		.loc 1 85 0
  68 0032 0023     		mov	r3, #0
  69 0034 9821     		mov	r1, #152
  70 0036 4900     		lsl	r1, r1, #1
  71 0038 C919     		add	r1, r1, r7
  72 003a 0B60     		str	r3, [r1]
  86:.\Generated_Source\PSoC4/CyFlash.c ****         uint32 checksum = 0u;
  73              		.loc 1 86 0
  74 003c 0023     		mov	r3, #0
  75 003e 9622     		mov	r2, #150
  76 0040 5200     		lsl	r2, r2, #1
  77 0042 D219     		add	r2, r2, r7
  78 0044 1360     		str	r3, [r2]
  87:.\Generated_Source\PSoC4/CyFlash.c ****         uint32 bits = 0u;
  79              		.loc 1 87 0
  80 0046 0023     		mov	r3, #0
  81 0048 9420     		mov	r0, #148
  82 004a 4000     		lsl	r0, r0, #1
  83 004c C019     		add	r0, r0, r7
  84 004e 0360     		str	r3, [r0]
ARM GAS  C:\DOCUME~1\Owner\LOCALS~1\Temp\cc3wUi6F.s 			page 4


  88:.\Generated_Source\PSoC4/CyFlash.c ****         uint32 i;
  89:.\Generated_Source\PSoC4/CyFlash.c ****     #endif  /* (CY_PSOC4_4000 || CY_PSOC4_4100 || CY_PSOC4_4200) */
  90:.\Generated_Source\PSoC4/CyFlash.c **** 
  91:.\Generated_Source\PSoC4/CyFlash.c ****     if ((rowNum < CY_FLASH_NUMBER_ROWS) && (rowData != 0u))
  85              		.loc 1 91 0
  86 0050 7B68     		ldr	r3, [r7, #4]
  87 0052 FF2B     		cmp	r3, #255
  88 0054 00D9     		bls	.LCB52
  89 0056 93E1     		b	.L2	@long jump
  90              	.LCB52:
  91              		.loc 1 91 0 is_stmt 0 discriminator 1
  92 0058 3B68     		ldr	r3, [r7]
  93 005a 002B     		cmp	r3, #0
  94 005c 00D1     		bne	.LCB55
  95 005e 8FE1     		b	.L2	@long jump
  96              	.LCB55:
  92:.\Generated_Source\PSoC4/CyFlash.c ****     {
  93:.\Generated_Source\PSoC4/CyFlash.c ****         #if (CY_PSOC4_4000 || CY_PSOC4_4100 || CY_PSOC4_4200)
  94:.\Generated_Source\PSoC4/CyFlash.c **** 
  95:.\Generated_Source\PSoC4/CyFlash.c ****             (void) memcpy((void *)rowDataTmp, rowData, CY_FLASH_SIZEOF_ROW);
  97              		.loc 1 95 0 is_stmt 1
  98 0060 3A1C     		mov	r2, r7
  99 0062 0832     		add	r2, r2, #8
 100 0064 3B68     		ldr	r3, [r7]
 101 0066 101C     		mov	r0, r2
 102 0068 191C     		mov	r1, r3
 103 006a 8022     		mov	r2, #128
 104 006c FFF7FEFF 		bl	memcpy
  96:.\Generated_Source\PSoC4/CyFlash.c **** 
  97:.\Generated_Source\PSoC4/CyFlash.c ****             for (i = 0u; i < (CY_FLASH_SIZEOF_ROW / sizeof(uint32)); i++)
 105              		.loc 1 97 0
 106 0070 0023     		mov	r3, #0
 107 0072 9221     		mov	r1, #146
 108 0074 4900     		lsl	r1, r1, #1
 109 0076 C919     		add	r1, r1, r7
 110 0078 0B60     		str	r3, [r1]
 111 007a 3FE0     		b	.L3
 112              	.L5:
 113              	.LBB2:
  98:.\Generated_Source\PSoC4/CyFlash.c ****             {
  99:.\Generated_Source\PSoC4/CyFlash.c ****                 uint32 tmp = rowDataTmp[i];
 114              		.loc 1 99 0
 115 007c C74B     		ldr	r3, .L23
 116 007e 9C22     		mov	r2, #156
 117 0080 5200     		lsl	r2, r2, #1
 118 0082 D219     		add	r2, r2, r7
 119 0084 D318     		add	r3, r2, r3
 120 0086 9220     		mov	r0, #146
 121 0088 4000     		lsl	r0, r0, #1
 122 008a C019     		add	r0, r0, r7
 123 008c 0268     		ldr	r2, [r0]
 124 008e 9200     		lsl	r2, r2, #2
 125 0090 D358     		ldr	r3, [r2, r3]
 126 0092 8E21     		mov	r1, #142
 127 0094 4900     		lsl	r1, r1, #1
 128 0096 C919     		add	r1, r1, r7
 129 0098 0B60     		str	r3, [r1]
ARM GAS  C:\DOCUME~1\Owner\LOCALS~1\Temp\cc3wUi6F.s 			page 5


 100:.\Generated_Source\PSoC4/CyFlash.c ****                 if (tmp != 0u)
 130              		.loc 1 100 0
 131 009a 8E22     		mov	r2, #142
 132 009c 5200     		lsl	r2, r2, #1
 133 009e D219     		add	r2, r2, r7
 134 00a0 1368     		ldr	r3, [r2]
 135 00a2 002B     		cmp	r3, #0
 136 00a4 21D0     		beq	.L4
 101:.\Generated_Source\PSoC4/CyFlash.c ****                 {
 102:.\Generated_Source\PSoC4/CyFlash.c ****                     checksum += tmp;
 137              		.loc 1 102 0
 138 00a6 9623     		mov	r3, #150
 139 00a8 5B00     		lsl	r3, r3, #1
 140 00aa DB19     		add	r3, r3, r7
 141 00ac 1A68     		ldr	r2, [r3]
 142 00ae 8E20     		mov	r0, #142
 143 00b0 4000     		lsl	r0, r0, #1
 144 00b2 C019     		add	r0, r0, r7
 145 00b4 0368     		ldr	r3, [r0]
 146 00b6 D318     		add	r3, r2, r3
 147 00b8 9621     		mov	r1, #150
 148 00ba 4900     		lsl	r1, r1, #1
 149 00bc C919     		add	r1, r1, r7
 150 00be 0B60     		str	r3, [r1]
 103:.\Generated_Source\PSoC4/CyFlash.c ****                     bits |= tmp;
 151              		.loc 1 103 0
 152 00c0 9423     		mov	r3, #148
 153 00c2 5B00     		lsl	r3, r3, #1
 154 00c4 DB19     		add	r3, r3, r7
 155 00c6 1A68     		ldr	r2, [r3]
 156 00c8 8E20     		mov	r0, #142
 157 00ca 4000     		lsl	r0, r0, #1
 158 00cc C019     		add	r0, r0, r7
 159 00ce 0368     		ldr	r3, [r0]
 160 00d0 1343     		orr	r3, r2
 161 00d2 9421     		mov	r1, #148
 162 00d4 4900     		lsl	r1, r1, #1
 163 00d6 C919     		add	r1, r1, r7
 164 00d8 0B60     		str	r3, [r1]
 104:.\Generated_Source\PSoC4/CyFlash.c ****                     savedIndex = i;
 165              		.loc 1 104 0
 166 00da 9222     		mov	r2, #146
 167 00dc 5200     		lsl	r2, r2, #1
 168 00de D219     		add	r2, r2, r7
 169 00e0 1368     		ldr	r3, [r2]
 170 00e2 9A20     		mov	r0, #154
 171 00e4 4000     		lsl	r0, r0, #1
 172 00e6 C019     		add	r0, r0, r7
 173 00e8 0360     		str	r3, [r0]
 174              	.L4:
 175              	.LBE2:
  97:.\Generated_Source\PSoC4/CyFlash.c ****             for (i = 0u; i < (CY_FLASH_SIZEOF_ROW / sizeof(uint32)); i++)
 176              		.loc 1 97 0
 177 00ea 9221     		mov	r1, #146
 178 00ec 4900     		lsl	r1, r1, #1
 179 00ee C919     		add	r1, r1, r7
 180 00f0 0B68     		ldr	r3, [r1]
ARM GAS  C:\DOCUME~1\Owner\LOCALS~1\Temp\cc3wUi6F.s 			page 6


 181 00f2 0133     		add	r3, r3, #1
 182 00f4 9222     		mov	r2, #146
 183 00f6 5200     		lsl	r2, r2, #1
 184 00f8 D219     		add	r2, r2, r7
 185 00fa 1360     		str	r3, [r2]
 186              	.L3:
  97:.\Generated_Source\PSoC4/CyFlash.c ****             for (i = 0u; i < (CY_FLASH_SIZEOF_ROW / sizeof(uint32)); i++)
 187              		.loc 1 97 0 is_stmt 0 discriminator 1
 188 00fc 9220     		mov	r0, #146
 189 00fe 4000     		lsl	r0, r0, #1
 190 0100 C019     		add	r0, r0, r7
 191 0102 0368     		ldr	r3, [r0]
 192 0104 1F2B     		cmp	r3, #31
 193 0106 B9D9     		bls	.L5
 105:.\Generated_Source\PSoC4/CyFlash.c ****                 }
 106:.\Generated_Source\PSoC4/CyFlash.c ****             }
 107:.\Generated_Source\PSoC4/CyFlash.c **** 
 108:.\Generated_Source\PSoC4/CyFlash.c ****             needChecksumWorkaround = ((checksum == 0u) && (bits != 0u)) ? 1u : 0u;
 194              		.loc 1 108 0 is_stmt 1
 195 0108 9621     		mov	r1, #150
 196 010a 4900     		lsl	r1, r1, #1
 197 010c C919     		add	r1, r1, r7
 198 010e 0B68     		ldr	r3, [r1]
 199 0110 002B     		cmp	r3, #0
 200 0112 07D1     		bne	.L6
 201              		.loc 1 108 0 is_stmt 0 discriminator 1
 202 0114 9422     		mov	r2, #148
 203 0116 5200     		lsl	r2, r2, #1
 204 0118 D219     		add	r2, r2, r7
 205 011a 1368     		ldr	r3, [r2]
 206 011c 002B     		cmp	r3, #0
 207 011e 01D0     		beq	.L6
 208 0120 0123     		mov	r3, #1
 209 0122 00E0     		b	.L7
 210              	.L6:
 211              		.loc 1 108 0 discriminator 2
 212 0124 0023     		mov	r3, #0
 213              	.L7:
 214              		.loc 1 108 0 discriminator 3
 215 0126 9020     		mov	r0, #144
 216 0128 4000     		lsl	r0, r0, #1
 217 012a C019     		add	r0, r0, r7
 218 012c 0360     		str	r3, [r0]
 109:.\Generated_Source\PSoC4/CyFlash.c ****             if (needChecksumWorkaround != 0u)
 219              		.loc 1 109 0 is_stmt 1 discriminator 3
 220 012e 9021     		mov	r1, #144
 221 0130 4900     		lsl	r1, r1, #1
 222 0132 C919     		add	r1, r1, r7
 223 0134 0B68     		ldr	r3, [r1]
 224 0136 002B     		cmp	r3, #0
 225 0138 1AD0     		beq	.L8
 110:.\Generated_Source\PSoC4/CyFlash.c ****             {
 111:.\Generated_Source\PSoC4/CyFlash.c ****                 savedValue = rowDataTmp[savedIndex];
 226              		.loc 1 111 0
 227 013a 984B     		ldr	r3, .L23
 228 013c 9C22     		mov	r2, #156
 229 013e 5200     		lsl	r2, r2, #1
ARM GAS  C:\DOCUME~1\Owner\LOCALS~1\Temp\cc3wUi6F.s 			page 7


 230 0140 D219     		add	r2, r2, r7
 231 0142 D318     		add	r3, r2, r3
 232 0144 9A20     		mov	r0, #154
 233 0146 4000     		lsl	r0, r0, #1
 234 0148 C019     		add	r0, r0, r7
 235 014a 0268     		ldr	r2, [r0]
 236 014c 9200     		lsl	r2, r2, #2
 237 014e D358     		ldr	r3, [r2, r3]
 238 0150 9821     		mov	r1, #152
 239 0152 4900     		lsl	r1, r1, #1
 240 0154 C919     		add	r1, r1, r7
 241 0156 0B60     		str	r3, [r1]
 112:.\Generated_Source\PSoC4/CyFlash.c ****                 rowDataTmp[savedIndex] = 0u;
 242              		.loc 1 112 0
 243 0158 904B     		ldr	r3, .L23
 244 015a 9C22     		mov	r2, #156
 245 015c 5200     		lsl	r2, r2, #1
 246 015e D219     		add	r2, r2, r7
 247 0160 D318     		add	r3, r2, r3
 248 0162 9A20     		mov	r0, #154
 249 0164 4000     		lsl	r0, r0, #1
 250 0166 C019     		add	r0, r0, r7
 251 0168 0268     		ldr	r2, [r0]
 252 016a 9200     		lsl	r2, r2, #2
 253 016c 0021     		mov	r1, #0
 254 016e D150     		str	r1, [r2, r3]
 255              	.L8:
 113:.\Generated_Source\PSoC4/CyFlash.c ****             }
 114:.\Generated_Source\PSoC4/CyFlash.c ****         #endif  /* (CY_PSOC4_4000 || CY_PSOC4_4100 || CY_PSOC4_4200) */
 115:.\Generated_Source\PSoC4/CyFlash.c **** 
 116:.\Generated_Source\PSoC4/CyFlash.c ****         /* Load Flash Bytes */
 117:.\Generated_Source\PSoC4/CyFlash.c ****         parameters[0u] = (uint32) (CY_FLASH_GET_MACRO_FROM_ROW(rowNum)        << CY_FLASH_PARAM_MAC
 256              		.loc 1 117 0
 257 0170 3B1C     		mov	r3, r7
 258 0172 8833     		add	r3, r3, #136
 259 0174 8A4A     		ldr	r2, .L23+4
 260 0176 1A60     		str	r2, [r3]
 118:.\Generated_Source\PSoC4/CyFlash.c ****                          (uint32) (CY_FLASH_PAGE_LATCH_START_ADDR             << CY_FLASH_PARAM_ADD
 119:.\Generated_Source\PSoC4/CyFlash.c ****                          (uint32) (CY_FLASH_KEY_TWO(CY_FLASH_API_OPCODE_LOAD) << CY_FLASH_PARAM_KEY
 120:.\Generated_Source\PSoC4/CyFlash.c ****                          CY_FLASH_KEY_ONE;
 121:.\Generated_Source\PSoC4/CyFlash.c ****         parameters[1u] = CY_FLASH_SIZEOF_ROW - 1u;
 261              		.loc 1 121 0
 262 0178 3B1C     		mov	r3, r7
 263 017a 8833     		add	r3, r3, #136
 264 017c 7F22     		mov	r2, #127
 265 017e 5A60     		str	r2, [r3, #4]
 122:.\Generated_Source\PSoC4/CyFlash.c ****     #if (CY_PSOC4_4000 || CY_PSOC4_4100 || CY_PSOC4_4200)
 123:.\Generated_Source\PSoC4/CyFlash.c ****         (void)memcpy((void *)&parameters[2u], rowDataTmp, CY_FLASH_SIZEOF_ROW);
 266              		.loc 1 123 0
 267 0180 3A1C     		mov	r2, r7
 268 0182 8832     		add	r2, r2, #136
 269 0184 854B     		ldr	r3, .L23
 270 0186 9C21     		mov	r1, #156
 271 0188 4900     		lsl	r1, r1, #1
 272 018a C919     		add	r1, r1, r7
 273 018c CB18     		add	r3, r1, r3
 274 018e 111C     		mov	r1, r2
ARM GAS  C:\DOCUME~1\Owner\LOCALS~1\Temp\cc3wUi6F.s 			page 8


 275 0190 0831     		add	r1, r1, #8
 276 0192 1A1C     		mov	r2, r3
 277 0194 8023     		mov	r3, #128
 278 0196 081C     		mov	r0, r1
 279 0198 111C     		mov	r1, r2
 280 019a 1A1C     		mov	r2, r3
 281 019c FFF7FEFF 		bl	memcpy
 124:.\Generated_Source\PSoC4/CyFlash.c ****     #else
 125:.\Generated_Source\PSoC4/CyFlash.c ****         (void)memcpy((void *)&parameters[2u], rowData, CY_FLASH_SIZEOF_ROW);
 126:.\Generated_Source\PSoC4/CyFlash.c ****     #endif /* (CY_PSOC4_4000 || CY_PSOC4_4100 || CY_PSOC4_4200) */
 127:.\Generated_Source\PSoC4/CyFlash.c ****         CY_FLASH_CPUSS_SYSARG_REG = (uint32) &parameters[0u];
 282              		.loc 1 127 0
 283 01a0 804B     		ldr	r3, .L23+8
 284 01a2 3A1C     		mov	r2, r7
 285 01a4 8832     		add	r2, r2, #136
 286 01a6 1A60     		str	r2, [r3]
 128:.\Generated_Source\PSoC4/CyFlash.c ****         CY_FLASH_CPUSS_SYSREQ_REG = CY_FLASH_CPUSS_REQ_START | CY_FLASH_API_OPCODE_LOAD;
 287              		.loc 1 128 0
 288 01a8 7F4B     		ldr	r3, .L23+12
 289 01aa 804A     		ldr	r2, .L23+16
 290 01ac 1A60     		str	r2, [r3]
 129:.\Generated_Source\PSoC4/CyFlash.c ****         retValue = CY_FLASH_API_RETURN;
 291              		.loc 1 129 0
 292 01ae 7D4B     		ldr	r3, .L23+8
 293 01b0 1B68     		ldr	r3, [r3]
 294 01b2 1B0F     		lsr	r3, r3, #28
 295 01b4 1A07     		lsl	r2, r3, #28
 296 01b6 A023     		mov	r3, #160
 297 01b8 1B06     		lsl	r3, r3, #24
 298 01ba 9A42     		cmp	r2, r3
 299 01bc 04D0     		beq	.L9
 300              		.loc 1 129 0 is_stmt 0 discriminator 1
 301 01be 794B     		ldr	r3, .L23+8
 302 01c0 1A68     		ldr	r2, [r3]
 303 01c2 0F23     		mov	r3, #15
 304 01c4 1340     		and	r3, r2
 305 01c6 00E0     		b	.L10
 306              	.L9:
 307              		.loc 1 129 0 discriminator 2
 308 01c8 0023     		mov	r3, #0
 309              	.L10:
 310              		.loc 1 129 0 discriminator 3
 311 01ca 8A22     		mov	r2, #138
 312 01cc 5200     		lsl	r2, r2, #1
 313 01ce D219     		add	r2, r2, r7
 314 01d0 1360     		str	r3, [r2]
 130:.\Generated_Source\PSoC4/CyFlash.c **** 
 131:.\Generated_Source\PSoC4/CyFlash.c ****         if(retValue == CY_SYS_FLASH_SUCCESS)
 315              		.loc 1 131 0 is_stmt 1 discriminator 3
 316 01d2 8A20     		mov	r0, #138
 317 01d4 4000     		lsl	r0, r0, #1
 318 01d6 C019     		add	r0, r0, r7
 319 01d8 0368     		ldr	r3, [r0]
 320 01da 002B     		cmp	r3, #0
 321 01dc 00D0     		beq	.LCB265
 322 01de CEE0     		b	.L11	@long jump
 323              	.LCB265:
ARM GAS  C:\DOCUME~1\Owner\LOCALS~1\Temp\cc3wUi6F.s 			page 9


 132:.\Generated_Source\PSoC4/CyFlash.c ****         {
 133:.\Generated_Source\PSoC4/CyFlash.c ****             /***************************************************************
 134:.\Generated_Source\PSoC4/CyFlash.c ****             * Mask all the exceptions to guarantee that Flash write will
 135:.\Generated_Source\PSoC4/CyFlash.c ****             * occur in the atomic way. It will not affect system call
 136:.\Generated_Source\PSoC4/CyFlash.c ****             * execution (flash row write) since it is executed in the NMI
 137:.\Generated_Source\PSoC4/CyFlash.c ****             * context.
 138:.\Generated_Source\PSoC4/CyFlash.c ****             ***************************************************************/
 139:.\Generated_Source\PSoC4/CyFlash.c ****             interruptState = CyEnterCriticalSection();
 324              		.loc 1 139 0
 325 01e0 1C21     		mov	r1, #28
 326 01e2 FF31     		add	r1, r1, #255
 327 01e4 7C18     		add	r4, r7, r1
 328 01e6 FFF7FEFF 		bl	CyEnterCriticalSection
 329 01ea 031C     		mov	r3, r0
 330 01ec 2370     		strb	r3, [r4]
 140:.\Generated_Source\PSoC4/CyFlash.c **** 
 141:.\Generated_Source\PSoC4/CyFlash.c ****             clkCnfRetValue = CySysFlashClockBackup();
 331              		.loc 1 141 0
 332 01ee FFF7FEFF 		bl	CySysFlashClockBackup
 333 01f2 031C     		mov	r3, r0
 334 01f4 8822     		mov	r2, #136
 335 01f6 5200     		lsl	r2, r2, #1
 336 01f8 D219     		add	r2, r2, r7
 337 01fa 1360     		str	r3, [r2]
 142:.\Generated_Source\PSoC4/CyFlash.c **** 
 143:.\Generated_Source\PSoC4/CyFlash.c ****         #if(CY_IP_FMLT)
 144:.\Generated_Source\PSoC4/CyFlash.c ****             if(clkCnfRetValue == CY_SYS_FLASH_SUCCESS)
 145:.\Generated_Source\PSoC4/CyFlash.c ****             {
 146:.\Generated_Source\PSoC4/CyFlash.c ****                 retValue = CySysFlashClockConfig();
 147:.\Generated_Source\PSoC4/CyFlash.c ****             }
 148:.\Generated_Source\PSoC4/CyFlash.c ****         #endif  /* (CY_IP_FMLT) */
 149:.\Generated_Source\PSoC4/CyFlash.c **** 
 150:.\Generated_Source\PSoC4/CyFlash.c ****             if(retValue == CY_SYS_FLASH_SUCCESS)
 338              		.loc 1 150 0
 339 01fc 8A20     		mov	r0, #138
 340 01fe 4000     		lsl	r0, r0, #1
 341 0200 C019     		add	r0, r0, r7
 342 0202 0368     		ldr	r3, [r0]
 343 0204 002B     		cmp	r3, #0
 344 0206 25D1     		bne	.L12
 151:.\Generated_Source\PSoC4/CyFlash.c ****             {
 152:.\Generated_Source\PSoC4/CyFlash.c ****                 /* Write Row */
 153:.\Generated_Source\PSoC4/CyFlash.c ****                 parameters[0u]  = (uint32) (((uint32) CY_FLASH_KEY_TWO(CY_FLASH_API_OPCODE_WRITE_RO
 345              		.loc 1 153 0
 346 0208 3B1C     		mov	r3, r7
 347 020a 8833     		add	r3, r3, #136
 348 020c 684A     		ldr	r2, .L23+20
 349 020e 1A60     		str	r2, [r3]
 154:.\Generated_Source\PSoC4/CyFlash.c ****                 parameters[0u] |= (uint32)(rowNum << 16u);
 350              		.loc 1 154 0
 351 0210 3B1C     		mov	r3, r7
 352 0212 8833     		add	r3, r3, #136
 353 0214 1A68     		ldr	r2, [r3]
 354 0216 7B68     		ldr	r3, [r7, #4]
 355 0218 1B04     		lsl	r3, r3, #16
 356 021a 1A43     		orr	r2, r3
 357 021c 3B1C     		mov	r3, r7
ARM GAS  C:\DOCUME~1\Owner\LOCALS~1\Temp\cc3wUi6F.s 			page 10


 358 021e 8833     		add	r3, r3, #136
 359 0220 1A60     		str	r2, [r3]
 155:.\Generated_Source\PSoC4/CyFlash.c **** 
 156:.\Generated_Source\PSoC4/CyFlash.c ****                 CY_FLASH_CPUSS_SYSARG_REG = (uint32) &parameters[0u];
 360              		.loc 1 156 0
 361 0222 604B     		ldr	r3, .L23+8
 362 0224 3A1C     		mov	r2, r7
 363 0226 8832     		add	r2, r2, #136
 364 0228 1A60     		str	r2, [r3]
 157:.\Generated_Source\PSoC4/CyFlash.c ****                 CY_FLASH_CPUSS_SYSREQ_REG = CY_FLASH_CPUSS_REQ_START | CY_FLASH_API_OPCODE_WRITE_RO
 365              		.loc 1 157 0
 366 022a 5F4B     		ldr	r3, .L23+12
 367 022c 614A     		ldr	r2, .L23+24
 368 022e 1A60     		str	r2, [r3]
 158:.\Generated_Source\PSoC4/CyFlash.c ****                 retValue = CY_FLASH_API_RETURN;
 369              		.loc 1 158 0
 370 0230 5C4B     		ldr	r3, .L23+8
 371 0232 1B68     		ldr	r3, [r3]
 372 0234 1B0F     		lsr	r3, r3, #28
 373 0236 1A07     		lsl	r2, r3, #28
 374 0238 A023     		mov	r3, #160
 375 023a 1B06     		lsl	r3, r3, #24
 376 023c 9A42     		cmp	r2, r3
 377 023e 04D0     		beq	.L13
 378              		.loc 1 158 0 is_stmt 0 discriminator 1
 379 0240 584B     		ldr	r3, .L23+8
 380 0242 1A68     		ldr	r2, [r3]
 381 0244 0F23     		mov	r3, #15
 382 0246 1340     		and	r3, r2
 383 0248 00E0     		b	.L14
 384              	.L13:
 385              		.loc 1 158 0 discriminator 2
 386 024a 0023     		mov	r3, #0
 387              	.L14:
 388              		.loc 1 158 0 discriminator 3
 389 024c 8A21     		mov	r1, #138
 390 024e 4900     		lsl	r1, r1, #1
 391 0250 C919     		add	r1, r1, r7
 392 0252 0B60     		str	r3, [r1]
 393              	.L12:
 159:.\Generated_Source\PSoC4/CyFlash.c ****             }
 160:.\Generated_Source\PSoC4/CyFlash.c **** 
 161:.\Generated_Source\PSoC4/CyFlash.c ****             #if (CY_PSOC4_4000 || CY_PSOC4_4100 || CY_PSOC4_4200)
 162:.\Generated_Source\PSoC4/CyFlash.c **** 
 163:.\Generated_Source\PSoC4/CyFlash.c ****                 if ((retValue == CYRET_SUCCESS) && (needChecksumWorkaround != 0u))
 394              		.loc 1 163 0 is_stmt 1
 395 0254 8A22     		mov	r2, #138
 396 0256 5200     		lsl	r2, r2, #1
 397 0258 D219     		add	r2, r2, r7
 398 025a 1368     		ldr	r3, [r2]
 399 025c 002B     		cmp	r3, #0
 400 025e 00D0     		beq	.LCB334
 401 0260 78E0     		b	.L15	@long jump
 402              	.LCB334:
 403              		.loc 1 163 0 is_stmt 0 discriminator 1
 404 0262 9020     		mov	r0, #144
 405 0264 4000     		lsl	r0, r0, #1
ARM GAS  C:\DOCUME~1\Owner\LOCALS~1\Temp\cc3wUi6F.s 			page 11


 406 0266 C019     		add	r0, r0, r7
 407 0268 0368     		ldr	r3, [r0]
 408 026a 002B     		cmp	r3, #0
 409 026c 72D0     		beq	.L15
 164:.\Generated_Source\PSoC4/CyFlash.c ****                 {
 165:.\Generated_Source\PSoC4/CyFlash.c ****                     (void)memset((void *)rowDataTmp, 0, CY_FLASH_SIZEOF_ROW);
 410              		.loc 1 165 0 is_stmt 1
 411 026e 3B1C     		mov	r3, r7
 412 0270 0833     		add	r3, r3, #8
 413 0272 181C     		mov	r0, r3
 414 0274 0021     		mov	r1, #0
 415 0276 8022     		mov	r2, #128
 416 0278 FFF7FEFF 		bl	memset
 166:.\Generated_Source\PSoC4/CyFlash.c ****                     rowDataTmp[savedIndex] = savedValue;
 417              		.loc 1 166 0
 418 027c 474B     		ldr	r3, .L23
 419 027e 9C21     		mov	r1, #156
 420 0280 4900     		lsl	r1, r1, #1
 421 0282 C919     		add	r1, r1, r7
 422 0284 CB18     		add	r3, r1, r3
 423 0286 9A20     		mov	r0, #154
 424 0288 4000     		lsl	r0, r0, #1
 425 028a C019     		add	r0, r0, r7
 426 028c 0268     		ldr	r2, [r0]
 427 028e 9200     		lsl	r2, r2, #2
 428 0290 9820     		mov	r0, #152
 429 0292 4000     		lsl	r0, r0, #1
 430 0294 C019     		add	r0, r0, r7
 431 0296 0168     		ldr	r1, [r0]
 432 0298 D150     		str	r1, [r2, r3]
 167:.\Generated_Source\PSoC4/CyFlash.c **** 
 168:.\Generated_Source\PSoC4/CyFlash.c ****                     /* Load Flash Bytes */
 169:.\Generated_Source\PSoC4/CyFlash.c ****                     parameters[0u] = (uint32) (CY_FLASH_GET_MACRO_FROM_ROW(rowNum)        << CY_FLA
 433              		.loc 1 169 0
 434 029a 3B1C     		mov	r3, r7
 435 029c 8833     		add	r3, r3, #136
 436 029e 404A     		ldr	r2, .L23+4
 437 02a0 1A60     		str	r2, [r3]
 170:.\Generated_Source\PSoC4/CyFlash.c ****                                      (uint32) (CY_FLASH_PAGE_LATCH_START_ADDR             << CY_FLA
 171:.\Generated_Source\PSoC4/CyFlash.c ****                                      (uint32) (CY_FLASH_KEY_TWO(CY_FLASH_API_OPCODE_LOAD) << CY_FLA
 172:.\Generated_Source\PSoC4/CyFlash.c ****                                      CY_FLASH_KEY_ONE;
 173:.\Generated_Source\PSoC4/CyFlash.c ****                     parameters[1u] = CY_FLASH_SIZEOF_ROW - 1u;
 438              		.loc 1 173 0
 439 02a2 3B1C     		mov	r3, r7
 440 02a4 8833     		add	r3, r3, #136
 441 02a6 7F22     		mov	r2, #127
 442 02a8 5A60     		str	r2, [r3, #4]
 174:.\Generated_Source\PSoC4/CyFlash.c ****                     (void)memcpy((void *)&parameters[2u], rowDataTmp, CY_FLASH_SIZEOF_ROW);
 443              		.loc 1 174 0
 444 02aa 3A1C     		mov	r2, r7
 445 02ac 8832     		add	r2, r2, #136
 446 02ae 3B4B     		ldr	r3, .L23
 447 02b0 9C21     		mov	r1, #156
 448 02b2 4900     		lsl	r1, r1, #1
 449 02b4 C919     		add	r1, r1, r7
 450 02b6 CB18     		add	r3, r1, r3
 451 02b8 111C     		mov	r1, r2
ARM GAS  C:\DOCUME~1\Owner\LOCALS~1\Temp\cc3wUi6F.s 			page 12


 452 02ba 0831     		add	r1, r1, #8
 453 02bc 1A1C     		mov	r2, r3
 454 02be 8023     		mov	r3, #128
 455 02c0 081C     		mov	r0, r1
 456 02c2 111C     		mov	r1, r2
 457 02c4 1A1C     		mov	r2, r3
 458 02c6 FFF7FEFF 		bl	memcpy
 175:.\Generated_Source\PSoC4/CyFlash.c ****                     CY_FLASH_CPUSS_SYSARG_REG = (uint32) &parameters[0u];
 459              		.loc 1 175 0
 460 02ca 364B     		ldr	r3, .L23+8
 461 02cc 3A1C     		mov	r2, r7
 462 02ce 8832     		add	r2, r2, #136
 463 02d0 1A60     		str	r2, [r3]
 176:.\Generated_Source\PSoC4/CyFlash.c ****                     CY_FLASH_CPUSS_SYSREQ_REG = CY_FLASH_CPUSS_REQ_START | CY_FLASH_API_OPCODE_LOAD
 464              		.loc 1 176 0
 465 02d2 354B     		ldr	r3, .L23+12
 466 02d4 354A     		ldr	r2, .L23+16
 467 02d6 1A60     		str	r2, [r3]
 177:.\Generated_Source\PSoC4/CyFlash.c ****                     retValue = CY_FLASH_API_RETURN;
 468              		.loc 1 177 0
 469 02d8 324B     		ldr	r3, .L23+8
 470 02da 1B68     		ldr	r3, [r3]
 471 02dc 1B0F     		lsr	r3, r3, #28
 472 02de 1A07     		lsl	r2, r3, #28
 473 02e0 A023     		mov	r3, #160
 474 02e2 1B06     		lsl	r3, r3, #24
 475 02e4 9A42     		cmp	r2, r3
 476 02e6 04D0     		beq	.L16
 477              		.loc 1 177 0 is_stmt 0 discriminator 1
 478 02e8 2E4B     		ldr	r3, .L23+8
 479 02ea 1A68     		ldr	r2, [r3]
 480 02ec 0F23     		mov	r3, #15
 481 02ee 1340     		and	r3, r2
 482 02f0 00E0     		b	.L17
 483              	.L16:
 484              		.loc 1 177 0 discriminator 2
 485 02f2 0023     		mov	r3, #0
 486              	.L17:
 487              		.loc 1 177 0 discriminator 3
 488 02f4 8A22     		mov	r2, #138
 489 02f6 5200     		lsl	r2, r2, #1
 490 02f8 D219     		add	r2, r2, r7
 491 02fa 1360     		str	r3, [r2]
 178:.\Generated_Source\PSoC4/CyFlash.c **** 
 179:.\Generated_Source\PSoC4/CyFlash.c **** 
 180:.\Generated_Source\PSoC4/CyFlash.c ****                     if(retValue == CY_SYS_FLASH_SUCCESS)
 492              		.loc 1 180 0 is_stmt 1 discriminator 3
 493 02fc 8A20     		mov	r0, #138
 494 02fe 4000     		lsl	r0, r0, #1
 495 0300 C019     		add	r0, r0, r7
 496 0302 0368     		ldr	r3, [r0]
 497 0304 002B     		cmp	r3, #0
 498 0306 25D1     		bne	.L15
 181:.\Generated_Source\PSoC4/CyFlash.c ****                     {
 182:.\Generated_Source\PSoC4/CyFlash.c ****                         /* Program Row */
 183:.\Generated_Source\PSoC4/CyFlash.c ****                         parameters[0u]  = (uint32) (((uint32) CY_FLASH_KEY_TWO(CY_FLASH_API_OPCODE_
 499              		.loc 1 183 0
ARM GAS  C:\DOCUME~1\Owner\LOCALS~1\Temp\cc3wUi6F.s 			page 13


 500 0308 3B1C     		mov	r3, r7
 501 030a 8833     		add	r3, r3, #136
 502 030c 2A4A     		ldr	r2, .L23+28
 503 030e 1A60     		str	r2, [r3]
 184:.\Generated_Source\PSoC4/CyFlash.c ****                         parameters[0u] |= (uint32)(rowNum << 16u);
 504              		.loc 1 184 0
 505 0310 3B1C     		mov	r3, r7
 506 0312 8833     		add	r3, r3, #136
 507 0314 1A68     		ldr	r2, [r3]
 508 0316 7B68     		ldr	r3, [r7, #4]
 509 0318 1B04     		lsl	r3, r3, #16
 510 031a 1A43     		orr	r2, r3
 511 031c 3B1C     		mov	r3, r7
 512 031e 8833     		add	r3, r3, #136
 513 0320 1A60     		str	r2, [r3]
 185:.\Generated_Source\PSoC4/CyFlash.c **** 
 186:.\Generated_Source\PSoC4/CyFlash.c ****                         CY_FLASH_CPUSS_SYSARG_REG = (uint32) &parameters[0u];
 514              		.loc 1 186 0
 515 0322 204B     		ldr	r3, .L23+8
 516 0324 3A1C     		mov	r2, r7
 517 0326 8832     		add	r2, r2, #136
 518 0328 1A60     		str	r2, [r3]
 187:.\Generated_Source\PSoC4/CyFlash.c ****                         CY_FLASH_CPUSS_SYSREQ_REG = CY_FLASH_CPUSS_REQ_START | CY_FLASH_API_OPCODE_
 519              		.loc 1 187 0
 520 032a 1F4B     		ldr	r3, .L23+12
 521 032c 234A     		ldr	r2, .L23+32
 522 032e 1A60     		str	r2, [r3]
 188:.\Generated_Source\PSoC4/CyFlash.c ****                         retValue = CY_FLASH_API_RETURN;
 523              		.loc 1 188 0
 524 0330 1C4B     		ldr	r3, .L23+8
 525 0332 1B68     		ldr	r3, [r3]
 526 0334 1B0F     		lsr	r3, r3, #28
 527 0336 1A07     		lsl	r2, r3, #28
 528 0338 A023     		mov	r3, #160
 529 033a 1B06     		lsl	r3, r3, #24
 530 033c 9A42     		cmp	r2, r3
 531 033e 04D0     		beq	.L18
 532              		.loc 1 188 0 is_stmt 0 discriminator 1
 533 0340 184B     		ldr	r3, .L23+8
 534 0342 1A68     		ldr	r2, [r3]
 535 0344 0F23     		mov	r3, #15
 536 0346 1340     		and	r3, r2
 537 0348 00E0     		b	.L19
 538              	.L18:
 539              		.loc 1 188 0 discriminator 2
 540 034a 0023     		mov	r3, #0
 541              	.L19:
 542              		.loc 1 188 0 discriminator 3
 543 034c 8A21     		mov	r1, #138
 544 034e 4900     		lsl	r1, r1, #1
 545 0350 C919     		add	r1, r1, r7
 546 0352 0B60     		str	r3, [r1]
 547              	.L15:
 189:.\Generated_Source\PSoC4/CyFlash.c ****                     }
 190:.\Generated_Source\PSoC4/CyFlash.c ****                 }
 191:.\Generated_Source\PSoC4/CyFlash.c ****             #endif  /* (CY_PSOC4_4000 || CY_PSOC4_4100 || CY_PSOC4_4200) */
 192:.\Generated_Source\PSoC4/CyFlash.c **** 
ARM GAS  C:\DOCUME~1\Owner\LOCALS~1\Temp\cc3wUi6F.s 			page 14


 193:.\Generated_Source\PSoC4/CyFlash.c ****             if(clkCnfRetValue == CY_SYS_FLASH_SUCCESS)
 548              		.loc 1 193 0 is_stmt 1
 549 0354 8822     		mov	r2, #136
 550 0356 5200     		lsl	r2, r2, #1
 551 0358 D219     		add	r2, r2, r7
 552 035a 1368     		ldr	r3, [r2]
 553 035c 002B     		cmp	r3, #0
 554 035e 06D1     		bne	.L20
 194:.\Generated_Source\PSoC4/CyFlash.c ****             {
 195:.\Generated_Source\PSoC4/CyFlash.c ****                 clkCnfRetValue = CySysFlashClockRestore();
 555              		.loc 1 195 0
 556 0360 FFF7FEFF 		bl	CySysFlashClockRestore
 557 0364 031C     		mov	r3, r0
 558 0366 8820     		mov	r0, #136
 559 0368 4000     		lsl	r0, r0, #1
 560 036a C019     		add	r0, r0, r7
 561 036c 0360     		str	r3, [r0]
 562              	.L20:
 196:.\Generated_Source\PSoC4/CyFlash.c ****             }
 197:.\Generated_Source\PSoC4/CyFlash.c **** 
 198:.\Generated_Source\PSoC4/CyFlash.c ****             CyExitCriticalSection(interruptState);
 563              		.loc 1 198 0
 564 036e 1C21     		mov	r1, #28
 565 0370 FF31     		add	r1, r1, #255
 566 0372 7B18     		add	r3, r7, r1
 567 0374 1B78     		ldrb	r3, [r3]
 568 0376 181C     		mov	r0, r3
 569 0378 FFF7FEFF 		bl	CyExitCriticalSection
 131:.\Generated_Source\PSoC4/CyFlash.c ****         if(retValue == CY_SYS_FLASH_SUCCESS)
 570              		.loc 1 131 0
 571 037c 05E0     		b	.L21
 572              	.L11:
 131:.\Generated_Source\PSoC4/CyFlash.c ****         if(retValue == CY_SYS_FLASH_SUCCESS)
 573              		.loc 1 131 0 is_stmt 0 discriminator 1
 574 037e 04E0     		b	.L21
 575              	.L2:
 199:.\Generated_Source\PSoC4/CyFlash.c ****         }
 200:.\Generated_Source\PSoC4/CyFlash.c ****     }
 201:.\Generated_Source\PSoC4/CyFlash.c ****     else
 202:.\Generated_Source\PSoC4/CyFlash.c ****     {
 203:.\Generated_Source\PSoC4/CyFlash.c ****         retValue = CY_SYS_FLASH_INVALID_ADDR;
 576              		.loc 1 203 0 is_stmt 1
 577 0380 0423     		mov	r3, #4
 578 0382 8A22     		mov	r2, #138
 579 0384 5200     		lsl	r2, r2, #1
 580 0386 D219     		add	r2, r2, r7
 581 0388 1360     		str	r3, [r2]
 582              	.L21:
 204:.\Generated_Source\PSoC4/CyFlash.c ****     }
 205:.\Generated_Source\PSoC4/CyFlash.c **** 
 206:.\Generated_Source\PSoC4/CyFlash.c ****     return (retValue);
 583              		.loc 1 206 0
 584 038a 8A20     		mov	r0, #138
 585 038c 4000     		lsl	r0, r0, #1
 586 038e C019     		add	r0, r0, r7
 587 0390 0368     		ldr	r3, [r0]
 207:.\Generated_Source\PSoC4/CyFlash.c **** }
ARM GAS  C:\DOCUME~1\Owner\LOCALS~1\Temp\cc3wUi6F.s 			page 15


 588              		.loc 1 207 0
 589 0392 181C     		mov	r0, r3
 590 0394 BD46     		mov	sp, r7
 591 0396 4FB0     		add	sp, sp, #316
 592              		@ sp needed
 593 0398 90BD     		pop	{r4, r7, pc}
 594              	.L24:
 595 039a C046     		.align	2
 596              	.L23:
 597 039c D0FEFFFF 		.word	-304
 598 03a0 B6D70000 		.word	55222
 599 03a4 08000040 		.word	1073741832
 600 03a8 04000040 		.word	1073741828
 601 03ac 04000080 		.word	-2147483644
 602 03b0 B6D80000 		.word	55478
 603 03b4 05000080 		.word	-2147483643
 604 03b8 B6D90000 		.word	55734
 605 03bc 06000080 		.word	-2147483642
 606              		.cfi_endproc
 607              	.LFE0:
 608              		.size	CySysFlashWriteRow, .-CySysFlashWriteRow
 609              		.section	.text.CySysFlashSetWaitCycles,"ax",%progbits
 610              		.align	2
 611              		.global	CySysFlashSetWaitCycles
 612              		.code	16
 613              		.thumb_func
 614              		.type	CySysFlashSetWaitCycles, %function
 615              	CySysFlashSetWaitCycles:
 616              	.LFB1:
 208:.\Generated_Source\PSoC4/CyFlash.c **** 
 209:.\Generated_Source\PSoC4/CyFlash.c **** 
 210:.\Generated_Source\PSoC4/CyFlash.c **** 
 211:.\Generated_Source\PSoC4/CyFlash.c **** 
 212:.\Generated_Source\PSoC4/CyFlash.c **** 
 213:.\Generated_Source\PSoC4/CyFlash.c **** /*******************************************************************************
 214:.\Generated_Source\PSoC4/CyFlash.c **** * Function Name: CySysFlashSetWaitCycles
 215:.\Generated_Source\PSoC4/CyFlash.c **** ********************************************************************************
 216:.\Generated_Source\PSoC4/CyFlash.c **** *
 217:.\Generated_Source\PSoC4/CyFlash.c **** * Summary:
 218:.\Generated_Source\PSoC4/CyFlash.c **** *  Sets the number of clock cycles the cache will wait before it samples data
 219:.\Generated_Source\PSoC4/CyFlash.c **** *  coming back from Flash. This function must be called before increasing the
 220:.\Generated_Source\PSoC4/CyFlash.c **** *  SYSCLK clock frequency. It can optionally be called after lowering SYSCLK
 221:.\Generated_Source\PSoC4/CyFlash.c **** *  clock frequency in order to improve the CPU performance.
 222:.\Generated_Source\PSoC4/CyFlash.c **** *
 223:.\Generated_Source\PSoC4/CyFlash.c **** * Parameters:
 224:.\Generated_Source\PSoC4/CyFlash.c **** *  freq: The System clock frequency in MHz. Note: Invalid frequency will be
 225:.\Generated_Source\PSoC4/CyFlash.c **** *  ignored in Release mode and the CPU will be halted if project is compiled in
 226:.\Generated_Source\PSoC4/CyFlash.c **** *  Debug mode.
 227:.\Generated_Source\PSoC4/CyFlash.c **** *
 228:.\Generated_Source\PSoC4/CyFlash.c **** * Return:
 229:.\Generated_Source\PSoC4/CyFlash.c **** *  None
 230:.\Generated_Source\PSoC4/CyFlash.c **** *
 231:.\Generated_Source\PSoC4/CyFlash.c **** *******************************************************************************/
 232:.\Generated_Source\PSoC4/CyFlash.c **** void CySysFlashSetWaitCycles(uint32 freq)
 233:.\Generated_Source\PSoC4/CyFlash.c **** {
 617              		.loc 1 233 0
 618              		.cfi_startproc
ARM GAS  C:\DOCUME~1\Owner\LOCALS~1\Temp\cc3wUi6F.s 			page 16


 619 0000 90B5     		push	{r4, r7, lr}
 620              		.cfi_def_cfa_offset 12
 621              		.cfi_offset 4, -12
 622              		.cfi_offset 7, -8
 623              		.cfi_offset 14, -4
 624 0002 85B0     		sub	sp, sp, #20
 625              		.cfi_def_cfa_offset 32
 626 0004 00AF     		add	r7, sp, #0
 627              		.cfi_def_cfa_register 7
 628 0006 7860     		str	r0, [r7, #4]
 234:.\Generated_Source\PSoC4/CyFlash.c ****     uint8  interruptState;
 235:.\Generated_Source\PSoC4/CyFlash.c **** 
 236:.\Generated_Source\PSoC4/CyFlash.c ****     #if (CY_IP_CPUSS)
 237:.\Generated_Source\PSoC4/CyFlash.c **** 
 238:.\Generated_Source\PSoC4/CyFlash.c ****         interruptState = CyEnterCriticalSection();
 629              		.loc 1 238 0
 630 0008 3C1C     		mov	r4, r7
 631 000a 0F34     		add	r4, r4, #15
 632 000c FFF7FEFF 		bl	CyEnterCriticalSection
 633 0010 031C     		mov	r3, r0
 634 0012 2370     		strb	r3, [r4]
 239:.\Generated_Source\PSoC4/CyFlash.c **** 
 240:.\Generated_Source\PSoC4/CyFlash.c ****         if ( freq <= CY_FLASH_SYSCLK_BOUNDARY_MHZ )
 635              		.loc 1 240 0
 636 0014 7B68     		ldr	r3, [r7, #4]
 637 0016 182B     		cmp	r3, #24
 638 0018 06D8     		bhi	.L26
 241:.\Generated_Source\PSoC4/CyFlash.c ****         {
 242:.\Generated_Source\PSoC4/CyFlash.c ****             CY_SYS_CLK_SELECT_REG &= (uint32)(~CY_FLASH_WAIT_STATE_EN);
 639              		.loc 1 242 0
 640 001a 0B4B     		ldr	r3, .L28
 641 001c 0A4A     		ldr	r2, .L28
 642 001e 1168     		ldr	r1, [r2]
 643 0020 0A4A     		ldr	r2, .L28+4
 644 0022 0A40     		and	r2, r1
 645 0024 1A60     		str	r2, [r3]
 646 0026 06E0     		b	.L27
 647              	.L26:
 243:.\Generated_Source\PSoC4/CyFlash.c ****         }
 244:.\Generated_Source\PSoC4/CyFlash.c ****         else
 245:.\Generated_Source\PSoC4/CyFlash.c ****         {
 246:.\Generated_Source\PSoC4/CyFlash.c ****             CY_SYS_CLK_SELECT_REG |= CY_FLASH_WAIT_STATE_EN;
 648              		.loc 1 246 0
 649 0028 074B     		ldr	r3, .L28
 650 002a 074A     		ldr	r2, .L28
 651 002c 1268     		ldr	r2, [r2]
 652 002e 8021     		mov	r1, #128
 653 0030 C902     		lsl	r1, r1, #11
 654 0032 0A43     		orr	r2, r1
 655 0034 1A60     		str	r2, [r3]
 656              	.L27:
 247:.\Generated_Source\PSoC4/CyFlash.c ****         }
 248:.\Generated_Source\PSoC4/CyFlash.c **** 
 249:.\Generated_Source\PSoC4/CyFlash.c ****         CyExitCriticalSection(interruptState);
 657              		.loc 1 249 0
 658 0036 3B1C     		mov	r3, r7
 659 0038 0F33     		add	r3, r3, #15
ARM GAS  C:\DOCUME~1\Owner\LOCALS~1\Temp\cc3wUi6F.s 			page 17


 660 003a 1B78     		ldrb	r3, [r3]
 661 003c 181C     		mov	r0, r3
 662 003e FFF7FEFF 		bl	CyExitCriticalSection
 250:.\Generated_Source\PSoC4/CyFlash.c **** 
 251:.\Generated_Source\PSoC4/CyFlash.c ****     #else
 252:.\Generated_Source\PSoC4/CyFlash.c ****         interruptState = CyEnterCriticalSection();
 253:.\Generated_Source\PSoC4/CyFlash.c **** 
 254:.\Generated_Source\PSoC4/CyFlash.c ****         if (freq <= CY_FLASH_CTL_WS_0_FREQ_MAX)
 255:.\Generated_Source\PSoC4/CyFlash.c ****         {
 256:.\Generated_Source\PSoC4/CyFlash.c ****             CY_FLASH_CTL_REG = (CY_FLASH_CTL_REG & ~CY_FLASH_CTL_WS_MASK) | CY_FLASH_CTL_WS_0_VALUE
 257:.\Generated_Source\PSoC4/CyFlash.c ****         } else
 258:.\Generated_Source\PSoC4/CyFlash.c ****         if (freq <= CY_FLASH_CTL_WS_1_FREQ_MAX)
 259:.\Generated_Source\PSoC4/CyFlash.c ****         {
 260:.\Generated_Source\PSoC4/CyFlash.c ****             CY_FLASH_CTL_REG = (CY_FLASH_CTL_REG & ~CY_FLASH_CTL_WS_MASK) | CY_FLASH_CTL_WS_1_VALUE
 261:.\Generated_Source\PSoC4/CyFlash.c ****         } else
 262:.\Generated_Source\PSoC4/CyFlash.c ****     #if (CY_IP_FMLT)
 263:.\Generated_Source\PSoC4/CyFlash.c ****         if (freq <= CY_FLASH_CTL_WS_2_FREQ_MAX)
 264:.\Generated_Source\PSoC4/CyFlash.c ****         {
 265:.\Generated_Source\PSoC4/CyFlash.c ****             CY_FLASH_CTL_REG = (CY_FLASH_CTL_REG & ~CY_FLASH_CTL_WS_MASK) | CY_FLASH_CTL_WS_2_VALUE
 266:.\Generated_Source\PSoC4/CyFlash.c ****         }
 267:.\Generated_Source\PSoC4/CyFlash.c ****     #endif  /* (CY_IP_FMLT) */
 268:.\Generated_Source\PSoC4/CyFlash.c ****         else
 269:.\Generated_Source\PSoC4/CyFlash.c ****         {
 270:.\Generated_Source\PSoC4/CyFlash.c ****             /* Halt CPU in debug mode if frequency is invalid */
 271:.\Generated_Source\PSoC4/CyFlash.c ****             CYASSERT(0u != 0u);
 272:.\Generated_Source\PSoC4/CyFlash.c ****         }
 273:.\Generated_Source\PSoC4/CyFlash.c **** 
 274:.\Generated_Source\PSoC4/CyFlash.c ****         CyExitCriticalSection(interruptState);
 275:.\Generated_Source\PSoC4/CyFlash.c **** 
 276:.\Generated_Source\PSoC4/CyFlash.c ****     #endif  /* (CY_IP_CPUSS) */
 277:.\Generated_Source\PSoC4/CyFlash.c **** }
 663              		.loc 1 277 0
 664 0042 BD46     		mov	sp, r7
 665 0044 05B0     		add	sp, sp, #20
 666              		@ sp needed
 667 0046 90BD     		pop	{r4, r7, pc}
 668              	.L29:
 669              		.align	2
 670              	.L28:
 671 0048 00010B40 		.word	1074462976
 672 004c FFFFFBFF 		.word	-262145
 673              		.cfi_endproc
 674              	.LFE1:
 675              		.size	CySysFlashSetWaitCycles, .-CySysFlashSetWaitCycles
 676              		.section	.text.CySysFlashClockBackup,"ax",%progbits
 677              		.align	2
 678              		.code	16
 679              		.thumb_func
 680              		.type	CySysFlashClockBackup, %function
 681              	CySysFlashClockBackup:
 682              	.LFB2:
 278:.\Generated_Source\PSoC4/CyFlash.c **** 
 279:.\Generated_Source\PSoC4/CyFlash.c **** 
 280:.\Generated_Source\PSoC4/CyFlash.c **** /*******************************************************************************
 281:.\Generated_Source\PSoC4/CyFlash.c **** * Function Name: CySysFlashClockBackup
 282:.\Generated_Source\PSoC4/CyFlash.c **** ********************************************************************************
 283:.\Generated_Source\PSoC4/CyFlash.c **** *
ARM GAS  C:\DOCUME~1\Owner\LOCALS~1\Temp\cc3wUi6F.s 			page 18


 284:.\Generated_Source\PSoC4/CyFlash.c **** * Summary:
 285:.\Generated_Source\PSoC4/CyFlash.c **** *  Backups the device clock configuration.
 286:.\Generated_Source\PSoC4/CyFlash.c **** *
 287:.\Generated_Source\PSoC4/CyFlash.c **** * Parameters:
 288:.\Generated_Source\PSoC4/CyFlash.c **** *  None
 289:.\Generated_Source\PSoC4/CyFlash.c **** *
 290:.\Generated_Source\PSoC4/CyFlash.c **** * Return:
 291:.\Generated_Source\PSoC4/CyFlash.c **** *  The same as CySysFlashWriteRow().
 292:.\Generated_Source\PSoC4/CyFlash.c **** *
 293:.\Generated_Source\PSoC4/CyFlash.c **** *******************************************************************************/
 294:.\Generated_Source\PSoC4/CyFlash.c **** static cystatus CySysFlashClockBackup(void)
 295:.\Generated_Source\PSoC4/CyFlash.c **** {
 683              		.loc 1 295 0
 684              		.cfi_startproc
 685 0000 80B5     		push	{r7, lr}
 686              		.cfi_def_cfa_offset 8
 687              		.cfi_offset 7, -8
 688              		.cfi_offset 14, -4
 689 0002 82B0     		sub	sp, sp, #8
 690              		.cfi_def_cfa_offset 16
 691 0004 00AF     		add	r7, sp, #0
 692              		.cfi_def_cfa_register 7
 296:.\Generated_Source\PSoC4/CyFlash.c ****     cystatus retValue = CY_SYS_FLASH_SUCCESS;
 693              		.loc 1 296 0
 694 0006 0023     		mov	r3, #0
 695 0008 7B60     		str	r3, [r7, #4]
 297:.\Generated_Source\PSoC4/CyFlash.c **** #if(!CY_IP_FM)
 298:.\Generated_Source\PSoC4/CyFlash.c ****     #if !(CY_PSOC4_4000)
 299:.\Generated_Source\PSoC4/CyFlash.c ****         volatile uint32   parameters[2u];
 300:.\Generated_Source\PSoC4/CyFlash.c ****     #endif  /* !(CY_PSOC4_4000) */
 301:.\Generated_Source\PSoC4/CyFlash.c **** #endif  /* (!CY_IP_FM) */
 302:.\Generated_Source\PSoC4/CyFlash.c **** 
 303:.\Generated_Source\PSoC4/CyFlash.c **** #if(CY_IP_FM)
 304:.\Generated_Source\PSoC4/CyFlash.c **** 
 305:.\Generated_Source\PSoC4/CyFlash.c ****     /***************************************************************
 306:.\Generated_Source\PSoC4/CyFlash.c ****     * Preserve IMO configuration that could be changed during
 307:.\Generated_Source\PSoC4/CyFlash.c ****     * system call execution (Cypress ID #150448).
 308:.\Generated_Source\PSoC4/CyFlash.c ****     ***************************************************************/
 309:.\Generated_Source\PSoC4/CyFlash.c ****     cySysFlashBackup.imoConfigReg = CY_SYS_CLK_IMO_CONFIG_REG;
 696              		.loc 1 309 0
 697 000a 044B     		ldr	r3, .L32
 698 000c 1A68     		ldr	r2, [r3]
 699 000e 044B     		ldr	r3, .L32+4
 700 0010 1A60     		str	r2, [r3]
 310:.\Generated_Source\PSoC4/CyFlash.c **** 
 311:.\Generated_Source\PSoC4/CyFlash.c **** #else   /* (CY_IP_FMLT) */
 312:.\Generated_Source\PSoC4/CyFlash.c **** 
 313:.\Generated_Source\PSoC4/CyFlash.c ****     #if (CY_PSOC4_4000)
 314:.\Generated_Source\PSoC4/CyFlash.c **** 
 315:.\Generated_Source\PSoC4/CyFlash.c ****         /***************************************************************************
 316:.\Generated_Source\PSoC4/CyFlash.c ****         * Perform firmware clock settings backup for the PSOC4 4000 devices (the
 317:.\Generated_Source\PSoC4/CyFlash.c ****         * corresponding system call is not available).
 318:.\Generated_Source\PSoC4/CyFlash.c ****         ***************************************************************************/
 319:.\Generated_Source\PSoC4/CyFlash.c **** 
 320:.\Generated_Source\PSoC4/CyFlash.c ****         /***************************************************************************
 321:.\Generated_Source\PSoC4/CyFlash.c ****         * The registers listed below are modified by CySysFlashClockConfig().
 322:.\Generated_Source\PSoC4/CyFlash.c ****         *
ARM GAS  C:\DOCUME~1\Owner\LOCALS~1\Temp\cc3wUi6F.s 			page 19


 323:.\Generated_Source\PSoC4/CyFlash.c ****         * The registers to be saved:
 324:.\Generated_Source\PSoC4/CyFlash.c ****         * - CY_SYS_CLK_IMO_CONFIG_REG - IMO enable state.
 325:.\Generated_Source\PSoC4/CyFlash.c ****         * - CY_SYS_CLK_SELECT_REG     - HFCLK source, divider, pump source. Save
 326:.\Generated_Source\PSoC4/CyFlash.c ****         *                               entire register as it can be directly
 327:.\Generated_Source\PSoC4/CyFlash.c ****         *                               written on restore (no special
 328:.\Generated_Source\PSoC4/CyFlash.c ****         *                               requirements).
 329:.\Generated_Source\PSoC4/CyFlash.c ****         * - CY_SYS_CLK_IMO_SELECT_REG - Save IMO frequency.
 330:.\Generated_Source\PSoC4/CyFlash.c ****         *
 331:.\Generated_Source\PSoC4/CyFlash.c ****         * The registers not to be saved:
 332:.\Generated_Source\PSoC4/CyFlash.c ****         * - CY_SYS_CLK_IMO_TRIM1_REG  - No need to save. Function of frequency.
 333:.\Generated_Source\PSoC4/CyFlash.c ****         *                               Restored by CySysClkWriteImoFreq().
 334:.\Generated_Source\PSoC4/CyFlash.c ****         * - CY_SYS_CLK_IMO_TRIM3_REG  - No need to save. Function of frequency.
 335:.\Generated_Source\PSoC4/CyFlash.c ****         *                               Restored by CySysClkWriteImoFreq().
 336:.\Generated_Source\PSoC4/CyFlash.c ****         * - REG_CPUSS_FLASH_CTL       - Flash wait cycles. Unmodified due to system
 337:.\Generated_Source\PSoC4/CyFlash.c ****         *                               clock 16 MHz limit.
 338:.\Generated_Source\PSoC4/CyFlash.c ****         ***************************************************************************/
 339:.\Generated_Source\PSoC4/CyFlash.c **** 
 340:.\Generated_Source\PSoC4/CyFlash.c ****         cySysFlashBackup.clkSelectReg = CY_SYS_CLK_SELECT_REG;
 341:.\Generated_Source\PSoC4/CyFlash.c ****         cySysFlashBackup.clkImoEna    = CY_SYS_CLK_IMO_CONFIG_REG & CY_SYS_CLK_IMO_CONFIG_ENABLE;
 342:.\Generated_Source\PSoC4/CyFlash.c ****         cySysFlashBackup.clkImoFreq   = CY_SYS_CLK_IMO_MIN_FREQ_MHZ + (CY_SYS_CLK_IMO_SELECT_REG <<
 343:.\Generated_Source\PSoC4/CyFlash.c **** 
 344:.\Generated_Source\PSoC4/CyFlash.c ****     #else
 345:.\Generated_Source\PSoC4/CyFlash.c **** 
 346:.\Generated_Source\PSoC4/CyFlash.c ****         /* FM-Lite Clock Backup System Call */
 347:.\Generated_Source\PSoC4/CyFlash.c ****         parameters[0u] = (uint32) ((CY_FLASH_KEY_TWO(CY_FLASH_API_OPCODE_CLK_BACKUP) <<  CY_FLASH_P
 348:.\Generated_Source\PSoC4/CyFlash.c ****         parameters[1u] = (uint32) &cySysFlashBackup.clockSettings[0u];
 349:.\Generated_Source\PSoC4/CyFlash.c ****         CY_FLASH_CPUSS_SYSARG_REG = (uint32) &parameters[0u];
 350:.\Generated_Source\PSoC4/CyFlash.c ****         CY_FLASH_CPUSS_SYSREQ_REG = CY_FLASH_CPUSS_REQ_START | CY_FLASH_API_OPCODE_CLK_BACKUP;
 351:.\Generated_Source\PSoC4/CyFlash.c ****         retValue = CY_FLASH_API_RETURN;
 352:.\Generated_Source\PSoC4/CyFlash.c **** 
 353:.\Generated_Source\PSoC4/CyFlash.c ****     #endif  /* (CY_PSOC4_4000) */
 354:.\Generated_Source\PSoC4/CyFlash.c **** 
 355:.\Generated_Source\PSoC4/CyFlash.c **** #endif  /* (CY_IP_FM) */
 356:.\Generated_Source\PSoC4/CyFlash.c **** 
 357:.\Generated_Source\PSoC4/CyFlash.c ****     return (retValue);
 701              		.loc 1 357 0
 702 0012 7B68     		ldr	r3, [r7, #4]
 358:.\Generated_Source\PSoC4/CyFlash.c **** }
 703              		.loc 1 358 0
 704 0014 181C     		mov	r0, r3
 705 0016 BD46     		mov	sp, r7
 706 0018 02B0     		add	sp, sp, #8
 707              		@ sp needed
 708 001a 80BD     		pop	{r7, pc}
 709              	.L33:
 710              		.align	2
 711              	.L32:
 712 001c 08010B40 		.word	1074462984
 713 0020 00000000 		.word	cySysFlashBackup
 714              		.cfi_endproc
 715              	.LFE2:
 716              		.size	CySysFlashClockBackup, .-CySysFlashClockBackup
 717              		.section	.text.CySysFlashClockRestore,"ax",%progbits
 718              		.align	2
 719              		.code	16
 720              		.thumb_func
 721              		.type	CySysFlashClockRestore, %function
ARM GAS  C:\DOCUME~1\Owner\LOCALS~1\Temp\cc3wUi6F.s 			page 20


 722              	CySysFlashClockRestore:
 723              	.LFB3:
 359:.\Generated_Source\PSoC4/CyFlash.c **** 
 360:.\Generated_Source\PSoC4/CyFlash.c **** 
 361:.\Generated_Source\PSoC4/CyFlash.c **** #if(CY_IP_FMLT)
 362:.\Generated_Source\PSoC4/CyFlash.c **** /*******************************************************************************
 363:.\Generated_Source\PSoC4/CyFlash.c **** * Function Name: CySysFlashClockConfig
 364:.\Generated_Source\PSoC4/CyFlash.c **** ********************************************************************************
 365:.\Generated_Source\PSoC4/CyFlash.c **** *
 366:.\Generated_Source\PSoC4/CyFlash.c **** * Summary:
 367:.\Generated_Source\PSoC4/CyFlash.c **** *  Configures the device clocks for the flash writing.
 368:.\Generated_Source\PSoC4/CyFlash.c **** *
 369:.\Generated_Source\PSoC4/CyFlash.c **** * Parameters:
 370:.\Generated_Source\PSoC4/CyFlash.c **** *  None
 371:.\Generated_Source\PSoC4/CyFlash.c **** *
 372:.\Generated_Source\PSoC4/CyFlash.c **** * Return:
 373:.\Generated_Source\PSoC4/CyFlash.c **** *  The same as CySysFlashWriteRow().
 374:.\Generated_Source\PSoC4/CyFlash.c **** *
 375:.\Generated_Source\PSoC4/CyFlash.c **** *******************************************************************************/
 376:.\Generated_Source\PSoC4/CyFlash.c **** static cystatus CySysFlashClockConfig(void)
 377:.\Generated_Source\PSoC4/CyFlash.c **** {
 378:.\Generated_Source\PSoC4/CyFlash.c ****     cystatus retValue = CY_SYS_FLASH_SUCCESS;
 379:.\Generated_Source\PSoC4/CyFlash.c **** 
 380:.\Generated_Source\PSoC4/CyFlash.c ****     /***************************************************************************
 381:.\Generated_Source\PSoC4/CyFlash.c ****     * The FM-Lite IP uses the IMO at 48MHz for the pump clock and SPC timer
 382:.\Generated_Source\PSoC4/CyFlash.c ****     * clock. The PUMP_SEL and HF clock must be set to IMO before calling Flash
 383:.\Generated_Source\PSoC4/CyFlash.c ****     * write or erase operation.
 384:.\Generated_Source\PSoC4/CyFlash.c ****     ***************************************************************************/
 385:.\Generated_Source\PSoC4/CyFlash.c **** #if (CY_PSOC4_4000)
 386:.\Generated_Source\PSoC4/CyFlash.c **** 
 387:.\Generated_Source\PSoC4/CyFlash.c ****     /***************************************************************************
 388:.\Generated_Source\PSoC4/CyFlash.c ****     * Perform firmware clock settings setup for the PSOC4 4000 devices (the
 389:.\Generated_Source\PSoC4/CyFlash.c ****     * corresponding system call is not reliable):
 390:.\Generated_Source\PSoC4/CyFlash.c ****     * - The IMO frequency should be 48 MHz
 391:.\Generated_Source\PSoC4/CyFlash.c ****     * - The IMO should be source for the HFCLK
 392:.\Generated_Source\PSoC4/CyFlash.c ****     * - The IMO should be the source for the charge pump clock
 393:.\Generated_Source\PSoC4/CyFlash.c ****     *
 394:.\Generated_Source\PSoC4/CyFlash.c ****     * Note The structure members used below are initialized by
 395:.\Generated_Source\PSoC4/CyFlash.c ****     * the CySysFlashClockBackup() function.
 396:.\Generated_Source\PSoC4/CyFlash.c ****     ***************************************************************************/
 397:.\Generated_Source\PSoC4/CyFlash.c ****     if ((cySysFlashBackup.clkImoFreq != 48u) ||
 398:.\Generated_Source\PSoC4/CyFlash.c ****         ((cySysFlashBackup.clkSelectReg & CY_SYS_CLK_SELECT_DIRECT_SEL_MASK) != CY_SYS_CLK_HFCLK_IM
 399:.\Generated_Source\PSoC4/CyFlash.c ****         (((cySysFlashBackup.clkSelectReg >> CY_SYS_CLK_SELECT_PUMP_SEL_SHIFT) & CY_SYS_CLK_SELECT_P
 400:.\Generated_Source\PSoC4/CyFlash.c ****             CY_SYS_CLK_SELECT_PUMP_SEL_IMO))
 401:.\Generated_Source\PSoC4/CyFlash.c ****     {
 402:.\Generated_Source\PSoC4/CyFlash.c ****         /***********************************************************************
 403:.\Generated_Source\PSoC4/CyFlash.c ****          Set HFCLK divider to divide-by-4 to ensure that System clock frequency
 404:.\Generated_Source\PSoC4/CyFlash.c ****         * is within the valid limit (16 MHz for the PSoC4 4000).
 405:.\Generated_Source\PSoC4/CyFlash.c ****         ***********************************************************************/
 406:.\Generated_Source\PSoC4/CyFlash.c ****         CySysClkWriteHfclkDiv(CY_SYS_CLK_HFCLK_DIV_4);
 407:.\Generated_Source\PSoC4/CyFlash.c **** 
 408:.\Generated_Source\PSoC4/CyFlash.c ****         /* The IMO frequency should be 48 MHz */
 409:.\Generated_Source\PSoC4/CyFlash.c ****         if (cySysFlashBackup.clkImoFreq != 48u)
 410:.\Generated_Source\PSoC4/CyFlash.c ****         {
 411:.\Generated_Source\PSoC4/CyFlash.c ****             CySysClkWriteImoFreq(48u);
 412:.\Generated_Source\PSoC4/CyFlash.c ****         }
 413:.\Generated_Source\PSoC4/CyFlash.c ****         CySysClkImoStart();
ARM GAS  C:\DOCUME~1\Owner\LOCALS~1\Temp\cc3wUi6F.s 			page 21


 414:.\Generated_Source\PSoC4/CyFlash.c **** 
 415:.\Generated_Source\PSoC4/CyFlash.c ****         /* The IMO should be source for the HFCLK */
 416:.\Generated_Source\PSoC4/CyFlash.c ****         CySysClkWriteHfclkDirect(CY_SYS_CLK_HFCLK_IMO);
 417:.\Generated_Source\PSoC4/CyFlash.c **** 
 418:.\Generated_Source\PSoC4/CyFlash.c ****         /* The IMO should be the source for the charge pump clock */
 419:.\Generated_Source\PSoC4/CyFlash.c ****         CY_SYS_CLK_SELECT_REG =  (CY_SYS_CLK_SELECT_REG &
 420:.\Generated_Source\PSoC4/CyFlash.c ****             ((uint32)~(uint32)(CY_SYS_CLK_SELECT_PUMP_SEL_MASK << CY_SYS_CLK_SELECT_PUMP_SEL_SHIFT)
 421:.\Generated_Source\PSoC4/CyFlash.c ****             ((uint32)((uint32)1u << CY_SYS_CLK_SELECT_PUMP_SEL_SHIFT));
 422:.\Generated_Source\PSoC4/CyFlash.c ****     }
 423:.\Generated_Source\PSoC4/CyFlash.c **** 
 424:.\Generated_Source\PSoC4/CyFlash.c **** #else
 425:.\Generated_Source\PSoC4/CyFlash.c **** 
 426:.\Generated_Source\PSoC4/CyFlash.c ****     /* FM-Lite Clock Configuration */
 427:.\Generated_Source\PSoC4/CyFlash.c ****     CY_FLASH_CPUSS_SYSARG_REG = (uint32) ((CY_FLASH_KEY_TWO(CY_FLASH_API_OPCODE_CLK_CONFIG) <<  CY_
 428:.\Generated_Source\PSoC4/CyFlash.c ****     CY_FLASH_CPUSS_SYSREQ_REG = CY_FLASH_CPUSS_REQ_START | CY_FLASH_API_OPCODE_CLK_CONFIG;
 429:.\Generated_Source\PSoC4/CyFlash.c ****     retValue = CY_FLASH_API_RETURN;
 430:.\Generated_Source\PSoC4/CyFlash.c **** 
 431:.\Generated_Source\PSoC4/CyFlash.c **** #endif  /* (CY_PSOC4_4000) */
 432:.\Generated_Source\PSoC4/CyFlash.c **** 
 433:.\Generated_Source\PSoC4/CyFlash.c ****     return (retValue);
 434:.\Generated_Source\PSoC4/CyFlash.c **** }
 435:.\Generated_Source\PSoC4/CyFlash.c **** #endif  /* (CY_IP_FMLT) */
 436:.\Generated_Source\PSoC4/CyFlash.c **** 
 437:.\Generated_Source\PSoC4/CyFlash.c **** 
 438:.\Generated_Source\PSoC4/CyFlash.c **** /*******************************************************************************
 439:.\Generated_Source\PSoC4/CyFlash.c **** * Function Name: CySysFlashClockRestore
 440:.\Generated_Source\PSoC4/CyFlash.c **** ********************************************************************************
 441:.\Generated_Source\PSoC4/CyFlash.c **** *
 442:.\Generated_Source\PSoC4/CyFlash.c **** * Summary:
 443:.\Generated_Source\PSoC4/CyFlash.c **** *  Restores the device clock configuration.
 444:.\Generated_Source\PSoC4/CyFlash.c **** *
 445:.\Generated_Source\PSoC4/CyFlash.c **** * Parameters:
 446:.\Generated_Source\PSoC4/CyFlash.c **** *  None
 447:.\Generated_Source\PSoC4/CyFlash.c **** *
 448:.\Generated_Source\PSoC4/CyFlash.c **** * Return:
 449:.\Generated_Source\PSoC4/CyFlash.c **** *  The same as CySysFlashWriteRow().
 450:.\Generated_Source\PSoC4/CyFlash.c **** *
 451:.\Generated_Source\PSoC4/CyFlash.c **** *******************************************************************************/
 452:.\Generated_Source\PSoC4/CyFlash.c **** static cystatus CySysFlashClockRestore(void)
 453:.\Generated_Source\PSoC4/CyFlash.c **** {
 724              		.loc 1 453 0
 725              		.cfi_startproc
 726 0000 80B5     		push	{r7, lr}
 727              		.cfi_def_cfa_offset 8
 728              		.cfi_offset 7, -8
 729              		.cfi_offset 14, -4
 730 0002 82B0     		sub	sp, sp, #8
 731              		.cfi_def_cfa_offset 16
 732 0004 00AF     		add	r7, sp, #0
 733              		.cfi_def_cfa_register 7
 454:.\Generated_Source\PSoC4/CyFlash.c ****     cystatus retValue = CY_SYS_FLASH_SUCCESS;
 734              		.loc 1 454 0
 735 0006 0023     		mov	r3, #0
 736 0008 7B60     		str	r3, [r7, #4]
 455:.\Generated_Source\PSoC4/CyFlash.c **** #if(!CY_IP_FM)
 456:.\Generated_Source\PSoC4/CyFlash.c ****     #if !(CY_PSOC4_4000)
 457:.\Generated_Source\PSoC4/CyFlash.c ****         volatile uint32   parameters[2u];
ARM GAS  C:\DOCUME~1\Owner\LOCALS~1\Temp\cc3wUi6F.s 			page 22


 458:.\Generated_Source\PSoC4/CyFlash.c ****     #endif  /* !(CY_PSOC4_4000) */
 459:.\Generated_Source\PSoC4/CyFlash.c **** #endif  /* (!CY_IP_FM) */
 460:.\Generated_Source\PSoC4/CyFlash.c **** 
 461:.\Generated_Source\PSoC4/CyFlash.c **** #if(CY_IP_FM)
 462:.\Generated_Source\PSoC4/CyFlash.c **** 
 463:.\Generated_Source\PSoC4/CyFlash.c ****     /***************************************************************
 464:.\Generated_Source\PSoC4/CyFlash.c ****     * Restore IMO configuration that could be changed during
 465:.\Generated_Source\PSoC4/CyFlash.c ****     * system call execution (Cypress ID #150448).
 466:.\Generated_Source\PSoC4/CyFlash.c ****     ***************************************************************/
 467:.\Generated_Source\PSoC4/CyFlash.c ****     CY_SYS_CLK_IMO_CONFIG_REG = cySysFlashBackup.imoConfigReg;
 737              		.loc 1 467 0
 738 000a 044B     		ldr	r3, .L36
 739 000c 044A     		ldr	r2, .L36+4
 740 000e 1268     		ldr	r2, [r2]
 741 0010 1A60     		str	r2, [r3]
 468:.\Generated_Source\PSoC4/CyFlash.c **** 
 469:.\Generated_Source\PSoC4/CyFlash.c **** #else
 470:.\Generated_Source\PSoC4/CyFlash.c **** 
 471:.\Generated_Source\PSoC4/CyFlash.c ****     #if (CY_PSOC4_4000)
 472:.\Generated_Source\PSoC4/CyFlash.c **** 
 473:.\Generated_Source\PSoC4/CyFlash.c ****         /***************************************************************************
 474:.\Generated_Source\PSoC4/CyFlash.c ****         * Perform firmware clock settings restore for the PSOC4 4000 devices (the
 475:.\Generated_Source\PSoC4/CyFlash.c ****         * corresponding system call is not available).
 476:.\Generated_Source\PSoC4/CyFlash.c ****         ***************************************************************************/
 477:.\Generated_Source\PSoC4/CyFlash.c **** 
 478:.\Generated_Source\PSoC4/CyFlash.c ****         /* Restore clock settings */
 479:.\Generated_Source\PSoC4/CyFlash.c ****         if ((cySysFlashBackup.clkImoFreq != 48u) ||
 480:.\Generated_Source\PSoC4/CyFlash.c ****             ((cySysFlashBackup.clkSelectReg & CY_SYS_CLK_SELECT_DIRECT_SEL_MASK) != CY_SYS_CLK_HFCL
 481:.\Generated_Source\PSoC4/CyFlash.c ****             (((cySysFlashBackup.clkSelectReg >> CY_SYS_CLK_SELECT_PUMP_SEL_SHIFT) & CY_SYS_CLK_SELE
 482:.\Generated_Source\PSoC4/CyFlash.c ****                 CY_SYS_CLK_SELECT_PUMP_SEL_IMO))
 483:.\Generated_Source\PSoC4/CyFlash.c ****         {
 484:.\Generated_Source\PSoC4/CyFlash.c ****             /* Restore IMO frequency if needed */
 485:.\Generated_Source\PSoC4/CyFlash.c ****             if (cySysFlashBackup.clkImoFreq != 48u)
 486:.\Generated_Source\PSoC4/CyFlash.c ****             {
 487:.\Generated_Source\PSoC4/CyFlash.c ****                 CySysClkWriteImoFreq(cySysFlashBackup.clkImoFreq);
 488:.\Generated_Source\PSoC4/CyFlash.c ****             }
 489:.\Generated_Source\PSoC4/CyFlash.c **** 
 490:.\Generated_Source\PSoC4/CyFlash.c ****             /* Restore HFCLK clock source */
 491:.\Generated_Source\PSoC4/CyFlash.c ****             CySysClkWriteHfclkDirect(cySysFlashBackup.clkSelectReg & CY_SYS_CLK_SELECT_DIRECT_SEL_M
 492:.\Generated_Source\PSoC4/CyFlash.c **** 
 493:.\Generated_Source\PSoC4/CyFlash.c ****             /* Restore HFCLK divider and source for pump  */
 494:.\Generated_Source\PSoC4/CyFlash.c ****             CY_SYS_CLK_SELECT_REG = cySysFlashBackup.clkSelectReg;
 495:.\Generated_Source\PSoC4/CyFlash.c **** 
 496:.\Generated_Source\PSoC4/CyFlash.c ****             /* Stop IMO if needed */
 497:.\Generated_Source\PSoC4/CyFlash.c ****             if (0u == cySysFlashBackup.clkImoEna)
 498:.\Generated_Source\PSoC4/CyFlash.c ****             {
 499:.\Generated_Source\PSoC4/CyFlash.c ****                 CySysClkImoStop();
 500:.\Generated_Source\PSoC4/CyFlash.c ****             }
 501:.\Generated_Source\PSoC4/CyFlash.c ****         }
 502:.\Generated_Source\PSoC4/CyFlash.c **** 
 503:.\Generated_Source\PSoC4/CyFlash.c ****     #else
 504:.\Generated_Source\PSoC4/CyFlash.c **** 
 505:.\Generated_Source\PSoC4/CyFlash.c ****         /* FM-Lite Clock Restore */
 506:.\Generated_Source\PSoC4/CyFlash.c ****         parameters[0u] = (uint32) ((CY_FLASH_KEY_TWO(CY_FLASH_API_OPCODE_CLK_RESTORE) <<  CY_FLASH_
 507:.\Generated_Source\PSoC4/CyFlash.c ****         parameters[1u] = (uint32) &cySysFlashBackup.clockSettings[0u];
 508:.\Generated_Source\PSoC4/CyFlash.c ****         CY_FLASH_CPUSS_SYSARG_REG = (uint32) &parameters[0u];
 509:.\Generated_Source\PSoC4/CyFlash.c ****         CY_FLASH_CPUSS_SYSREQ_REG = CY_FLASH_CPUSS_REQ_START | CY_FLASH_API_OPCODE_CLK_RESTORE;
ARM GAS  C:\DOCUME~1\Owner\LOCALS~1\Temp\cc3wUi6F.s 			page 23


 510:.\Generated_Source\PSoC4/CyFlash.c ****         retValue = CY_FLASH_API_RETURN;
 511:.\Generated_Source\PSoC4/CyFlash.c **** 
 512:.\Generated_Source\PSoC4/CyFlash.c ****     #endif  /* (CY_PSOC4_4000) */
 513:.\Generated_Source\PSoC4/CyFlash.c **** 
 514:.\Generated_Source\PSoC4/CyFlash.c **** #endif  /* (CY_IP_FM) */
 515:.\Generated_Source\PSoC4/CyFlash.c **** 
 516:.\Generated_Source\PSoC4/CyFlash.c ****     return (retValue);
 742              		.loc 1 516 0
 743 0012 7B68     		ldr	r3, [r7, #4]
 517:.\Generated_Source\PSoC4/CyFlash.c **** }
 744              		.loc 1 517 0
 745 0014 181C     		mov	r0, r3
 746 0016 BD46     		mov	sp, r7
 747 0018 02B0     		add	sp, sp, #8
 748              		@ sp needed
 749 001a 80BD     		pop	{r7, pc}
 750              	.L37:
 751              		.align	2
 752              	.L36:
 753 001c 08010B40 		.word	1074462984
 754 0020 00000000 		.word	cySysFlashBackup
 755              		.cfi_endproc
 756              	.LFE3:
 757              		.size	CySysFlashClockRestore, .-CySysFlashClockRestore
 758              		.text
 759              	.Letext0:
 760              		.file 2 ".\\Generated_Source\\PSoC4\\cytypes.h"
 761              		.file 3 ".\\Generated_Source\\PSoC4\\CyFlash.h"