ARM GAS  C:\DOCUME~1\Owner\LOCALS~1\Temp\cc3gLjSb.s 			page 1


   1              		.cpu cortex-m0
   2              		.fpu softvfp
   3              		.eabi_attribute 20, 1
   4              		.eabi_attribute 21, 1
   5              		.eabi_attribute 23, 3
   6              		.eabi_attribute 24, 1
   7              		.eabi_attribute 25, 1
   8              		.eabi_attribute 26, 1
   9              		.eabi_attribute 30, 6
  10              		.eabi_attribute 34, 0
  11              		.eabi_attribute 18, 4
  12              		.code	16
  13              		.file	"CyLib.c"
  14              		.text
  15              	.Ltext0:
  16              		.cfi_sections	.debug_frame
  17              		.global	cydelayFreqHz
  18              		.data
  19              		.align	2
  20              		.type	cydelayFreqHz, %object
  21              		.size	cydelayFreqHz, 4
  22              	cydelayFreqHz:
  23 0000 00366E01 		.word	24000000
  24              		.global	cydelayFreqKhz
  25              		.align	2
  26              		.type	cydelayFreqKhz, %object
  27              		.size	cydelayFreqKhz, 4
  28              	cydelayFreqKhz:
  29 0004 C05D0000 		.word	24000
  30              		.global	cydelayFreqMhz
  31              		.type	cydelayFreqMhz, %object
  32              		.size	cydelayFreqMhz, 1
  33              	cydelayFreqMhz:
  34 0008 18       		.byte	24
  35              		.global	cydelay32kMs
  36 0009 000000   		.align	2
  37              		.type	cydelay32kMs, %object
  38              		.size	cydelay32kMs, 4
  39              	cydelay32kMs:
  40 000c 0000E02E 		.word	786432000
  41              		.global	lfclkPosedgeWdtCounter0Enabled
  42              		.bss
  43              		.align	2
  44              		.type	lfclkPosedgeWdtCounter0Enabled, %object
  45              		.size	lfclkPosedgeWdtCounter0Enabled, 4
  46              	lfclkPosedgeWdtCounter0Enabled:
  47 0000 00000000 		.space	4
  48              		.global	lfclkPosedgeEnabledWdtCounter
  49              		.align	2
  50              		.type	lfclkPosedgeEnabledWdtCounter, %object
  51              		.size	lfclkPosedgeEnabledWdtCounter, 4
  52              	lfclkPosedgeEnabledWdtCounter:
  53 0004 00000000 		.space	4
  54              		.global	lfclkPosedgeWdtCounter0Mode
  55              		.align	2
  56              		.type	lfclkPosedgeWdtCounter0Mode, %object
  57              		.size	lfclkPosedgeWdtCounter0Mode, 4
ARM GAS  C:\DOCUME~1\Owner\LOCALS~1\Temp\cc3gLjSb.s 			page 2


  58              	lfclkPosedgeWdtCounter0Mode:
  59 0008 00000000 		.space	4
  60              		.align	2
  61              	CySysTickCallbacks:
  62 000c 00000000 		.space	20
  62      00000000 
  62      00000000 
  62      00000000 
  62      00000000 
  63              		.global	CySysTickInitVar
  64              		.align	2
  65              		.type	CySysTickInitVar, %object
  66              		.size	CySysTickInitVar, 4
  67              	CySysTickInitVar:
  68 0020 00000000 		.space	4
  69              		.global	cyImoFreqMhz2Reg
  70              		.section	.rodata
  71              		.align	2
  72              		.type	cyImoFreqMhz2Reg, %object
  73              		.size	cyImoFreqMhz2Reg, 46
  74              	cyImoFreqMhz2Reg:
  75 0000 03       		.byte	3
  76 0001 04       		.byte	4
  77 0002 05       		.byte	5
  78 0003 06       		.byte	6
  79 0004 07       		.byte	7
  80 0005 08       		.byte	8
  81 0006 09       		.byte	9
  82 0007 0A       		.byte	10
  83 0008 0B       		.byte	11
  84 0009 0C       		.byte	12
  85 000a 0E       		.byte	14
  86 000b 0F       		.byte	15
  87 000c 10       		.byte	16
  88 000d 11       		.byte	17
  89 000e 12       		.byte	18
  90 000f 13       		.byte	19
  91 0010 14       		.byte	20
  92 0011 15       		.byte	21
  93 0012 16       		.byte	22
  94 0013 17       		.byte	23
  95 0014 18       		.byte	24
  96 0015 19       		.byte	25
  97 0016 1B       		.byte	27
  98 0017 1C       		.byte	28
  99 0018 1D       		.byte	29
 100 0019 1E       		.byte	30
 101 001a 1F       		.byte	31
 102 001b 20       		.byte	32
 103 001c 21       		.byte	33
 104 001d 22       		.byte	34
 105 001e 23       		.byte	35
 106 001f 25       		.byte	37
 107 0020 26       		.byte	38
 108 0021 27       		.byte	39
 109 0022 28       		.byte	40
 110 0023 29       		.byte	41
ARM GAS  C:\DOCUME~1\Owner\LOCALS~1\Temp\cc3gLjSb.s 			page 3


 111 0024 2A       		.byte	42
 112 0025 2B       		.byte	43
 113 0026 2E       		.byte	46
 114 0027 2F       		.byte	47
 115 0028 30       		.byte	48
 116 0029 31       		.byte	49
 117 002a 32       		.byte	50
 118 002b 33       		.byte	51
 119 002c 34       		.byte	52
 120 002d 35       		.byte	53
 121 002e 0000     		.section	.text.CySysClkImoStart,"ax",%progbits
 122              		.align	2
 123              		.global	CySysClkImoStart
 124              		.code	16
 125              		.thumb_func
 126              		.type	CySysClkImoStart, %function
 127              	CySysClkImoStart:
 128              	.LFB0:
 129              		.file 1 ".\\Generated_Source\\PSoC4\\CyLib.c"
   1:.\Generated_Source\PSoC4/CyLib.c **** /*******************************************************************************
   2:.\Generated_Source\PSoC4/CyLib.c **** * File Name: CyLib.c
   3:.\Generated_Source\PSoC4/CyLib.c **** * Version 4.20
   4:.\Generated_Source\PSoC4/CyLib.c **** *
   5:.\Generated_Source\PSoC4/CyLib.c **** *  Description:
   6:.\Generated_Source\PSoC4/CyLib.c **** *   Provides a system API for the clocking, interrupts, and watchdog timer.
   7:.\Generated_Source\PSoC4/CyLib.c **** *
   8:.\Generated_Source\PSoC4/CyLib.c **** *  Note:
   9:.\Generated_Source\PSoC4/CyLib.c **** *   Documentation of the API's in this file is located in the
  10:.\Generated_Source\PSoC4/CyLib.c **** *   System Reference Guide provided with PSoC Creator.
  11:.\Generated_Source\PSoC4/CyLib.c **** *
  12:.\Generated_Source\PSoC4/CyLib.c **** ********************************************************************************
  13:.\Generated_Source\PSoC4/CyLib.c **** * Copyright 2010-2014, Cypress Semiconductor Corporation.  All rights reserved.
  14:.\Generated_Source\PSoC4/CyLib.c **** * You may use this file only in accordance with the license, terms, conditions,
  15:.\Generated_Source\PSoC4/CyLib.c **** * disclaimers, and limitations in the end user license agreement accompanying
  16:.\Generated_Source\PSoC4/CyLib.c **** * the software package with which this file was provided.
  17:.\Generated_Source\PSoC4/CyLib.c **** *******************************************************************************/
  18:.\Generated_Source\PSoC4/CyLib.c **** 
  19:.\Generated_Source\PSoC4/CyLib.c **** #include "CyLib.h"
  20:.\Generated_Source\PSoC4/CyLib.c **** 
  21:.\Generated_Source\PSoC4/CyLib.c **** 
  22:.\Generated_Source\PSoC4/CyLib.c **** /* Do not use these definitions directly in your application */
  23:.\Generated_Source\PSoC4/CyLib.c **** uint32 cydelayFreqHz  = CYDEV_BCLK__SYSCLK__HZ;
  24:.\Generated_Source\PSoC4/CyLib.c **** uint32 cydelayFreqKhz = (CYDEV_BCLK__SYSCLK__HZ + CY_DELAY_1K_MINUS_1_THRESHOLD) / CY_DELAY_1K_THRE
  25:.\Generated_Source\PSoC4/CyLib.c **** uint8  cydelayFreqMhz = (uint8)((CYDEV_BCLK__SYSCLK__HZ + CY_DELAY_1M_MINUS_1_THRESHOLD) / CY_DELAY
  26:.\Generated_Source\PSoC4/CyLib.c **** uint32 cydelay32kMs   = CY_DELAY_MS_OVERFLOW * ((CYDEV_BCLK__SYSCLK__HZ + CY_DELAY_1K_MINUS_1_THRES
  27:.\Generated_Source\PSoC4/CyLib.c ****                         CY_DELAY_1K_THRESHOLD);
  28:.\Generated_Source\PSoC4/CyLib.c **** 
  29:.\Generated_Source\PSoC4/CyLib.c **** #if (CY_IP_WCO)
  30:.\Generated_Source\PSoC4/CyLib.c ****     static uint32 CySysClkGetLfclkSource(void);
  31:.\Generated_Source\PSoC4/CyLib.c **** #endif /* (CY_IP_WCO) */
  32:.\Generated_Source\PSoC4/CyLib.c **** 
  33:.\Generated_Source\PSoC4/CyLib.c **** #if(CY_IP_SRSSV2)
  34:.\Generated_Source\PSoC4/CyLib.c ****     /* CySysClkLfclkPosedgeCatch() / CySysClkLfclkPosedgeRestore() */
  35:.\Generated_Source\PSoC4/CyLib.c ****     uint32 lfclkPosedgeWdtCounter0Enabled = 0u;
  36:.\Generated_Source\PSoC4/CyLib.c ****     uint32 lfclkPosedgeEnabledWdtCounter  = 0u;
  37:.\Generated_Source\PSoC4/CyLib.c ****     uint32 lfclkPosedgeWdtCounter0Mode    = CY_SYS_WDT_MODE_NONE;
  38:.\Generated_Source\PSoC4/CyLib.c **** 
ARM GAS  C:\DOCUME~1\Owner\LOCALS~1\Temp\cc3gLjSb.s 			page 4


  39:.\Generated_Source\PSoC4/CyLib.c ****     static void CySysClkLfclkPosedgeCatch(void);
  40:.\Generated_Source\PSoC4/CyLib.c ****     static void CySysClkLfclkPosedgeRestore(void);
  41:.\Generated_Source\PSoC4/CyLib.c **** 
  42:.\Generated_Source\PSoC4/CyLib.c ****     static uint32 CySysWdtLocked(void);
  43:.\Generated_Source\PSoC4/CyLib.c ****     static uint32 CySysClkIloEnabled(void);
  44:.\Generated_Source\PSoC4/CyLib.c ****     #if (CY_IP_WCO)
  45:.\Generated_Source\PSoC4/CyLib.c ****         static uint32 CySysClkWcoEnabled(void);
  46:.\Generated_Source\PSoC4/CyLib.c ****     #endif /* (CY_IP_WCO) */
  47:.\Generated_Source\PSoC4/CyLib.c **** #endif /* (CY_IP_SRSSV2) */
  48:.\Generated_Source\PSoC4/CyLib.c **** 
  49:.\Generated_Source\PSoC4/CyLib.c **** 
  50:.\Generated_Source\PSoC4/CyLib.c **** static cySysTickCallback CySysTickCallbacks[CY_SYS_SYST_NUM_OF_CALLBACKS];
  51:.\Generated_Source\PSoC4/CyLib.c **** static void CySysTickServiceCallbacks(void);
  52:.\Generated_Source\PSoC4/CyLib.c **** uint32 CySysTickInitVar = 0u;
  53:.\Generated_Source\PSoC4/CyLib.c **** 
  54:.\Generated_Source\PSoC4/CyLib.c **** 
  55:.\Generated_Source\PSoC4/CyLib.c **** #if(CY_IP_SRSSV2)
  56:.\Generated_Source\PSoC4/CyLib.c ****         /* Conversion between CySysClkWriteImoFreq() parameter and register's value */
  57:.\Generated_Source\PSoC4/CyLib.c ****         const uint8 cyImoFreqMhz2Reg[CY_SYS_CLK_IMO_FREQ_TABLE_SIZE] = {
  58:.\Generated_Source\PSoC4/CyLib.c ****             /*  3 MHz */ 0x03u,  /*  4 MHz */ 0x04u,  /*  5 MHz */ 0x05u,  /*  6 MHz */ 0x06u,
  59:.\Generated_Source\PSoC4/CyLib.c ****             /*  7 MHz */ 0x07u,  /*  8 MHz */ 0x08u,  /*  9 MHz */ 0x09u,  /* 10 MHz */ 0x0Au,
  60:.\Generated_Source\PSoC4/CyLib.c ****             /* 11 MHz */ 0x0Bu,  /* 12 MHz */ 0x0Cu,  /* 13 MHz */ 0x0Eu,  /* 14 MHz */ 0x0Fu,
  61:.\Generated_Source\PSoC4/CyLib.c ****             /* 15 MHz */ 0x10u,  /* 16 MHz */ 0x11u,  /* 17 MHz */ 0x12u,  /* 18 MHz */ 0x13u,
  62:.\Generated_Source\PSoC4/CyLib.c ****             /* 19 MHz */ 0x14u,  /* 20 MHz */ 0x15u,  /* 21 MHz */ 0x16u,  /* 22 MHz */ 0x17u,
  63:.\Generated_Source\PSoC4/CyLib.c ****             /* 23 MHz */ 0x18u,  /* 24 MHz */ 0x19u,  /* 25 MHz */ 0x1Bu,  /* 26 MHz */ 0x1Cu,
  64:.\Generated_Source\PSoC4/CyLib.c ****             /* 27 MHz */ 0x1Du,  /* 28 MHz */ 0x1Eu,  /* 29 MHz */ 0x1Fu,  /* 30 MHz */ 0x20u,
  65:.\Generated_Source\PSoC4/CyLib.c ****             /* 31 MHz */ 0x21u,  /* 32 MHz */ 0x22u,  /* 33 MHz */ 0x23u,  /* 34 MHz */ 0x25u,
  66:.\Generated_Source\PSoC4/CyLib.c ****             /* 35 MHz */ 0x26u,  /* 36 MHz */ 0x27u,  /* 37 MHz */ 0x28u,  /* 38 MHz */ 0x29u,
  67:.\Generated_Source\PSoC4/CyLib.c ****             /* 39 MHz */ 0x2Au,  /* 40 MHz */ 0x2Bu,  /* 41 MHz */ 0x2Eu,  /* 42 MHz */ 0x2Fu,
  68:.\Generated_Source\PSoC4/CyLib.c ****             /* 43 MHz */ 0x30u,  /* 44 MHz */ 0x31u,  /* 45 MHz */ 0x32u,  /* 46 MHz */ 0x33u,
  69:.\Generated_Source\PSoC4/CyLib.c ****             /* 47 MHz */ 0x34u,  /* 48 MHz */ 0x35u };
  70:.\Generated_Source\PSoC4/CyLib.c **** #endif /* (CY_IP_SRSSV2) */
  71:.\Generated_Source\PSoC4/CyLib.c **** 
  72:.\Generated_Source\PSoC4/CyLib.c **** 
  73:.\Generated_Source\PSoC4/CyLib.c **** /*******************************************************************************
  74:.\Generated_Source\PSoC4/CyLib.c **** * Function Name: CySysClkImoStart
  75:.\Generated_Source\PSoC4/CyLib.c **** ********************************************************************************
  76:.\Generated_Source\PSoC4/CyLib.c **** *
  77:.\Generated_Source\PSoC4/CyLib.c **** * Summary:
  78:.\Generated_Source\PSoC4/CyLib.c **** *  Enables the IMO.
  79:.\Generated_Source\PSoC4/CyLib.c **** *
  80:.\Generated_Source\PSoC4/CyLib.c **** * Parameters:
  81:.\Generated_Source\PSoC4/CyLib.c **** *  None
  82:.\Generated_Source\PSoC4/CyLib.c **** *
  83:.\Generated_Source\PSoC4/CyLib.c **** * Return:
  84:.\Generated_Source\PSoC4/CyLib.c **** *  None
  85:.\Generated_Source\PSoC4/CyLib.c **** *
  86:.\Generated_Source\PSoC4/CyLib.c **** *******************************************************************************/
  87:.\Generated_Source\PSoC4/CyLib.c **** void CySysClkImoStart(void)
  88:.\Generated_Source\PSoC4/CyLib.c **** {
 130              		.loc 1 88 0
 131              		.cfi_startproc
 132 0000 80B5     		push	{r7, lr}
 133              		.cfi_def_cfa_offset 8
 134              		.cfi_offset 7, -8
 135              		.cfi_offset 14, -4
 136 0002 00AF     		add	r7, sp, #0
ARM GAS  C:\DOCUME~1\Owner\LOCALS~1\Temp\cc3gLjSb.s 			page 5


 137              		.cfi_def_cfa_register 7
  89:.\Generated_Source\PSoC4/CyLib.c ****     CY_SYS_CLK_IMO_CONFIG_REG |= CY_SYS_CLK_IMO_CONFIG_ENABLE;
 138              		.loc 1 89 0
 139 0004 044B     		ldr	r3, .L2
 140 0006 044A     		ldr	r2, .L2
 141 0008 1268     		ldr	r2, [r2]
 142 000a 8021     		mov	r1, #128
 143 000c 0906     		lsl	r1, r1, #24
 144 000e 0A43     		orr	r2, r1
 145 0010 1A60     		str	r2, [r3]
  90:.\Generated_Source\PSoC4/CyLib.c **** }
 146              		.loc 1 90 0
 147 0012 BD46     		mov	sp, r7
 148              		@ sp needed
 149 0014 80BD     		pop	{r7, pc}
 150              	.L3:
 151 0016 C046     		.align	2
 152              	.L2:
 153 0018 08010B40 		.word	1074462984
 154              		.cfi_endproc
 155              	.LFE0:
 156              		.size	CySysClkImoStart, .-CySysClkImoStart
 157              		.section	.text.CySysClkImoStop,"ax",%progbits
 158              		.align	2
 159              		.global	CySysClkImoStop
 160              		.code	16
 161              		.thumb_func
 162              		.type	CySysClkImoStop, %function
 163              	CySysClkImoStop:
 164              	.LFB1:
  91:.\Generated_Source\PSoC4/CyLib.c **** 
  92:.\Generated_Source\PSoC4/CyLib.c **** 
  93:.\Generated_Source\PSoC4/CyLib.c **** /*******************************************************************************
  94:.\Generated_Source\PSoC4/CyLib.c **** * Function Name: CySysClkImoStop
  95:.\Generated_Source\PSoC4/CyLib.c **** ********************************************************************************
  96:.\Generated_Source\PSoC4/CyLib.c **** *
  97:.\Generated_Source\PSoC4/CyLib.c **** * Summary:
  98:.\Generated_Source\PSoC4/CyLib.c **** *  Disables the IMO.
  99:.\Generated_Source\PSoC4/CyLib.c **** *
 100:.\Generated_Source\PSoC4/CyLib.c **** * Parameters:
 101:.\Generated_Source\PSoC4/CyLib.c **** *  None
 102:.\Generated_Source\PSoC4/CyLib.c **** *
 103:.\Generated_Source\PSoC4/CyLib.c **** * Return:
 104:.\Generated_Source\PSoC4/CyLib.c **** *  None
 105:.\Generated_Source\PSoC4/CyLib.c **** *
 106:.\Generated_Source\PSoC4/CyLib.c **** *******************************************************************************/
 107:.\Generated_Source\PSoC4/CyLib.c **** void CySysClkImoStop(void)
 108:.\Generated_Source\PSoC4/CyLib.c **** {
 165              		.loc 1 108 0
 166              		.cfi_startproc
 167 0000 80B5     		push	{r7, lr}
 168              		.cfi_def_cfa_offset 8
 169              		.cfi_offset 7, -8
 170              		.cfi_offset 14, -4
 171 0002 00AF     		add	r7, sp, #0
 172              		.cfi_def_cfa_register 7
 109:.\Generated_Source\PSoC4/CyLib.c ****     CY_SYS_CLK_IMO_CONFIG_REG &= ( uint32 ) ( ~( uint32 )CY_SYS_CLK_IMO_CONFIG_ENABLE);
ARM GAS  C:\DOCUME~1\Owner\LOCALS~1\Temp\cc3gLjSb.s 			page 6


 173              		.loc 1 109 0
 174 0004 034B     		ldr	r3, .L5
 175 0006 034A     		ldr	r2, .L5
 176 0008 1268     		ldr	r2, [r2]
 177 000a 5200     		lsl	r2, r2, #1
 178 000c 5208     		lsr	r2, r2, #1
 179 000e 1A60     		str	r2, [r3]
 110:.\Generated_Source\PSoC4/CyLib.c **** }
 180              		.loc 1 110 0
 181 0010 BD46     		mov	sp, r7
 182              		@ sp needed
 183 0012 80BD     		pop	{r7, pc}
 184              	.L6:
 185              		.align	2
 186              	.L5:
 187 0014 08010B40 		.word	1074462984
 188              		.cfi_endproc
 189              	.LFE1:
 190              		.size	CySysClkImoStop, .-CySysClkImoStop
 191              		.section	.text.CySysClkIloStart,"ax",%progbits
 192              		.align	2
 193              		.global	CySysClkIloStart
 194              		.code	16
 195              		.thumb_func
 196              		.type	CySysClkIloStart, %function
 197              	CySysClkIloStart:
 198              	.LFB2:
 111:.\Generated_Source\PSoC4/CyLib.c **** 
 112:.\Generated_Source\PSoC4/CyLib.c **** 
 113:.\Generated_Source\PSoC4/CyLib.c **** /*******************************************************************************
 114:.\Generated_Source\PSoC4/CyLib.c **** * Function Name: CySysClkIloStart
 115:.\Generated_Source\PSoC4/CyLib.c **** ********************************************************************************
 116:.\Generated_Source\PSoC4/CyLib.c **** *
 117:.\Generated_Source\PSoC4/CyLib.c **** * Summary:
 118:.\Generated_Source\PSoC4/CyLib.c **** *  Enables the ILO. Refer to the device datasheet for the ILO startup time.
 119:.\Generated_Source\PSoC4/CyLib.c **** *
 120:.\Generated_Source\PSoC4/CyLib.c **** * Parameters:
 121:.\Generated_Source\PSoC4/CyLib.c **** *  None
 122:.\Generated_Source\PSoC4/CyLib.c **** *
 123:.\Generated_Source\PSoC4/CyLib.c **** * Return:
 124:.\Generated_Source\PSoC4/CyLib.c **** *  None
 125:.\Generated_Source\PSoC4/CyLib.c **** *
 126:.\Generated_Source\PSoC4/CyLib.c **** *******************************************************************************/
 127:.\Generated_Source\PSoC4/CyLib.c **** void CySysClkIloStart(void)
 128:.\Generated_Source\PSoC4/CyLib.c **** {
 199              		.loc 1 128 0
 200              		.cfi_startproc
 201 0000 80B5     		push	{r7, lr}
 202              		.cfi_def_cfa_offset 8
 203              		.cfi_offset 7, -8
 204              		.cfi_offset 14, -4
 205 0002 00AF     		add	r7, sp, #0
 206              		.cfi_def_cfa_register 7
 129:.\Generated_Source\PSoC4/CyLib.c ****     CY_SYS_CLK_ILO_CONFIG_REG |= CY_SYS_CLK_ILO_CONFIG_ENABLE;
 207              		.loc 1 129 0
 208 0004 044B     		ldr	r3, .L8
 209 0006 044A     		ldr	r2, .L8
ARM GAS  C:\DOCUME~1\Owner\LOCALS~1\Temp\cc3gLjSb.s 			page 7


 210 0008 1268     		ldr	r2, [r2]
 211 000a 8021     		mov	r1, #128
 212 000c 0906     		lsl	r1, r1, #24
 213 000e 0A43     		orr	r2, r1
 214 0010 1A60     		str	r2, [r3]
 130:.\Generated_Source\PSoC4/CyLib.c **** }
 215              		.loc 1 130 0
 216 0012 BD46     		mov	sp, r7
 217              		@ sp needed
 218 0014 80BD     		pop	{r7, pc}
 219              	.L9:
 220 0016 C046     		.align	2
 221              	.L8:
 222 0018 04010B40 		.word	1074462980
 223              		.cfi_endproc
 224              	.LFE2:
 225              		.size	CySysClkIloStart, .-CySysClkIloStart
 226              		.section	.text.CySysClkIloStop,"ax",%progbits
 227              		.align	2
 228              		.global	CySysClkIloStop
 229              		.code	16
 230              		.thumb_func
 231              		.type	CySysClkIloStop, %function
 232              	CySysClkIloStop:
 233              	.LFB3:
 131:.\Generated_Source\PSoC4/CyLib.c **** 
 132:.\Generated_Source\PSoC4/CyLib.c **** 
 133:.\Generated_Source\PSoC4/CyLib.c **** /*******************************************************************************
 134:.\Generated_Source\PSoC4/CyLib.c **** * Function Name: CySysClkIloStop
 135:.\Generated_Source\PSoC4/CyLib.c **** ********************************************************************************
 136:.\Generated_Source\PSoC4/CyLib.c **** *
 137:.\Generated_Source\PSoC4/CyLib.c **** * Summary:
 138:.\Generated_Source\PSoC4/CyLib.c **** *  Disables the ILO.
 139:.\Generated_Source\PSoC4/CyLib.c **** *
 140:.\Generated_Source\PSoC4/CyLib.c **** * Parameters:
 141:.\Generated_Source\PSoC4/CyLib.c **** *  None
 142:.\Generated_Source\PSoC4/CyLib.c **** *
 143:.\Generated_Source\PSoC4/CyLib.c **** * Return:
 144:.\Generated_Source\PSoC4/CyLib.c **** *  None
 145:.\Generated_Source\PSoC4/CyLib.c **** *
 146:.\Generated_Source\PSoC4/CyLib.c **** * Side Effects:
 147:.\Generated_Source\PSoC4/CyLib.c **** *  This function will have no effect if the WDT is locked (CySysWdtLock() is
 148:.\Generated_Source\PSoC4/CyLib.c **** *  called). Call CySysWdtUnlock() to unlock the WDT and be able to stop ILO.
 149:.\Generated_Source\PSoC4/CyLib.c **** *
 150:.\Generated_Source\PSoC4/CyLib.c **** *  PSoC 4100 / PSoC 4200: Note that ILO is required for WDT's operation.
 151:.\Generated_Source\PSoC4/CyLib.c **** *  The ILO is required for the WDT operation.
 152:.\Generated_Source\PSoC4/CyLib.c **** *
 153:.\Generated_Source\PSoC4/CyLib.c **** *  PSoC 4100-BL / PSoC 4200-BL:
 154:.\Generated_Source\PSoC4/CyLib.c **** *  Stopping the ILO will affect the peripheral clocked by the LFCLK, if the
 155:.\Generated_Source\PSoC4/CyLib.c **** *  LFCLK is configured to be sourced by the ILO.
 156:.\Generated_Source\PSoC4/CyLib.c **** *
 157:.\Generated_Source\PSoC4/CyLib.c **** *******************************************************************************/
 158:.\Generated_Source\PSoC4/CyLib.c **** void CySysClkIloStop(void)
 159:.\Generated_Source\PSoC4/CyLib.c **** {
 234              		.loc 1 159 0
 235              		.cfi_startproc
 236 0000 90B5     		push	{r4, r7, lr}
ARM GAS  C:\DOCUME~1\Owner\LOCALS~1\Temp\cc3gLjSb.s 			page 8


 237              		.cfi_def_cfa_offset 12
 238              		.cfi_offset 4, -12
 239              		.cfi_offset 7, -8
 240              		.cfi_offset 14, -4
 241 0002 83B0     		sub	sp, sp, #12
 242              		.cfi_def_cfa_offset 24
 243 0004 00AF     		add	r7, sp, #0
 244              		.cfi_def_cfa_register 7
 160:.\Generated_Source\PSoC4/CyLib.c ****     #if(CY_IP_SRSSV2)
 161:.\Generated_Source\PSoC4/CyLib.c ****         uint8  interruptState;
 162:.\Generated_Source\PSoC4/CyLib.c **** 
 163:.\Generated_Source\PSoC4/CyLib.c ****         /* Do nothing if WDT is locked or ILO is disabled */
 164:.\Generated_Source\PSoC4/CyLib.c ****         if (0u == CySysWdtLocked())
 245              		.loc 1 164 0
 246 0006 FFF7FEFF 		bl	CySysWdtLocked
 247 000a 031C     		mov	r3, r0
 248 000c 002B     		cmp	r3, #0
 249 000e 18D1     		bne	.L10
 165:.\Generated_Source\PSoC4/CyLib.c ****         {
 166:.\Generated_Source\PSoC4/CyLib.c ****             if (0u != CySysClkIloEnabled())
 250              		.loc 1 166 0
 251 0010 FFF7FEFF 		bl	CySysClkIloEnabled
 252 0014 031C     		mov	r3, r0
 253 0016 002B     		cmp	r3, #0
 254 0018 13D0     		beq	.L10
 167:.\Generated_Source\PSoC4/CyLib.c ****             {
 168:.\Generated_Source\PSoC4/CyLib.c **** 
 169:.\Generated_Source\PSoC4/CyLib.c ****             #if (CY_IP_WCO)
 170:.\Generated_Source\PSoC4/CyLib.c ****                 if (CY_SYS_CLK_LFCLK_SRC_ILO == CySysClkGetLfclkSource())
 171:.\Generated_Source\PSoC4/CyLib.c ****                 {
 172:.\Generated_Source\PSoC4/CyLib.c ****             #endif /* (CY_IP_WCO) */
 173:.\Generated_Source\PSoC4/CyLib.c **** 
 174:.\Generated_Source\PSoC4/CyLib.c ****                 interruptState = CyEnterCriticalSection();
 255              		.loc 1 174 0
 256 001a FC1D     		add	r4, r7, #7
 257 001c FFF7FEFF 		bl	CyEnterCriticalSection
 258 0020 031C     		mov	r3, r0
 259 0022 2370     		strb	r3, [r4]
 175:.\Generated_Source\PSoC4/CyLib.c ****                 CySysClkLfclkPosedgeCatch();
 260              		.loc 1 175 0
 261 0024 FFF7FEFF 		bl	CySysClkLfclkPosedgeCatch
 176:.\Generated_Source\PSoC4/CyLib.c ****                 CY_SYS_CLK_ILO_CONFIG_REG &= ( uint32 ) ( ~( uint32 )CY_SYS_CLK_ILO_CONFIG_ENABLE);
 262              		.loc 1 176 0
 263 0028 074B     		ldr	r3, .L12
 264 002a 074A     		ldr	r2, .L12
 265 002c 1268     		ldr	r2, [r2]
 266 002e 5200     		lsl	r2, r2, #1
 267 0030 5208     		lsr	r2, r2, #1
 268 0032 1A60     		str	r2, [r3]
 177:.\Generated_Source\PSoC4/CyLib.c ****                 CySysClkLfclkPosedgeRestore();
 269              		.loc 1 177 0
 270 0034 FFF7FEFF 		bl	CySysClkLfclkPosedgeRestore
 178:.\Generated_Source\PSoC4/CyLib.c ****                 CyExitCriticalSection(interruptState);
 271              		.loc 1 178 0
 272 0038 FB1D     		add	r3, r7, #7
 273 003a 1B78     		ldrb	r3, [r3]
 274 003c 181C     		mov	r0, r3
ARM GAS  C:\DOCUME~1\Owner\LOCALS~1\Temp\cc3gLjSb.s 			page 9


 275 003e FFF7FEFF 		bl	CyExitCriticalSection
 276              	.L10:
 179:.\Generated_Source\PSoC4/CyLib.c **** 
 180:.\Generated_Source\PSoC4/CyLib.c ****             #if (CY_IP_WCO)
 181:.\Generated_Source\PSoC4/CyLib.c ****                 }
 182:.\Generated_Source\PSoC4/CyLib.c ****                 else /* Safe to disable - shortened pulse does not impact peripheral */
 183:.\Generated_Source\PSoC4/CyLib.c ****                 {
 184:.\Generated_Source\PSoC4/CyLib.c ****                     CY_SYS_CLK_ILO_CONFIG_REG &= ( uint32 ) ( ~( uint32 )CY_SYS_CLK_ILO_CONFIG_ENAB
 185:.\Generated_Source\PSoC4/CyLib.c ****                 }
 186:.\Generated_Source\PSoC4/CyLib.c ****             #endif /* (CY_IP_WCO) */
 187:.\Generated_Source\PSoC4/CyLib.c **** 
 188:.\Generated_Source\PSoC4/CyLib.c ****             }
 189:.\Generated_Source\PSoC4/CyLib.c ****         }
 190:.\Generated_Source\PSoC4/CyLib.c ****     #else
 191:.\Generated_Source\PSoC4/CyLib.c ****         CY_SYS_CLK_ILO_CONFIG_REG &= ( uint32 ) ( ~( uint32 )CY_SYS_CLK_ILO_CONFIG_ENABLE);
 192:.\Generated_Source\PSoC4/CyLib.c ****     #endif /* (CY_IP_SRSSV2) */
 193:.\Generated_Source\PSoC4/CyLib.c **** }
 277              		.loc 1 193 0
 278 0042 BD46     		mov	sp, r7
 279 0044 03B0     		add	sp, sp, #12
 280              		@ sp needed
 281 0046 90BD     		pop	{r4, r7, pc}
 282              	.L13:
 283              		.align	2
 284              	.L12:
 285 0048 04010B40 		.word	1074462980
 286              		.cfi_endproc
 287              	.LFE3:
 288              		.size	CySysClkIloStop, .-CySysClkIloStop
 289              		.section	.text.CySysClkIloEnabled,"ax",%progbits
 290              		.align	2
 291              		.code	16
 292              		.thumb_func
 293              		.type	CySysClkIloEnabled, %function
 294              	CySysClkIloEnabled:
 295              	.LFB4:
 194:.\Generated_Source\PSoC4/CyLib.c **** 
 195:.\Generated_Source\PSoC4/CyLib.c **** #if(CY_IP_SRSSV2)
 196:.\Generated_Source\PSoC4/CyLib.c ****     /*******************************************************************************
 197:.\Generated_Source\PSoC4/CyLib.c ****     * Function Name: CySysClkIloEnabled
 198:.\Generated_Source\PSoC4/CyLib.c ****     ********************************************************************************
 199:.\Generated_Source\PSoC4/CyLib.c ****     *
 200:.\Generated_Source\PSoC4/CyLib.c ****     * Summary:
 201:.\Generated_Source\PSoC4/CyLib.c ****     *  Reports ILO enable state.
 202:.\Generated_Source\PSoC4/CyLib.c ****     *
 203:.\Generated_Source\PSoC4/CyLib.c ****     * Parameters:
 204:.\Generated_Source\PSoC4/CyLib.c ****     *  None
 205:.\Generated_Source\PSoC4/CyLib.c ****     *
 206:.\Generated_Source\PSoC4/CyLib.c ****     * Return:
 207:.\Generated_Source\PSoC4/CyLib.c ****     *  1 if ILO is enabled, and 0 if ILO is disabled.
 208:.\Generated_Source\PSoC4/CyLib.c ****     *
 209:.\Generated_Source\PSoC4/CyLib.c ****     *******************************************************************************/
 210:.\Generated_Source\PSoC4/CyLib.c ****     static uint32 CySysClkIloEnabled(void)
 211:.\Generated_Source\PSoC4/CyLib.c ****     {
 296              		.loc 1 211 0
 297              		.cfi_startproc
 298 0000 80B5     		push	{r7, lr}
ARM GAS  C:\DOCUME~1\Owner\LOCALS~1\Temp\cc3gLjSb.s 			page 10


 299              		.cfi_def_cfa_offset 8
 300              		.cfi_offset 7, -8
 301              		.cfi_offset 14, -4
 302 0002 00AF     		add	r7, sp, #0
 303              		.cfi_def_cfa_register 7
 212:.\Generated_Source\PSoC4/CyLib.c ****         /* Prohibits writing to WDT registers and ILO/WCO registers when not equal 0 */
 213:.\Generated_Source\PSoC4/CyLib.c ****         return ((0u != (CY_SYS_CLK_ILO_CONFIG_REG & (uint32)(CY_SYS_CLK_ILO_CONFIG_ENABLE))) ?
 304              		.loc 1 213 0
 305 0004 044B     		ldr	r3, .L18
 306 0006 1B68     		ldr	r3, [r3]
 214:.\Generated_Source\PSoC4/CyLib.c ****             (uint32) 1u :
 307              		.loc 1 214 0
 308 0008 002B     		cmp	r3, #0
 309 000a 01DA     		bge	.L15
 310              		.loc 1 214 0 is_stmt 0 discriminator 1
 311 000c 0123     		mov	r3, #1
 312 000e 00E0     		b	.L16
 313              	.L15:
 314              		.loc 1 214 0 discriminator 2
 315 0010 0023     		mov	r3, #0
 316              	.L16:
 215:.\Generated_Source\PSoC4/CyLib.c ****             (uint32) 0u);
 216:.\Generated_Source\PSoC4/CyLib.c ****     }
 317              		.loc 1 216 0 is_stmt 1
 318 0012 181C     		mov	r0, r3
 319 0014 BD46     		mov	sp, r7
 320              		@ sp needed
 321 0016 80BD     		pop	{r7, pc}
 322              	.L19:
 323              		.align	2
 324              	.L18:
 325 0018 04010B40 		.word	1074462980
 326              		.cfi_endproc
 327              	.LFE4:
 328              		.size	CySysClkIloEnabled, .-CySysClkIloEnabled
 329              		.section	.text.CySysClkWriteHfclkDirect,"ax",%progbits
 330              		.align	2
 331              		.global	CySysClkWriteHfclkDirect
 332              		.code	16
 333              		.thumb_func
 334              		.type	CySysClkWriteHfclkDirect, %function
 335              	CySysClkWriteHfclkDirect:
 336              	.LFB5:
 217:.\Generated_Source\PSoC4/CyLib.c **** #endif /* (CY_IP_SRSSV2) */
 218:.\Generated_Source\PSoC4/CyLib.c **** 
 219:.\Generated_Source\PSoC4/CyLib.c **** 
 220:.\Generated_Source\PSoC4/CyLib.c **** /*******************************************************************************
 221:.\Generated_Source\PSoC4/CyLib.c **** * Function Name: CySysClkGetLfclkSource
 222:.\Generated_Source\PSoC4/CyLib.c **** ********************************************************************************
 223:.\Generated_Source\PSoC4/CyLib.c **** *
 224:.\Generated_Source\PSoC4/CyLib.c **** * Summary:
 225:.\Generated_Source\PSoC4/CyLib.c **** *  Gets the clock source for the LFCLK clock.
 226:.\Generated_Source\PSoC4/CyLib.c **** *  The function is applicable only for the PSoC 4100-BL and PSoC 4200-BL.
 227:.\Generated_Source\PSoC4/CyLib.c **** *
 228:.\Generated_Source\PSoC4/CyLib.c **** * Parameters:
 229:.\Generated_Source\PSoC4/CyLib.c **** *  None
 230:.\Generated_Source\PSoC4/CyLib.c **** *
ARM GAS  C:\DOCUME~1\Owner\LOCALS~1\Temp\cc3gLjSb.s 			page 11


 231:.\Generated_Source\PSoC4/CyLib.c **** * Return:
 232:.\Generated_Source\PSoC4/CyLib.c **** *  The LFCLK source:
 233:.\Generated_Source\PSoC4/CyLib.c **** *   CY_SYS_CLK_LFCLK_SRC_ILO    Internal Low Frequency (32 kHz) Oscillator (ILO)
 234:.\Generated_Source\PSoC4/CyLib.c **** *   CY_SYS_CLK_LFCLK_SRC_WCO    Low Frequency Watch Crystal Oscillator (WCO)
 235:.\Generated_Source\PSoC4/CyLib.c **** *
 236:.\Generated_Source\PSoC4/CyLib.c **** *******************************************************************************/
 237:.\Generated_Source\PSoC4/CyLib.c **** #if (CY_IP_WCO)
 238:.\Generated_Source\PSoC4/CyLib.c ****     static uint32 CySysClkGetLfclkSource(void)
 239:.\Generated_Source\PSoC4/CyLib.c ****     {
 240:.\Generated_Source\PSoC4/CyLib.c ****         uint32 lfclkSource;
 241:.\Generated_Source\PSoC4/CyLib.c ****         lfclkSource = CY_SYS_WDT_CONFIG_REG & CY_SYS_CLK_LFCLK_SEL_MASK;
 242:.\Generated_Source\PSoC4/CyLib.c ****         return (lfclkSource);
 243:.\Generated_Source\PSoC4/CyLib.c ****     }
 244:.\Generated_Source\PSoC4/CyLib.c **** #endif /* (CY_IP_WCO) */
 245:.\Generated_Source\PSoC4/CyLib.c **** 
 246:.\Generated_Source\PSoC4/CyLib.c **** 
 247:.\Generated_Source\PSoC4/CyLib.c **** /*******************************************************************************
 248:.\Generated_Source\PSoC4/CyLib.c **** * Function Name: CySysClkSetLfclkSource
 249:.\Generated_Source\PSoC4/CyLib.c **** ********************************************************************************
 250:.\Generated_Source\PSoC4/CyLib.c **** *
 251:.\Generated_Source\PSoC4/CyLib.c **** * Summary:
 252:.\Generated_Source\PSoC4/CyLib.c **** *  Sets the clock source for the LFCLK clock.
 253:.\Generated_Source\PSoC4/CyLib.c **** *
 254:.\Generated_Source\PSoC4/CyLib.c **** *  The switch between LFCLK sources must be done between positive edges of
 255:.\Generated_Source\PSoC4/CyLib.c **** *  the LFCLK, because the glitch risk is around LFCLK positive edge. To ensure
 256:.\Generated_Source\PSoC4/CyLib.c **** *  that the switch can be done safely, the WDT counter value is read until it
 257:.\Generated_Source\PSoC4/CyLib.c **** *  changes.
 258:.\Generated_Source\PSoC4/CyLib.c **** *
 259:.\Generated_Source\PSoC4/CyLib.c **** *  That means that the positive edge just finished and the switch is performed.
 260:.\Generated_Source\PSoC4/CyLib.c **** *  The enabled WDT counter is used for that purpose. If no counters are enabled,
 261:.\Generated_Source\PSoC4/CyLib.c **** *  the counter 0 is enabled. And after LFCLK source is switched, the counter 0
 262:.\Generated_Source\PSoC4/CyLib.c **** *  configuration is restored back.
 263:.\Generated_Source\PSoC4/CyLib.c **** *
 264:.\Generated_Source\PSoC4/CyLib.c **** *  The function is applicable only for the PSoC 4100-BL and PSoC 4200-BL.
 265:.\Generated_Source\PSoC4/CyLib.c **** *
 266:.\Generated_Source\PSoC4/CyLib.c **** * Parameters:
 267:.\Generated_Source\PSoC4/CyLib.c **** *  source: One of the available LFCLK sources.
 268:.\Generated_Source\PSoC4/CyLib.c **** *   CY_SYS_CLK_LFCLK_SRC_ILO    Internal Low Frequency (32 kHz) Oscillator (ILO)
 269:.\Generated_Source\PSoC4/CyLib.c **** *   CY_SYS_CLK_LFCLK_SRC_WCO    Low Frequency Watch Crystal Oscillator (WCO)
 270:.\Generated_Source\PSoC4/CyLib.c **** *
 271:.\Generated_Source\PSoC4/CyLib.c **** * Return:
 272:.\Generated_Source\PSoC4/CyLib.c **** *  None
 273:.\Generated_Source\PSoC4/CyLib.c **** *
 274:.\Generated_Source\PSoC4/CyLib.c **** * Side Effects:
 275:.\Generated_Source\PSoC4/CyLib.c **** *  This function will have no effect if the WDT is locked (CySysWdtLock() is
 276:.\Generated_Source\PSoC4/CyLib.c **** *  called). Call CySysWdtUnlock() to unlock the WDT.
 277:.\Generated_Source\PSoC4/CyLib.c **** *
 278:.\Generated_Source\PSoC4/CyLib.c **** *  The current source and the new source must both be running and stable before
 279:.\Generated_Source\PSoC4/CyLib.c **** *  calling this function.
 280:.\Generated_Source\PSoC4/CyLib.c **** *
 281:.\Generated_Source\PSoC4/CyLib.c **** *  Changing the LFCLK clock source may change the LFCLK clock frequency and
 282:.\Generated_Source\PSoC4/CyLib.c **** *  affect the functionality that uses this clock. For example, watchdog timer
 283:.\Generated_Source\PSoC4/CyLib.c **** *  (WDT) is clocked by LFCLK.
 284:.\Generated_Source\PSoC4/CyLib.c **** *
 285:.\Generated_Source\PSoC4/CyLib.c **** *******************************************************************************/
 286:.\Generated_Source\PSoC4/CyLib.c **** #if (CY_IP_WCO)
 287:.\Generated_Source\PSoC4/CyLib.c ****     void CySysClkSetLfclkSource(uint32 source)
ARM GAS  C:\DOCUME~1\Owner\LOCALS~1\Temp\cc3gLjSb.s 			page 12


 288:.\Generated_Source\PSoC4/CyLib.c ****     {
 289:.\Generated_Source\PSoC4/CyLib.c ****         uint8  interruptState;
 290:.\Generated_Source\PSoC4/CyLib.c **** 
 291:.\Generated_Source\PSoC4/CyLib.c ****         if (CySysClkGetLfclkSource() != source)
 292:.\Generated_Source\PSoC4/CyLib.c ****         {
 293:.\Generated_Source\PSoC4/CyLib.c ****             interruptState = CyEnterCriticalSection();
 294:.\Generated_Source\PSoC4/CyLib.c **** 
 295:.\Generated_Source\PSoC4/CyLib.c ****             CySysClkLfclkPosedgeCatch();
 296:.\Generated_Source\PSoC4/CyLib.c **** 
 297:.\Generated_Source\PSoC4/CyLib.c ****             CY_SYS_WDT_CONFIG_REG = (CY_SYS_WDT_CONFIG_REG & (uint32)(~CY_SYS_CLK_LFCLK_SEL_MASK)) 
 298:.\Generated_Source\PSoC4/CyLib.c ****                                     (source & CY_SYS_CLK_LFCLK_SEL_MASK);
 299:.\Generated_Source\PSoC4/CyLib.c **** 
 300:.\Generated_Source\PSoC4/CyLib.c ****             CySysClkLfclkPosedgeRestore();
 301:.\Generated_Source\PSoC4/CyLib.c **** 
 302:.\Generated_Source\PSoC4/CyLib.c ****             CyExitCriticalSection(interruptState);
 303:.\Generated_Source\PSoC4/CyLib.c ****         }
 304:.\Generated_Source\PSoC4/CyLib.c ****     }
 305:.\Generated_Source\PSoC4/CyLib.c **** #endif /* (CY_IP_WCO) */
 306:.\Generated_Source\PSoC4/CyLib.c **** 
 307:.\Generated_Source\PSoC4/CyLib.c **** 
 308:.\Generated_Source\PSoC4/CyLib.c **** /*******************************************************************************
 309:.\Generated_Source\PSoC4/CyLib.c **** * Function Name: CySysClkWriteHfclkDirect
 310:.\Generated_Source\PSoC4/CyLib.c **** ********************************************************************************
 311:.\Generated_Source\PSoC4/CyLib.c **** *
 312:.\Generated_Source\PSoC4/CyLib.c **** * Summary:
 313:.\Generated_Source\PSoC4/CyLib.c **** *  Selects the direct source for the HFCLK.
 314:.\Generated_Source\PSoC4/CyLib.c **** *
 315:.\Generated_Source\PSoC4/CyLib.c **** * Parameters:
 316:.\Generated_Source\PSoC4/CyLib.c **** *  clkSelect: One of the available HFCLK direct sources:
 317:.\Generated_Source\PSoC4/CyLib.c **** *   Define                    Source
 318:.\Generated_Source\PSoC4/CyLib.c **** *    CY_SYS_CLK_HFCLK_IMO      IMO
 319:.\Generated_Source\PSoC4/CyLib.c **** *    CY_SYS_CLK_HFCLK_EXTCLK   External clock pin
 320:.\Generated_Source\PSoC4/CyLib.c **** *    CY_SYS_CLK_HFCLK_ECO      External crystal oscillator
 321:.\Generated_Source\PSoC4/CyLib.c **** *                                           (applicable only for PSoC 4200-BL)
 322:.\Generated_Source\PSoC4/CyLib.c **** *
 323:.\Generated_Source\PSoC4/CyLib.c **** * Return:
 324:.\Generated_Source\PSoC4/CyLib.c **** *  None
 325:.\Generated_Source\PSoC4/CyLib.c **** *
 326:.\Generated_Source\PSoC4/CyLib.c **** * Side Effects:
 327:.\Generated_Source\PSoC4/CyLib.c **** *  The new source must be running and stable before calling this function.
 328:.\Generated_Source\PSoC4/CyLib.c **** *
 329:.\Generated_Source\PSoC4/CyLib.c **** *  PSoC 4000:
 330:.\Generated_Source\PSoC4/CyLib.c **** *  The SYSCLK has a maximum speed of 16 MHz, so HFCLK and SYSCLK dividers should
 331:.\Generated_Source\PSoC4/CyLib.c **** *  be selected in a way to not to exceed 16 MHz for the System clock.
 332:.\Generated_Source\PSoC4/CyLib.c **** *
 333:.\Generated_Source\PSoC4/CyLib.c **** *  If the SYSCLK clock frequency increases during device operation, call
 334:.\Generated_Source\PSoC4/CyLib.c **** *  CySysFlashSetWaitCycles() with the appropriate parameter to adjust the number
 335:.\Generated_Source\PSoC4/CyLib.c **** *  of clock cycles the cache will wait before sampling data comes back from Flash.
 336:.\Generated_Source\PSoC4/CyLib.c **** *  If the SYSCLK clock frequency decreases, you can call
 337:.\Generated_Source\PSoC4/CyLib.c **** *  CySysFlashSetWaitCycles() to improve the CPU performance. See
 338:.\Generated_Source\PSoC4/CyLib.c **** *  CySysFlashSetWaitCycles() description for more information.
 339:.\Generated_Source\PSoC4/CyLib.c **** *
 340:.\Generated_Source\PSoC4/CyLib.c **** *******************************************************************************/
 341:.\Generated_Source\PSoC4/CyLib.c **** void CySysClkWriteHfclkDirect(uint32 clkSelect)
 342:.\Generated_Source\PSoC4/CyLib.c **** {
 337              		.loc 1 342 0
 338              		.cfi_startproc
ARM GAS  C:\DOCUME~1\Owner\LOCALS~1\Temp\cc3gLjSb.s 			page 13


 339 0000 90B5     		push	{r4, r7, lr}
 340              		.cfi_def_cfa_offset 12
 341              		.cfi_offset 4, -12
 342              		.cfi_offset 7, -8
 343              		.cfi_offset 14, -4
 344 0002 85B0     		sub	sp, sp, #20
 345              		.cfi_def_cfa_offset 32
 346 0004 00AF     		add	r7, sp, #0
 347              		.cfi_def_cfa_register 7
 348 0006 7860     		str	r0, [r7, #4]
 343:.\Generated_Source\PSoC4/CyLib.c ****     uint8  interruptState;
 344:.\Generated_Source\PSoC4/CyLib.c **** 
 345:.\Generated_Source\PSoC4/CyLib.c ****     interruptState = CyEnterCriticalSection();
 349              		.loc 1 345 0
 350 0008 3C1C     		mov	r4, r7
 351 000a 0F34     		add	r4, r4, #15
 352 000c FFF7FEFF 		bl	CyEnterCriticalSection
 353 0010 031C     		mov	r3, r0
 354 0012 2370     		strb	r3, [r4]
 346:.\Generated_Source\PSoC4/CyLib.c **** 
 347:.\Generated_Source\PSoC4/CyLib.c ****     CY_SYS_CLK_SELECT_REG = ((CY_SYS_CLK_SELECT_REG & (( uint32 ) ~(( uint32 )CY_SYS_CLK_SELECT_DIR
 355              		.loc 1 347 0
 356 0014 0A4B     		ldr	r3, .L21
 357 0016 0A4A     		ldr	r2, .L21
 358 0018 1268     		ldr	r2, [r2]
 359 001a 0721     		mov	r1, #7
 360 001c 101C     		mov	r0, r2
 361 001e 8843     		bic	r0, r1
 362 0020 011C     		mov	r1, r0
 348:.\Generated_Source\PSoC4/CyLib.c ****                         (( uint32 ) (clkSelect & ( uint32 )CY_SYS_CLK_SELECT_DIRECT_SEL_PARAM_MASK)
 363              		.loc 1 348 0
 364 0022 7868     		ldr	r0, [r7, #4]
 365 0024 0122     		mov	r2, #1
 366 0026 0240     		and	r2, r0
 347:.\Generated_Source\PSoC4/CyLib.c ****     CY_SYS_CLK_SELECT_REG = ((CY_SYS_CLK_SELECT_REG & (( uint32 ) ~(( uint32 )CY_SYS_CLK_SELECT_DIR
 367              		.loc 1 347 0
 368 0028 0A43     		orr	r2, r1
 369 002a 1A60     		str	r2, [r3]
 349:.\Generated_Source\PSoC4/CyLib.c **** 
 350:.\Generated_Source\PSoC4/CyLib.c ****     CyExitCriticalSection(interruptState);
 370              		.loc 1 350 0
 371 002c 3B1C     		mov	r3, r7
 372 002e 0F33     		add	r3, r3, #15
 373 0030 1B78     		ldrb	r3, [r3]
 374 0032 181C     		mov	r0, r3
 375 0034 FFF7FEFF 		bl	CyExitCriticalSection
 351:.\Generated_Source\PSoC4/CyLib.c **** }
 376              		.loc 1 351 0
 377 0038 BD46     		mov	sp, r7
 378 003a 05B0     		add	sp, sp, #20
 379              		@ sp needed
 380 003c 90BD     		pop	{r4, r7, pc}
 381              	.L22:
 382 003e C046     		.align	2
 383              	.L21:
 384 0040 00010B40 		.word	1074462976
 385              		.cfi_endproc
ARM GAS  C:\DOCUME~1\Owner\LOCALS~1\Temp\cc3gLjSb.s 			page 14


 386              	.LFE5:
 387              		.size	CySysClkWriteHfclkDirect, .-CySysClkWriteHfclkDirect
 388              		.section	.text.CySysClkWriteSysclkDiv,"ax",%progbits
 389              		.align	2
 390              		.global	CySysClkWriteSysclkDiv
 391              		.code	16
 392              		.thumb_func
 393              		.type	CySysClkWriteSysclkDiv, %function
 394              	CySysClkWriteSysclkDiv:
 395              	.LFB6:
 352:.\Generated_Source\PSoC4/CyLib.c **** 
 353:.\Generated_Source\PSoC4/CyLib.c **** 
 354:.\Generated_Source\PSoC4/CyLib.c **** /*******************************************************************************
 355:.\Generated_Source\PSoC4/CyLib.c **** * Function Name: CySysClkWriteSysclkDiv
 356:.\Generated_Source\PSoC4/CyLib.c **** ********************************************************************************
 357:.\Generated_Source\PSoC4/CyLib.c **** *
 358:.\Generated_Source\PSoC4/CyLib.c **** * Summary:
 359:.\Generated_Source\PSoC4/CyLib.c **** *  Selects the prescaler divide amount for SYSCLK from HFCLK.
 360:.\Generated_Source\PSoC4/CyLib.c **** *
 361:.\Generated_Source\PSoC4/CyLib.c **** * Parameters:
 362:.\Generated_Source\PSoC4/CyLib.c **** *  divider: Power of 2 prescaler selection
 363:.\Generated_Source\PSoC4/CyLib.c **** *
 364:.\Generated_Source\PSoC4/CyLib.c **** *   Define                        Description
 365:.\Generated_Source\PSoC4/CyLib.c **** *   CY_SYS_CLK_SYSCLK_DIV1        SYSCLK = HFCLK / 1
 366:.\Generated_Source\PSoC4/CyLib.c **** *   CY_SYS_CLK_SYSCLK_DIV2        SYSCLK = HFCLK / 2
 367:.\Generated_Source\PSoC4/CyLib.c **** *   CY_SYS_CLK_SYSCLK_DIV4        SYSCLK = HFCLK / 4
 368:.\Generated_Source\PSoC4/CyLib.c **** *   CY_SYS_CLK_SYSCLK_DIV8        SYSCLK = HFCLK / 8
 369:.\Generated_Source\PSoC4/CyLib.c **** *   CY_SYS_CLK_SYSCLK_DIV16       SYSCLK = HFCLK / 16  (N/A for 4000 Family)
 370:.\Generated_Source\PSoC4/CyLib.c **** *   CY_SYS_CLK_SYSCLK_DIV32       SYSCLK = HFCLK / 32  (N/A for 4000 Family)
 371:.\Generated_Source\PSoC4/CyLib.c **** *   CY_SYS_CLK_SYSCLK_DIV64       SYSCLK = HFCLK / 64  (N/A for 4000 Family)
 372:.\Generated_Source\PSoC4/CyLib.c **** *   CY_SYS_CLK_SYSCLK_DIV128      SYSCLK = HFCLK / 128 (N/A for 4000 Family)
 373:.\Generated_Source\PSoC4/CyLib.c **** *
 374:.\Generated_Source\PSoC4/CyLib.c **** * Return:
 375:.\Generated_Source\PSoC4/CyLib.c **** *  None
 376:.\Generated_Source\PSoC4/CyLib.c **** *
 377:.\Generated_Source\PSoC4/CyLib.c **** * Side Effects:
 378:.\Generated_Source\PSoC4/CyLib.c **** *  4000 Family:
 379:.\Generated_Source\PSoC4/CyLib.c **** *  The SYS_CLK has the speed of 16 MHz, so dividers HF_CLK and SYS_CLK
 380:.\Generated_Source\PSoC4/CyLib.c **** *  dividers should be selected in a way, not to exceed 16 MHz for SYS_CLK.
 381:.\Generated_Source\PSoC4/CyLib.c **** *
 382:.\Generated_Source\PSoC4/CyLib.c **** *  If the SYSCLK clock frequency increases during the device operation, call
 383:.\Generated_Source\PSoC4/CyLib.c **** *  CySysFlashSetWaitCycles() with the appropriate parameter to adjust the number
 384:.\Generated_Source\PSoC4/CyLib.c **** *  of clock cycles the cache will wait before sampling data comes back from Flash.
 385:.\Generated_Source\PSoC4/CyLib.c **** *  If the SYSCLK clock frequency decreases, you can call
 386:.\Generated_Source\PSoC4/CyLib.c **** *  CySysFlashSetWaitCycles() to improve the CPU performance. See
 387:.\Generated_Source\PSoC4/CyLib.c **** *  CySysFlashSetWaitCycles() description for more information.
 388:.\Generated_Source\PSoC4/CyLib.c **** *
 389:.\Generated_Source\PSoC4/CyLib.c **** *******************************************************************************/
 390:.\Generated_Source\PSoC4/CyLib.c **** void CySysClkWriteSysclkDiv(uint32 divider)
 391:.\Generated_Source\PSoC4/CyLib.c **** {
 396              		.loc 1 391 0
 397              		.cfi_startproc
 398 0000 90B5     		push	{r4, r7, lr}
 399              		.cfi_def_cfa_offset 12
 400              		.cfi_offset 4, -12
 401              		.cfi_offset 7, -8
 402              		.cfi_offset 14, -4
ARM GAS  C:\DOCUME~1\Owner\LOCALS~1\Temp\cc3gLjSb.s 			page 15


 403 0002 85B0     		sub	sp, sp, #20
 404              		.cfi_def_cfa_offset 32
 405 0004 00AF     		add	r7, sp, #0
 406              		.cfi_def_cfa_register 7
 407 0006 7860     		str	r0, [r7, #4]
 392:.\Generated_Source\PSoC4/CyLib.c ****     uint8  interruptState;
 393:.\Generated_Source\PSoC4/CyLib.c **** 
 394:.\Generated_Source\PSoC4/CyLib.c ****     interruptState = CyEnterCriticalSection();
 408              		.loc 1 394 0
 409 0008 3C1C     		mov	r4, r7
 410 000a 0F34     		add	r4, r4, #15
 411 000c FFF7FEFF 		bl	CyEnterCriticalSection
 412 0010 031C     		mov	r3, r0
 413 0012 2370     		strb	r3, [r4]
 395:.\Generated_Source\PSoC4/CyLib.c **** 
 396:.\Generated_Source\PSoC4/CyLib.c ****     CY_SYS_CLK_SELECT_REG = ((uint32)(((uint32)divider & CY_SYS_CLK_SELECT_SYSCLK_DIV_MASK) <<
 414              		.loc 1 396 0
 415 0014 094B     		ldr	r3, .L24
 416 0016 7968     		ldr	r1, [r7, #4]
 417 0018 0722     		mov	r2, #7
 418 001a 0A40     		and	r2, r1
 419 001c D104     		lsl	r1, r2, #19
 397:.\Generated_Source\PSoC4/CyLib.c ****                                     CY_SYS_CLK_SELECT_SYSCLK_DIV_SHIFT)) |
 398:.\Generated_Source\PSoC4/CyLib.c ****                             (CY_SYS_CLK_SELECT_REG & ((uint32)(~(uint32)(CY_SYS_CLK_SELECT_SYSCLK_D
 420              		.loc 1 398 0
 421 001e 074A     		ldr	r2, .L24
 422 0020 1068     		ldr	r0, [r2]
 423 0022 074A     		ldr	r2, .L24+4
 424 0024 0240     		and	r2, r0
 397:.\Generated_Source\PSoC4/CyLib.c ****                                     CY_SYS_CLK_SELECT_SYSCLK_DIV_SHIFT)) |
 425              		.loc 1 397 0
 426 0026 0A43     		orr	r2, r1
 396:.\Generated_Source\PSoC4/CyLib.c ****     CY_SYS_CLK_SELECT_REG = ((uint32)(((uint32)divider & CY_SYS_CLK_SELECT_SYSCLK_DIV_MASK) <<
 427              		.loc 1 396 0
 428 0028 1A60     		str	r2, [r3]
 399:.\Generated_Source\PSoC4/CyLib.c ****                                     CY_SYS_CLK_SELECT_SYSCLK_DIV_SHIFT))));
 400:.\Generated_Source\PSoC4/CyLib.c **** 
 401:.\Generated_Source\PSoC4/CyLib.c ****     CyExitCriticalSection(interruptState);
 429              		.loc 1 401 0
 430 002a 3B1C     		mov	r3, r7
 431 002c 0F33     		add	r3, r3, #15
 432 002e 1B78     		ldrb	r3, [r3]
 433 0030 181C     		mov	r0, r3
 434 0032 FFF7FEFF 		bl	CyExitCriticalSection
 402:.\Generated_Source\PSoC4/CyLib.c **** }
 435              		.loc 1 402 0
 436 0036 BD46     		mov	sp, r7
 437 0038 05B0     		add	sp, sp, #20
 438              		@ sp needed
 439 003a 90BD     		pop	{r4, r7, pc}
 440              	.L25:
 441              		.align	2
 442              	.L24:
 443 003c 00010B40 		.word	1074462976
 444 0040 FFFFC7FF 		.word	-3670017
 445              		.cfi_endproc
 446              	.LFE6:
ARM GAS  C:\DOCUME~1\Owner\LOCALS~1\Temp\cc3gLjSb.s 			page 16


 447              		.size	CySysClkWriteSysclkDiv, .-CySysClkWriteSysclkDiv
 448              		.section	.text.CySysClkWriteImoFreq,"ax",%progbits
 449              		.align	2
 450              		.global	CySysClkWriteImoFreq
 451              		.code	16
 452              		.thumb_func
 453              		.type	CySysClkWriteImoFreq, %function
 454              	CySysClkWriteImoFreq:
 455              	.LFB7:
 403:.\Generated_Source\PSoC4/CyLib.c **** 
 404:.\Generated_Source\PSoC4/CyLib.c **** 
 405:.\Generated_Source\PSoC4/CyLib.c **** #if(CY_IP_SRSSV2)
 406:.\Generated_Source\PSoC4/CyLib.c **** 
 407:.\Generated_Source\PSoC4/CyLib.c ****     /*******************************************************************************
 408:.\Generated_Source\PSoC4/CyLib.c ****     * Function Name: CySysClkWriteImoFreq
 409:.\Generated_Source\PSoC4/CyLib.c ****     ********************************************************************************
 410:.\Generated_Source\PSoC4/CyLib.c ****     *
 411:.\Generated_Source\PSoC4/CyLib.c ****     * Summary:
 412:.\Generated_Source\PSoC4/CyLib.c ****     *  Sets the frequency of the IMO.
 413:.\Generated_Source\PSoC4/CyLib.c ****     *
 414:.\Generated_Source\PSoC4/CyLib.c ****     * Parameters:
 415:.\Generated_Source\PSoC4/CyLib.c ****     *  freq: Valid range [3-48].  Frequency for operation of the IMO.
 416:.\Generated_Source\PSoC4/CyLib.c ****     *  Note: Invalid frequency will be ignored.
 417:.\Generated_Source\PSoC4/CyLib.c ****     *
 418:.\Generated_Source\PSoC4/CyLib.c ****     * Return:
 419:.\Generated_Source\PSoC4/CyLib.c ****     *  None
 420:.\Generated_Source\PSoC4/CyLib.c ****     *
 421:.\Generated_Source\PSoC4/CyLib.c ****     * Side Effects:
 422:.\Generated_Source\PSoC4/CyLib.c ****     *  If the SYSCLK clock frequency increases during the device operation, call
 423:.\Generated_Source\PSoC4/CyLib.c ****     *  CySysFlashSetWaitCycles() with the appropriate parameter to adjust the number
 424:.\Generated_Source\PSoC4/CyLib.c ****     *  of clock cycles the cache will wait before sampling data comes back from Flash.
 425:.\Generated_Source\PSoC4/CyLib.c ****     *  If the SYSCLK clock frequency decreases, you can call
 426:.\Generated_Source\PSoC4/CyLib.c ****     *  CySysFlashSetWaitCycles() to improve the CPU performance.
 427:.\Generated_Source\PSoC4/CyLib.c ****     *  See CySysFlashSetWaitCycles() description for more information.
 428:.\Generated_Source\PSoC4/CyLib.c ****     *
 429:.\Generated_Source\PSoC4/CyLib.c ****     *******************************************************************************/
 430:.\Generated_Source\PSoC4/CyLib.c ****     void CySysClkWriteImoFreq(uint32 freq)
 431:.\Generated_Source\PSoC4/CyLib.c ****     {
 456              		.loc 1 431 0
 457              		.cfi_startproc
 458 0000 90B5     		push	{r4, r7, lr}
 459              		.cfi_def_cfa_offset 12
 460              		.cfi_offset 4, -12
 461              		.cfi_offset 7, -8
 462              		.cfi_offset 14, -4
 463 0002 85B0     		sub	sp, sp, #20
 464              		.cfi_def_cfa_offset 32
 465 0004 00AF     		add	r7, sp, #0
 466              		.cfi_def_cfa_register 7
 467 0006 7860     		str	r0, [r7, #4]
 432:.\Generated_Source\PSoC4/CyLib.c ****         uint8  bgTrim4;
 433:.\Generated_Source\PSoC4/CyLib.c ****         uint8  bgTrim5;
 434:.\Generated_Source\PSoC4/CyLib.c ****         uint8  interruptState;
 435:.\Generated_Source\PSoC4/CyLib.c ****         uint8  newImoTrim2Value;
 436:.\Generated_Source\PSoC4/CyLib.c ****         uint8  currentImoTrim2Value;
 437:.\Generated_Source\PSoC4/CyLib.c **** 
 438:.\Generated_Source\PSoC4/CyLib.c **** 
ARM GAS  C:\DOCUME~1\Owner\LOCALS~1\Temp\cc3gLjSb.s 			page 17


 439:.\Generated_Source\PSoC4/CyLib.c ****         if ((freq >= CY_SYS_CLK_IMO_MIN_FREQ_MHZ) && (freq <= CY_SYS_CLK_IMO_MAX_FREQ_MHZ))
 468              		.loc 1 439 0
 469 0008 7B68     		ldr	r3, [r7, #4]
 470 000a 022B     		cmp	r3, #2
 471 000c 00D8     		bhi	.LCB305
 472 000e BAE0     		b	.L27	@long jump
 473              	.LCB305:
 474              		.loc 1 439 0 is_stmt 0 discriminator 1
 475 0010 7B68     		ldr	r3, [r7, #4]
 476 0012 302B     		cmp	r3, #48
 477 0014 00D9     		bls	.LCB308
 478 0016 B6E0     		b	.L27	@long jump
 479              	.LCB308:
 440:.\Generated_Source\PSoC4/CyLib.c ****         {
 441:.\Generated_Source\PSoC4/CyLib.c ****             if(freq <= CY_SFLASH_IMO_MAXF0_REG)
 480              		.loc 1 441 0 is_stmt 1
 481 0018 5E4B     		ldr	r3, .L38
 482 001a 1B78     		ldrb	r3, [r3]
 483 001c DBB2     		uxtb	r3, r3
 484 001e 1A1C     		mov	r2, r3
 485 0020 7B68     		ldr	r3, [r7, #4]
 486 0022 9A42     		cmp	r2, r3
 487 0024 0AD3     		bcc	.L28
 442:.\Generated_Source\PSoC4/CyLib.c ****             {
 443:.\Generated_Source\PSoC4/CyLib.c ****                 bgTrim4 = CY_SFLASH_IMO_ABS0_REG;
 488              		.loc 1 443 0
 489 0026 5C4A     		ldr	r2, .L38+4
 490 0028 3B1C     		mov	r3, r7
 491 002a 0F33     		add	r3, r3, #15
 492 002c 1278     		ldrb	r2, [r2]
 493 002e 1A70     		strb	r2, [r3]
 444:.\Generated_Source\PSoC4/CyLib.c ****                 bgTrim5 = CY_SFLASH_IMO_TMPCO0_REG;
 494              		.loc 1 444 0
 495 0030 5A4A     		ldr	r2, .L38+8
 496 0032 3B1C     		mov	r3, r7
 497 0034 0E33     		add	r3, r3, #14
 498 0036 1278     		ldrb	r2, [r2]
 499 0038 1A70     		strb	r2, [r3]
 500 003a 3FE0     		b	.L29
 501              	.L28:
 445:.\Generated_Source\PSoC4/CyLib.c ****             }
 446:.\Generated_Source\PSoC4/CyLib.c ****             else if(freq <= CY_SFLASH_IMO_MAXF1_REG)
 502              		.loc 1 446 0
 503 003c 584B     		ldr	r3, .L38+12
 504 003e 1B78     		ldrb	r3, [r3]
 505 0040 DBB2     		uxtb	r3, r3
 506 0042 1A1C     		mov	r2, r3
 507 0044 7B68     		ldr	r3, [r7, #4]
 508 0046 9A42     		cmp	r2, r3
 509 0048 0AD3     		bcc	.L30
 447:.\Generated_Source\PSoC4/CyLib.c ****             {
 448:.\Generated_Source\PSoC4/CyLib.c ****                 bgTrim4 = CY_SFLASH_IMO_ABS1_REG;
 510              		.loc 1 448 0
 511 004a 564A     		ldr	r2, .L38+16
 512 004c 3B1C     		mov	r3, r7
 513 004e 0F33     		add	r3, r3, #15
 514 0050 1278     		ldrb	r2, [r2]
ARM GAS  C:\DOCUME~1\Owner\LOCALS~1\Temp\cc3gLjSb.s 			page 18


 515 0052 1A70     		strb	r2, [r3]
 449:.\Generated_Source\PSoC4/CyLib.c ****                 bgTrim5 = CY_SFLASH_IMO_TMPCO1_REG;
 516              		.loc 1 449 0
 517 0054 544A     		ldr	r2, .L38+20
 518 0056 3B1C     		mov	r3, r7
 519 0058 0E33     		add	r3, r3, #14
 520 005a 1278     		ldrb	r2, [r2]
 521 005c 1A70     		strb	r2, [r3]
 522 005e 2DE0     		b	.L29
 523              	.L30:
 450:.\Generated_Source\PSoC4/CyLib.c ****             }
 451:.\Generated_Source\PSoC4/CyLib.c ****             else if(freq <= CY_SFLASH_IMO_MAXF2_REG)
 524              		.loc 1 451 0
 525 0060 524B     		ldr	r3, .L38+24
 526 0062 1B78     		ldrb	r3, [r3]
 527 0064 DBB2     		uxtb	r3, r3
 528 0066 1A1C     		mov	r2, r3
 529 0068 7B68     		ldr	r3, [r7, #4]
 530 006a 9A42     		cmp	r2, r3
 531 006c 0AD3     		bcc	.L31
 452:.\Generated_Source\PSoC4/CyLib.c ****             {
 453:.\Generated_Source\PSoC4/CyLib.c ****                 bgTrim4 = CY_SFLASH_IMO_ABS2_REG;
 532              		.loc 1 453 0
 533 006e 504A     		ldr	r2, .L38+28
 534 0070 3B1C     		mov	r3, r7
 535 0072 0F33     		add	r3, r3, #15
 536 0074 1278     		ldrb	r2, [r2]
 537 0076 1A70     		strb	r2, [r3]
 454:.\Generated_Source\PSoC4/CyLib.c ****                 bgTrim5 = CY_SFLASH_IMO_TMPCO2_REG;
 538              		.loc 1 454 0
 539 0078 4E4A     		ldr	r2, .L38+32
 540 007a 3B1C     		mov	r3, r7
 541 007c 0E33     		add	r3, r3, #14
 542 007e 1278     		ldrb	r2, [r2]
 543 0080 1A70     		strb	r2, [r3]
 544 0082 1BE0     		b	.L29
 545              	.L31:
 455:.\Generated_Source\PSoC4/CyLib.c ****             }
 456:.\Generated_Source\PSoC4/CyLib.c ****             else if(freq <= CY_SFLASH_IMO_MAXF3_REG)
 546              		.loc 1 456 0
 547 0084 4C4B     		ldr	r3, .L38+36
 548 0086 1B78     		ldrb	r3, [r3]
 549 0088 DBB2     		uxtb	r3, r3
 550 008a 1A1C     		mov	r2, r3
 551 008c 7B68     		ldr	r3, [r7, #4]
 552 008e 9A42     		cmp	r2, r3
 553 0090 0AD3     		bcc	.L32
 457:.\Generated_Source\PSoC4/CyLib.c ****             {
 458:.\Generated_Source\PSoC4/CyLib.c ****                 bgTrim4 = CY_SFLASH_IMO_ABS3_REG;
 554              		.loc 1 458 0
 555 0092 4A4A     		ldr	r2, .L38+40
 556 0094 3B1C     		mov	r3, r7
 557 0096 0F33     		add	r3, r3, #15
 558 0098 1278     		ldrb	r2, [r2]
 559 009a 1A70     		strb	r2, [r3]
 459:.\Generated_Source\PSoC4/CyLib.c ****                 bgTrim5 = CY_SFLASH_IMO_TMPCO3_REG;
 560              		.loc 1 459 0
ARM GAS  C:\DOCUME~1\Owner\LOCALS~1\Temp\cc3gLjSb.s 			page 19


 561 009c 484A     		ldr	r2, .L38+44
 562 009e 3B1C     		mov	r3, r7
 563 00a0 0E33     		add	r3, r3, #14
 564 00a2 1278     		ldrb	r2, [r2]
 565 00a4 1A70     		strb	r2, [r3]
 566 00a6 09E0     		b	.L29
 567              	.L32:
 460:.\Generated_Source\PSoC4/CyLib.c ****             }
 461:.\Generated_Source\PSoC4/CyLib.c ****             else
 462:.\Generated_Source\PSoC4/CyLib.c ****             {
 463:.\Generated_Source\PSoC4/CyLib.c ****                 bgTrim4 = CY_SFLASH_IMO_ABS4_REG;
 568              		.loc 1 463 0
 569 00a8 464A     		ldr	r2, .L38+48
 570 00aa 3B1C     		mov	r3, r7
 571 00ac 0F33     		add	r3, r3, #15
 572 00ae 1278     		ldrb	r2, [r2]
 573 00b0 1A70     		strb	r2, [r3]
 464:.\Generated_Source\PSoC4/CyLib.c ****                 bgTrim5 = CY_SFLASH_IMO_TMPCO4_REG;
 574              		.loc 1 464 0
 575 00b2 454A     		ldr	r2, .L38+52
 576 00b4 3B1C     		mov	r3, r7
 577 00b6 0E33     		add	r3, r3, #14
 578 00b8 1278     		ldrb	r2, [r2]
 579 00ba 1A70     		strb	r2, [r3]
 580              	.L29:
 465:.\Generated_Source\PSoC4/CyLib.c ****             }
 466:.\Generated_Source\PSoC4/CyLib.c **** 
 467:.\Generated_Source\PSoC4/CyLib.c ****             /* Get IMO_TRIM2 value for the new frequency */
 468:.\Generated_Source\PSoC4/CyLib.c ****             newImoTrim2Value = cyImoFreqMhz2Reg[freq - CY_SYS_CLK_IMO_FREQ_TABLE_OFFSET];
 581              		.loc 1 468 0
 582 00bc 7B68     		ldr	r3, [r7, #4]
 583 00be DA1E     		sub	r2, r3, #3
 584 00c0 3B1C     		mov	r3, r7
 585 00c2 0C33     		add	r3, r3, #12
 586 00c4 4149     		ldr	r1, .L38+56
 587 00c6 8A5C     		ldrb	r2, [r1, r2]
 588 00c8 1A70     		strb	r2, [r3]
 469:.\Generated_Source\PSoC4/CyLib.c **** 
 470:.\Generated_Source\PSoC4/CyLib.c **** 
 471:.\Generated_Source\PSoC4/CyLib.c ****             interruptState = CyEnterCriticalSection();
 589              		.loc 1 471 0
 590 00ca 3C1C     		mov	r4, r7
 591 00cc 0B34     		add	r4, r4, #11
 592 00ce FFF7FEFF 		bl	CyEnterCriticalSection
 593 00d2 031C     		mov	r3, r0
 594 00d4 2370     		strb	r3, [r4]
 472:.\Generated_Source\PSoC4/CyLib.c **** 
 473:.\Generated_Source\PSoC4/CyLib.c ****             /***************************************************************************
 474:.\Generated_Source\PSoC4/CyLib.c ****             * The IMO can have a different trim per frequency. To avoid possible corner
 475:.\Generated_Source\PSoC4/CyLib.c ****             * cases where a trim change can exceed the maximum frequency, the trim must
 476:.\Generated_Source\PSoC4/CyLib.c ****             * be applied at a frequency that is low enough.
 477:.\Generated_Source\PSoC4/CyLib.c ****             *
 478:.\Generated_Source\PSoC4/CyLib.c ****             * Comparing IMO_TRIM2 values for the current and new frequencies, since
 479:.\Generated_Source\PSoC4/CyLib.c ****             * IMO_TRIM2 value as a function of IMO frequency is a strictly increasing
 480:.\Generated_Source\PSoC4/CyLib.c ****             * function and is time-invariant.
 481:.\Generated_Source\PSoC4/CyLib.c ****             ***************************************************************************/
 482:.\Generated_Source\PSoC4/CyLib.c ****             if ((newImoTrim2Value >= CY_SYS_CLK_IMO_BOUNDARY_FREQ_TRIM2) && (freq >= CY_SYS_CLK_IMO
ARM GAS  C:\DOCUME~1\Owner\LOCALS~1\Temp\cc3gLjSb.s 			page 20


 595              		.loc 1 482 0
 596 00d6 3B1C     		mov	r3, r7
 597 00d8 0C33     		add	r3, r3, #12
 598 00da 1B78     		ldrb	r3, [r3]
 599 00dc 2F2B     		cmp	r3, #47
 600 00de 0DD9     		bls	.L33
 601              		.loc 1 482 0 is_stmt 0 discriminator 1
 602 00e0 7B68     		ldr	r3, [r7, #4]
 603 00e2 2A2B     		cmp	r3, #42
 604 00e4 0AD9     		bls	.L33
 483:.\Generated_Source\PSoC4/CyLib.c ****             {
 484:.\Generated_Source\PSoC4/CyLib.c ****                 /* Set boundary IMO frequency: safe for IMO above 48 MHZ trimming */
 485:.\Generated_Source\PSoC4/CyLib.c ****                 CY_SYS_CLK_IMO_TRIM2_REG = (uint32) cyImoFreqMhz2Reg[CY_SYS_CLK_IMO_TEMP_FREQ_MHZ -
 605              		.loc 1 485 0 is_stmt 1
 606 00e6 3A4B     		ldr	r3, .L38+60
 607 00e8 1922     		mov	r2, #25
 608 00ea 1A60     		str	r2, [r3]
 486:.\Generated_Source\PSoC4/CyLib.c ****                                                                      CY_SYS_CLK_IMO_FREQ_TABLE_OFFS
 487:.\Generated_Source\PSoC4/CyLib.c **** 
 488:.\Generated_Source\PSoC4/CyLib.c ****                 CyDelayCycles(CY_SYS_CLK_IMO_FREQ_TIMEOUT_CYCLES);
 609              		.loc 1 488 0
 610 00ec 0520     		mov	r0, #5
 611 00ee FFF7FEFF 		bl	CyDelayCycles
 489:.\Generated_Source\PSoC4/CyLib.c **** 
 490:.\Generated_Source\PSoC4/CyLib.c ****                 currentImoTrim2Value = CY_SYS_CLK_IMO_TEMP_FREQ_TRIM2;
 612              		.loc 1 490 0
 613 00f2 3B1C     		mov	r3, r7
 614 00f4 0D33     		add	r3, r3, #13
 615 00f6 1922     		mov	r2, #25
 616 00f8 1A70     		strb	r2, [r3]
 617 00fa 07E0     		b	.L34
 618              	.L33:
 491:.\Generated_Source\PSoC4/CyLib.c ****             }
 492:.\Generated_Source\PSoC4/CyLib.c ****             else
 493:.\Generated_Source\PSoC4/CyLib.c ****             {
 494:.\Generated_Source\PSoC4/CyLib.c ****                 currentImoTrim2Value = (uint8) (CY_SYS_CLK_IMO_TRIM2_REG & CY_SYS_CLK_IMO_FREQ_BITS
 619              		.loc 1 494 0
 620 00fc 344B     		ldr	r3, .L38+60
 621 00fe 1B68     		ldr	r3, [r3]
 622 0100 D9B2     		uxtb	r1, r3
 623 0102 3B1C     		mov	r3, r7
 624 0104 0D33     		add	r3, r3, #13
 625 0106 3F22     		mov	r2, #63
 626 0108 0A40     		and	r2, r1
 627 010a 1A70     		strb	r2, [r3]
 628              	.L34:
 495:.\Generated_Source\PSoC4/CyLib.c ****             }
 496:.\Generated_Source\PSoC4/CyLib.c **** 
 497:.\Generated_Source\PSoC4/CyLib.c **** 
 498:.\Generated_Source\PSoC4/CyLib.c ****             /***************************************************************************
 499:.\Generated_Source\PSoC4/CyLib.c ****             * A trim change needs to be allowed to settle (within 5us) before the Freq
 500:.\Generated_Source\PSoC4/CyLib.c ****             * can be changed to a new frequency.
 501:.\Generated_Source\PSoC4/CyLib.c ****             *
 502:.\Generated_Source\PSoC4/CyLib.c ****             * Comparing IMO_TRIM2 values for the current and new frequencies, since
 503:.\Generated_Source\PSoC4/CyLib.c ****             * IMO_TRIM2 value as a function of IMO frequency is a strictly increasing
 504:.\Generated_Source\PSoC4/CyLib.c ****             * function and is time-invariant.
 505:.\Generated_Source\PSoC4/CyLib.c ****             ***************************************************************************/
ARM GAS  C:\DOCUME~1\Owner\LOCALS~1\Temp\cc3gLjSb.s 			page 21


 506:.\Generated_Source\PSoC4/CyLib.c ****             if (newImoTrim2Value < currentImoTrim2Value)
 629              		.loc 1 506 0
 630 010c 3A1C     		mov	r2, r7
 631 010e 0C32     		add	r2, r2, #12
 632 0110 3B1C     		mov	r3, r7
 633 0112 0D33     		add	r3, r3, #13
 634 0114 1278     		ldrb	r2, [r2]
 635 0116 1B78     		ldrb	r3, [r3]
 636 0118 9A42     		cmp	r2, r3
 637 011a 08D2     		bcs	.L35
 507:.\Generated_Source\PSoC4/CyLib.c ****             {
 508:.\Generated_Source\PSoC4/CyLib.c ****                 /* Set new IMO frequency */
 509:.\Generated_Source\PSoC4/CyLib.c ****                 CY_SYS_CLK_IMO_TRIM2_REG = cyImoFreqMhz2Reg[freq - CY_SYS_CLK_IMO_FREQ_TABLE_OFFSET
 638              		.loc 1 509 0
 639 011c 2C4B     		ldr	r3, .L38+60
 640 011e 7A68     		ldr	r2, [r7, #4]
 641 0120 033A     		sub	r2, r2, #3
 642 0122 2A49     		ldr	r1, .L38+56
 643 0124 8A5C     		ldrb	r2, [r1, r2]
 644 0126 1A60     		str	r2, [r3]
 510:.\Generated_Source\PSoC4/CyLib.c ****                 CyDelayCycles(CY_SYS_CLK_IMO_FREQ_TIMEOUT_CYCLES);
 645              		.loc 1 510 0
 646 0128 0520     		mov	r0, #5
 647 012a FFF7FEFF 		bl	CyDelayCycles
 648              	.L35:
 511:.\Generated_Source\PSoC4/CyLib.c ****             }
 512:.\Generated_Source\PSoC4/CyLib.c **** 
 513:.\Generated_Source\PSoC4/CyLib.c ****             /* Set trims for the new IMO frequency */
 514:.\Generated_Source\PSoC4/CyLib.c ****             CY_SYS_CLK_IMO_TRIM1_REG = (uint32) CY_SFLASH_IMO_TRIM_REG(freq - CY_SYS_CLK_IMO_FREQ_T
 649              		.loc 1 514 0
 650 012e 294B     		ldr	r3, .L38+64
 651 0130 7A68     		ldr	r2, [r7, #4]
 652 0132 2549     		ldr	r1, .L38+52
 653 0134 5218     		add	r2, r2, r1
 654 0136 1278     		ldrb	r2, [r2]
 655 0138 D2B2     		uxtb	r2, r2
 656 013a 1A60     		str	r2, [r3]
 515:.\Generated_Source\PSoC4/CyLib.c ****             CY_PWR_BG_TRIM4_REG  = bgTrim4;
 657              		.loc 1 515 0
 658 013c 264B     		ldr	r3, .L38+68
 659 013e 3A1C     		mov	r2, r7
 660 0140 0F32     		add	r2, r2, #15
 661 0142 1278     		ldrb	r2, [r2]
 662 0144 1A60     		str	r2, [r3]
 516:.\Generated_Source\PSoC4/CyLib.c ****             CY_PWR_BG_TRIM5_REG  = bgTrim5;
 663              		.loc 1 516 0
 664 0146 254B     		ldr	r3, .L38+72
 665 0148 3A1C     		mov	r2, r7
 666 014a 0E32     		add	r2, r2, #14
 667 014c 1278     		ldrb	r2, [r2]
 668 014e 1A60     		str	r2, [r3]
 517:.\Generated_Source\PSoC4/CyLib.c ****             CyDelayUs(CY_SYS_CLK_IMO_TRIM_TIMEOUT_US);
 669              		.loc 1 517 0
 670 0150 0520     		mov	r0, #5
 671 0152 FFF7FEFF 		bl	CyDelayUs
 518:.\Generated_Source\PSoC4/CyLib.c **** 
 519:.\Generated_Source\PSoC4/CyLib.c ****             if (newImoTrim2Value > currentImoTrim2Value)
ARM GAS  C:\DOCUME~1\Owner\LOCALS~1\Temp\cc3gLjSb.s 			page 22


 672              		.loc 1 519 0
 673 0156 3A1C     		mov	r2, r7
 674 0158 0C32     		add	r2, r2, #12
 675 015a 3B1C     		mov	r3, r7
 676 015c 0D33     		add	r3, r3, #13
 677 015e 1278     		ldrb	r2, [r2]
 678 0160 1B78     		ldrb	r3, [r3]
 679 0162 9A42     		cmp	r2, r3
 680 0164 08D9     		bls	.L36
 520:.\Generated_Source\PSoC4/CyLib.c ****             {
 521:.\Generated_Source\PSoC4/CyLib.c ****                 /* Set new IMO frequency */
 522:.\Generated_Source\PSoC4/CyLib.c ****                 CY_SYS_CLK_IMO_TRIM2_REG = cyImoFreqMhz2Reg[freq - CY_SYS_CLK_IMO_FREQ_TABLE_OFFSET
 681              		.loc 1 522 0
 682 0166 1A4B     		ldr	r3, .L38+60
 683 0168 7A68     		ldr	r2, [r7, #4]
 684 016a 033A     		sub	r2, r2, #3
 685 016c 1749     		ldr	r1, .L38+56
 686 016e 8A5C     		ldrb	r2, [r1, r2]
 687 0170 1A60     		str	r2, [r3]
 523:.\Generated_Source\PSoC4/CyLib.c ****                 CyDelayCycles(CY_SYS_CLK_IMO_FREQ_TIMEOUT_CYCLES);
 688              		.loc 1 523 0
 689 0172 0520     		mov	r0, #5
 690 0174 FFF7FEFF 		bl	CyDelayCycles
 691              	.L36:
 524:.\Generated_Source\PSoC4/CyLib.c ****             }
 525:.\Generated_Source\PSoC4/CyLib.c **** 
 526:.\Generated_Source\PSoC4/CyLib.c ****             CyExitCriticalSection(interruptState);
 692              		.loc 1 526 0
 693 0178 3B1C     		mov	r3, r7
 694 017a 0B33     		add	r3, r3, #11
 695 017c 1B78     		ldrb	r3, [r3]
 696 017e 181C     		mov	r0, r3
 697 0180 FFF7FEFF 		bl	CyExitCriticalSection
 698 0184 02E0     		b	.L26
 699              	.L27:
 527:.\Generated_Source\PSoC4/CyLib.c ****         }
 528:.\Generated_Source\PSoC4/CyLib.c ****         else
 529:.\Generated_Source\PSoC4/CyLib.c ****         {
 530:.\Generated_Source\PSoC4/CyLib.c ****             /* Halt CPU in debug mode if new frequency is invalid */
 531:.\Generated_Source\PSoC4/CyLib.c ****             CYASSERT(0u != 0u);
 700              		.loc 1 531 0 discriminator 1
 701 0186 0020     		mov	r0, #0
 702 0188 FFF7FEFF 		bl	CyHalt
 703              	.L26:
 532:.\Generated_Source\PSoC4/CyLib.c ****         }
 533:.\Generated_Source\PSoC4/CyLib.c ****     }
 704              		.loc 1 533 0
 705 018c BD46     		mov	sp, r7
 706 018e 05B0     		add	sp, sp, #20
 707              		@ sp needed
 708 0190 90BD     		pop	{r4, r7, pc}
 709              	.L39:
 710 0192 C046     		.align	2
 711              	.L38:
 712 0194 C0F1FF0F 		.word	268431808
 713 0198 C1F1FF0F 		.word	268431809
 714 019c C2F1FF0F 		.word	268431810
ARM GAS  C:\DOCUME~1\Owner\LOCALS~1\Temp\cc3gLjSb.s 			page 23


 715 01a0 C3F1FF0F 		.word	268431811
 716 01a4 C4F1FF0F 		.word	268431812
 717 01a8 C5F1FF0F 		.word	268431813
 718 01ac C6F1FF0F 		.word	268431814
 719 01b0 C7F1FF0F 		.word	268431815
 720 01b4 C8F1FF0F 		.word	268431816
 721 01b8 C9F1FF0F 		.word	268431817
 722 01bc CAF1FF0F 		.word	268431818
 723 01c0 CBF1FF0F 		.word	268431819
 724 01c4 CCF1FF0F 		.word	268431820
 725 01c8 CDF1FF0F 		.word	268431821
 726 01cc 00000000 		.word	cyImoFreqMhz2Reg
 727 01d0 2CFF0B40 		.word	1074528044
 728 01d4 28FF0B40 		.word	1074528040
 729 01d8 1CFF0B40 		.word	1074528028
 730 01dc 20FF0B40 		.word	1074528032
 731              		.cfi_endproc
 732              	.LFE7:
 733              		.size	CySysClkWriteImoFreq, .-CySysClkWriteImoFreq
 734              		.section	.text.CySysWdtLock,"ax",%progbits
 735              		.align	2
 736              		.global	CySysWdtLock
 737              		.code	16
 738              		.thumb_func
 739              		.type	CySysWdtLock, %function
 740              	CySysWdtLock:
 741              	.LFB8:
 534:.\Generated_Source\PSoC4/CyLib.c **** 
 535:.\Generated_Source\PSoC4/CyLib.c **** 
 536:.\Generated_Source\PSoC4/CyLib.c **** #else
 537:.\Generated_Source\PSoC4/CyLib.c **** 
 538:.\Generated_Source\PSoC4/CyLib.c **** 
 539:.\Generated_Source\PSoC4/CyLib.c ****     /*******************************************************************************
 540:.\Generated_Source\PSoC4/CyLib.c ****     * Function Name: CySysClkWriteHfclkDiv
 541:.\Generated_Source\PSoC4/CyLib.c ****     ********************************************************************************
 542:.\Generated_Source\PSoC4/CyLib.c ****     *
 543:.\Generated_Source\PSoC4/CyLib.c ****     * Summary:
 544:.\Generated_Source\PSoC4/CyLib.c ****     *  Selects HF clk predivider value.
 545:.\Generated_Source\PSoC4/CyLib.c ****     *
 546:.\Generated_Source\PSoC4/CyLib.c ****     * Parameters:
 547:.\Generated_Source\PSoC4/CyLib.c ****     *  divider: HF clock divider value
 548:.\Generated_Source\PSoC4/CyLib.c ****     *   Define                        Description
 549:.\Generated_Source\PSoC4/CyLib.c ****     *   CY_SYS_CLK_HFCLK_DIV_NODIV    Transparent mode (w/o dividing)
 550:.\Generated_Source\PSoC4/CyLib.c ****     *   CY_SYS_CLK_HFCLK_DIV_2        Divide selected clock source by 2
 551:.\Generated_Source\PSoC4/CyLib.c ****     *   CY_SYS_CLK_HFCLK_DIV_4        Divide selected clock source by 4
 552:.\Generated_Source\PSoC4/CyLib.c ****     *   CY_SYS_CLK_HFCLK_DIV_8        Divide selected clock source by 8
 553:.\Generated_Source\PSoC4/CyLib.c ****     *
 554:.\Generated_Source\PSoC4/CyLib.c ****     * Return:
 555:.\Generated_Source\PSoC4/CyLib.c ****     *  None
 556:.\Generated_Source\PSoC4/CyLib.c ****     *
 557:.\Generated_Source\PSoC4/CyLib.c ****     * Side Effects:
 558:.\Generated_Source\PSoC4/CyLib.c ****     *  If the SYSCLK clock frequency increases during the device operation, call
 559:.\Generated_Source\PSoC4/CyLib.c ****     *  CySysFlashSetWaitCycles() with the appropriate parameter to adjust the number
 560:.\Generated_Source\PSoC4/CyLib.c ****     *  of clock cycles the cache will wait before sampling data comes back from Flash.
 561:.\Generated_Source\PSoC4/CyLib.c ****     *  If the SYSCLK clock frequency decreases, you can call
 562:.\Generated_Source\PSoC4/CyLib.c ****     *  CySysFlashSetWaitCycles() to improve the CPU performance. See
 563:.\Generated_Source\PSoC4/CyLib.c ****     *  CySysFlashSetWaitCycles() description for more information.
ARM GAS  C:\DOCUME~1\Owner\LOCALS~1\Temp\cc3gLjSb.s 			page 24


 564:.\Generated_Source\PSoC4/CyLib.c ****     *
 565:.\Generated_Source\PSoC4/CyLib.c **** 
 566:.\Generated_Source\PSoC4/CyLib.c ****     *
 567:.\Generated_Source\PSoC4/CyLib.c ****     *******************************************************************************/
 568:.\Generated_Source\PSoC4/CyLib.c ****     void CySysClkWriteHfclkDiv(uint32 divider)
 569:.\Generated_Source\PSoC4/CyLib.c ****     {
 570:.\Generated_Source\PSoC4/CyLib.c ****         uint8  interruptState;
 571:.\Generated_Source\PSoC4/CyLib.c **** 
 572:.\Generated_Source\PSoC4/CyLib.c ****         interruptState = CyEnterCriticalSection();
 573:.\Generated_Source\PSoC4/CyLib.c **** 
 574:.\Generated_Source\PSoC4/CyLib.c ****         CY_SYS_CLK_SELECT_REG = ((CY_SYS_CLK_SELECT_REG & ((uint32) (~(CY_SYS_CLK_SELECT_HFCLK_DIV_
 575:.\Generated_Source\PSoC4/CyLib.c ****                                         CY_SYS_CLK_SELECT_HFCLK_DIV_SHIFT)))) |
 576:.\Generated_Source\PSoC4/CyLib.c ****                     ((uint32)((divider & CY_SYS_CLK_SELECT_HFCLK_DIV_MASK) << CY_SYS_CLK_SELECT_HFC
 577:.\Generated_Source\PSoC4/CyLib.c **** 
 578:.\Generated_Source\PSoC4/CyLib.c ****         CyExitCriticalSection(interruptState);
 579:.\Generated_Source\PSoC4/CyLib.c ****     }
 580:.\Generated_Source\PSoC4/CyLib.c **** 
 581:.\Generated_Source\PSoC4/CyLib.c **** 
 582:.\Generated_Source\PSoC4/CyLib.c ****     /*******************************************************************************
 583:.\Generated_Source\PSoC4/CyLib.c ****     * Function Name: CySysClkWriteImoFreq
 584:.\Generated_Source\PSoC4/CyLib.c ****     ********************************************************************************
 585:.\Generated_Source\PSoC4/CyLib.c ****     *
 586:.\Generated_Source\PSoC4/CyLib.c ****     * Summary:
 587:.\Generated_Source\PSoC4/CyLib.c ****     *  Sets the frequency of the IMO.
 588:.\Generated_Source\PSoC4/CyLib.c ****     *
 589:.\Generated_Source\PSoC4/CyLib.c ****     * Parameters:
 590:.\Generated_Source\PSoC4/CyLib.c ****     *  freq: Valid values are 24, 32 and 48 MHz.
 591:.\Generated_Source\PSoC4/CyLib.c ****     *
 592:.\Generated_Source\PSoC4/CyLib.c ****     *  Note: The CPU is halted if new frequency is invalid and project is
 593:.\Generated_Source\PSoC4/CyLib.c ****     *  compiled in debug mode.
 594:.\Generated_Source\PSoC4/CyLib.c ****     *
 595:.\Generated_Source\PSoC4/CyLib.c ****     * Return:
 596:.\Generated_Source\PSoC4/CyLib.c ****     *  None
 597:.\Generated_Source\PSoC4/CyLib.c ****     *
 598:.\Generated_Source\PSoC4/CyLib.c ****     * Side Effects:
 599:.\Generated_Source\PSoC4/CyLib.c ****     *  If the SYSCLK clock frequency increases during the device operation, call
 600:.\Generated_Source\PSoC4/CyLib.c ****     *  CySysFlashSetWaitCycles() with the appropriate parameter to adjust the number
 601:.\Generated_Source\PSoC4/CyLib.c ****     *  of clock cycles the cache will wait before sampling data comes back from Flash.
 602:.\Generated_Source\PSoC4/CyLib.c ****     *  If the SYSCLK clock frequency decreases, you can call
 603:.\Generated_Source\PSoC4/CyLib.c ****     *  CySysFlashSetWaitCycles() to improve the CPU performance. See
 604:.\Generated_Source\PSoC4/CyLib.c ****     *  CySysFlashSetWaitCycles() description for more information.
 605:.\Generated_Source\PSoC4/CyLib.c ****     *
 606:.\Generated_Source\PSoC4/CyLib.c ****     *  The System Clock (SYSCLK) has maximum speed of 16 MHz, so HFCLK and SYSCLK
 607:.\Generated_Source\PSoC4/CyLib.c ****     *  dividers should be selected in a way, to not to exceed 16 MHz for the System
 608:.\Generated_Source\PSoC4/CyLib.c ****     *  clock.
 609:.\Generated_Source\PSoC4/CyLib.c ****     *
 610:.\Generated_Source\PSoC4/CyLib.c ****     *******************************************************************************/
 611:.\Generated_Source\PSoC4/CyLib.c ****     void CySysClkWriteImoFreq(uint32 freq)
 612:.\Generated_Source\PSoC4/CyLib.c ****     {
 613:.\Generated_Source\PSoC4/CyLib.c ****         uint8  interruptState;
 614:.\Generated_Source\PSoC4/CyLib.c **** 
 615:.\Generated_Source\PSoC4/CyLib.c ****         if ((freq == 24u) || (freq == 32u) || (freq == 48u))
 616:.\Generated_Source\PSoC4/CyLib.c ****         {
 617:.\Generated_Source\PSoC4/CyLib.c ****             interruptState = CyEnterCriticalSection();
 618:.\Generated_Source\PSoC4/CyLib.c **** 
 619:.\Generated_Source\PSoC4/CyLib.c ****             /* Set IMO to 24 MHz - CLK_IMO_SELECT.FREQ = 0 */
 620:.\Generated_Source\PSoC4/CyLib.c ****             CY_SYS_CLK_IMO_SELECT_REG &= ((uint32) ~CY_SYS_CLK_IMO_SELECT_FREQ_MASK);
ARM GAS  C:\DOCUME~1\Owner\LOCALS~1\Temp\cc3gLjSb.s 			page 25


 621:.\Generated_Source\PSoC4/CyLib.c **** 
 622:.\Generated_Source\PSoC4/CyLib.c ****             /* Apply coarse trim */
 623:.\Generated_Source\PSoC4/CyLib.c ****             CY_SYS_CLK_IMO_TRIM1_REG = (CY_SYS_CLK_IMO_TRIM1_REG & ((uint32) ~CY_SYS_CLK_IMO_TRIM1_
 624:.\Generated_Source\PSoC4/CyLib.c ****                 (CY_SFLASH_IMO_TRIM_REG(freq - CY_SYS_CLK_IMO_MIN_FREQ_MHZ) & CY_SYS_CLK_IMO_TRIM1_
 625:.\Generated_Source\PSoC4/CyLib.c **** 
 626:.\Generated_Source\PSoC4/CyLib.c ****             /* Zero out fine trim */
 627:.\Generated_Source\PSoC4/CyLib.c ****             CY_SYS_CLK_IMO_TRIM2_REG = CY_SYS_CLK_IMO_TRIM2_REG & ((uint32) ~CY_SYS_CLK_IMO_TRIM2_F
 628:.\Generated_Source\PSoC4/CyLib.c **** 
 629:.\Generated_Source\PSoC4/CyLib.c ****             /* Apply TC trim */
 630:.\Generated_Source\PSoC4/CyLib.c ****             CY_SYS_CLK_IMO_TRIM3_REG = (CY_SYS_CLK_IMO_TRIM3_REG & ((uint32) ~CY_SYS_CLK_IMO_TRIM3_
 631:.\Generated_Source\PSoC4/CyLib.c ****                 (CY_SFLASH_IMO_TCTRIM_REG(freq - CY_SYS_CLK_IMO_MIN_FREQ_MHZ) & CY_SYS_CLK_IMO_TRIM
 632:.\Generated_Source\PSoC4/CyLib.c **** 
 633:.\Generated_Source\PSoC4/CyLib.c ****             CyDelayCycles(CY_SYS_CLK_IMO_TRIM_DELAY_US);
 634:.\Generated_Source\PSoC4/CyLib.c **** 
 635:.\Generated_Source\PSoC4/CyLib.c ****             if (freq > CY_SYS_CLK_IMO_MIN_FREQ_MHZ)
 636:.\Generated_Source\PSoC4/CyLib.c ****             {
 637:.\Generated_Source\PSoC4/CyLib.c ****                 /* Select nearby intermediate frequency */
 638:.\Generated_Source\PSoC4/CyLib.c ****                 CY_SYS_CLK_IMO_SELECT_REG = (CY_SYS_CLK_IMO_SELECT_REG & ((uint32) ~CY_SYS_CLK_IMO_
 639:.\Generated_Source\PSoC4/CyLib.c ****                     (((freq - 4u - CY_SYS_CLK_IMO_MIN_FREQ_MHZ) >> 2u) & CY_SYS_CLK_IMO_SELECT_FREQ
 640:.\Generated_Source\PSoC4/CyLib.c **** 
 641:.\Generated_Source\PSoC4/CyLib.c ****                 CyDelayCycles(CY_SYS_CLK_IMO_TRIM_DELAY_US);
 642:.\Generated_Source\PSoC4/CyLib.c **** 
 643:.\Generated_Source\PSoC4/CyLib.c ****                 /* Make small step to final frequency */
 644:.\Generated_Source\PSoC4/CyLib.c ****                 /* Select nearby intermediate frequency */
 645:.\Generated_Source\PSoC4/CyLib.c ****                 CY_SYS_CLK_IMO_SELECT_REG = (CY_SYS_CLK_IMO_SELECT_REG & ((uint32) ~CY_SYS_CLK_IMO_
 646:.\Generated_Source\PSoC4/CyLib.c ****                     (((freq - CY_SYS_CLK_IMO_MIN_FREQ_MHZ) >> 2u) & CY_SYS_CLK_IMO_SELECT_FREQ_MASK
 647:.\Generated_Source\PSoC4/CyLib.c ****             }
 648:.\Generated_Source\PSoC4/CyLib.c **** 
 649:.\Generated_Source\PSoC4/CyLib.c ****             CyExitCriticalSection(interruptState);
 650:.\Generated_Source\PSoC4/CyLib.c ****         }
 651:.\Generated_Source\PSoC4/CyLib.c ****         else
 652:.\Generated_Source\PSoC4/CyLib.c ****         {
 653:.\Generated_Source\PSoC4/CyLib.c ****             /* Halt CPU in debug mode if new frequency is invalid */
 654:.\Generated_Source\PSoC4/CyLib.c ****             CYASSERT(0u != 0u);
 655:.\Generated_Source\PSoC4/CyLib.c ****         }
 656:.\Generated_Source\PSoC4/CyLib.c ****     }
 657:.\Generated_Source\PSoC4/CyLib.c **** 
 658:.\Generated_Source\PSoC4/CyLib.c **** #endif /* (CY_IP_SRSSV2) */
 659:.\Generated_Source\PSoC4/CyLib.c **** 
 660:.\Generated_Source\PSoC4/CyLib.c **** 
 661:.\Generated_Source\PSoC4/CyLib.c **** #if (CY_PSOC4_4100BL || CY_PSOC4_4200BL)
 662:.\Generated_Source\PSoC4/CyLib.c **** 
 663:.\Generated_Source\PSoC4/CyLib.c ****     /*******************************************************************************
 664:.\Generated_Source\PSoC4/CyLib.c ****     * Function Name: CySysClkEcoStart
 665:.\Generated_Source\PSoC4/CyLib.c ****     ********************************************************************************
 666:.\Generated_Source\PSoC4/CyLib.c ****     *
 667:.\Generated_Source\PSoC4/CyLib.c ****     * Summary:
 668:.\Generated_Source\PSoC4/CyLib.c ****     *  Starts the External Crystal Oscillator (ECO). Refer to the device datasheet
 669:.\Generated_Source\PSoC4/CyLib.c ****     *  for the ECO startup time.
 670:.\Generated_Source\PSoC4/CyLib.c ****     *
 671:.\Generated_Source\PSoC4/CyLib.c ****     *  The timeout interval is measured based on the system frequency defined by
 672:.\Generated_Source\PSoC4/CyLib.c ****     *  PSoC Creator at build time. If System clock frequency is changed in
 673:.\Generated_Source\PSoC4/CyLib.c ****     *  runtime, the CyDelayFreq() with the appropriate parameter should be called.
 674:.\Generated_Source\PSoC4/CyLib.c ****     *
 675:.\Generated_Source\PSoC4/CyLib.c ****     * Parameters:
 676:.\Generated_Source\PSoC4/CyLib.c ****     *  timeoutUs: Timeout in microseconds. If zero is specified, the function
 677:.\Generated_Source\PSoC4/CyLib.c ****     *             starts the crystal and returns CYRET_SUCCESS. If non-zero
ARM GAS  C:\DOCUME~1\Owner\LOCALS~1\Temp\cc3gLjSb.s 			page 26


 678:.\Generated_Source\PSoC4/CyLib.c ****     *             value is passed, the CYRET_SUCCESS is returned once crystal
 679:.\Generated_Source\PSoC4/CyLib.c ****     *             is oscillating and amplitude reached 60% and it does not mean
 680:.\Generated_Source\PSoC4/CyLib.c ****     *             24 MHz crystal is within 50 ppm. If it is not oscillating or
 681:.\Generated_Source\PSoC4/CyLib.c ****     *             amplitude didn't reach 60% after specified amount of time, the
 682:.\Generated_Source\PSoC4/CyLib.c ****     *             CYRET_TIMEOUT is returned.
 683:.\Generated_Source\PSoC4/CyLib.c ****     *
 684:.\Generated_Source\PSoC4/CyLib.c ****     * Return:
 685:.\Generated_Source\PSoC4/CyLib.c ****     *   CYRET_SUCCESS - Completed successfully. The ECO is oscillating and amplitude
 686:.\Generated_Source\PSoC4/CyLib.c ****     *                   reached 60% and it does not mean 24 MHz crystal is within
 687:.\Generated_Source\PSoC4/CyLib.c ****     *                   50 ppm.
 688:.\Generated_Source\PSoC4/CyLib.c ****     *   CYRET_TIMEOUT - Timeout occurred.
 689:.\Generated_Source\PSoC4/CyLib.c ****     *
 690:.\Generated_Source\PSoC4/CyLib.c ****     *******************************************************************************/
 691:.\Generated_Source\PSoC4/CyLib.c ****     cystatus CySysClkEcoStart(uint32 timeoutUs)
 692:.\Generated_Source\PSoC4/CyLib.c ****     {
 693:.\Generated_Source\PSoC4/CyLib.c ****         cystatus status = CYRET_SUCCESS;
 694:.\Generated_Source\PSoC4/CyLib.c **** 
 695:.\Generated_Source\PSoC4/CyLib.c ****         /* Enable the RF oscillator band gap */
 696:.\Generated_Source\PSoC4/CyLib.c ****         CY_SYS_XTAL_BLESS_RF_CONFIG_REG |= CY_SYS_XTAL_BLESS_RF_CONFIG_RF_ENABLE;
 697:.\Generated_Source\PSoC4/CyLib.c **** 
 698:.\Generated_Source\PSoC4/CyLib.c ****         /* Update trimming register */
 699:.\Generated_Source\PSoC4/CyLib.c ****         CY_SYS_XTAL_BLERD_BB_XO_REG = CY_SYS_XTAL_BLERD_BB_XO_TRIM;
 700:.\Generated_Source\PSoC4/CyLib.c **** 
 701:.\Generated_Source\PSoC4/CyLib.c ****         /* Enable the Crystal */
 702:.\Generated_Source\PSoC4/CyLib.c ****         CY_SYS_XTAL_BLERD_DBUS_REG |= CY_SYS_XTAL_BLERD_DBUS_XTAL_ENABLE;
 703:.\Generated_Source\PSoC4/CyLib.c **** 
 704:.\Generated_Source\PSoC4/CyLib.c ****         if(timeoutUs > 0u)
 705:.\Generated_Source\PSoC4/CyLib.c ****         {
 706:.\Generated_Source\PSoC4/CyLib.c ****             status = CYRET_TIMEOUT;
 707:.\Generated_Source\PSoC4/CyLib.c **** 
 708:.\Generated_Source\PSoC4/CyLib.c ****             for( ; timeoutUs > 0u; timeoutUs--)
 709:.\Generated_Source\PSoC4/CyLib.c ****             {
 710:.\Generated_Source\PSoC4/CyLib.c ****                 CyDelayUs(1u);
 711:.\Generated_Source\PSoC4/CyLib.c **** 
 712:.\Generated_Source\PSoC4/CyLib.c ****                 if(0u != CySysClkEcoReadStatus())
 713:.\Generated_Source\PSoC4/CyLib.c ****                 {
 714:.\Generated_Source\PSoC4/CyLib.c ****                     status = CYRET_SUCCESS;
 715:.\Generated_Source\PSoC4/CyLib.c ****                     break;
 716:.\Generated_Source\PSoC4/CyLib.c ****                 }
 717:.\Generated_Source\PSoC4/CyLib.c ****             }
 718:.\Generated_Source\PSoC4/CyLib.c **** 
 719:.\Generated_Source\PSoC4/CyLib.c ****         }
 720:.\Generated_Source\PSoC4/CyLib.c **** 
 721:.\Generated_Source\PSoC4/CyLib.c ****         return(status);
 722:.\Generated_Source\PSoC4/CyLib.c ****     }
 723:.\Generated_Source\PSoC4/CyLib.c **** 
 724:.\Generated_Source\PSoC4/CyLib.c **** 
 725:.\Generated_Source\PSoC4/CyLib.c ****     /*******************************************************************************
 726:.\Generated_Source\PSoC4/CyLib.c ****     * Function Name: CySysClkEcoStop
 727:.\Generated_Source\PSoC4/CyLib.c ****     ********************************************************************************
 728:.\Generated_Source\PSoC4/CyLib.c ****     *
 729:.\Generated_Source\PSoC4/CyLib.c ****     * Summary:
 730:.\Generated_Source\PSoC4/CyLib.c ****     *  Stops the megahertz crystal.
 731:.\Generated_Source\PSoC4/CyLib.c ****     *
 732:.\Generated_Source\PSoC4/CyLib.c ****     * Parameters:
 733:.\Generated_Source\PSoC4/CyLib.c ****     *  None
 734:.\Generated_Source\PSoC4/CyLib.c ****     *
ARM GAS  C:\DOCUME~1\Owner\LOCALS~1\Temp\cc3gLjSb.s 			page 27


 735:.\Generated_Source\PSoC4/CyLib.c ****     * Return:
 736:.\Generated_Source\PSoC4/CyLib.c ****     *  None
 737:.\Generated_Source\PSoC4/CyLib.c ****     *
 738:.\Generated_Source\PSoC4/CyLib.c ****     *******************************************************************************/
 739:.\Generated_Source\PSoC4/CyLib.c ****     void CySysClkEcoStop(void)
 740:.\Generated_Source\PSoC4/CyLib.c ****     {
 741:.\Generated_Source\PSoC4/CyLib.c ****         /* Disable the RF oscillator band gap */
 742:.\Generated_Source\PSoC4/CyLib.c ****         CY_SYS_XTAL_BLESS_RF_CONFIG_REG &= (uint32) ~CY_SYS_XTAL_BLESS_RF_CONFIG_RF_ENABLE;
 743:.\Generated_Source\PSoC4/CyLib.c **** 
 744:.\Generated_Source\PSoC4/CyLib.c ****         /* Disable the Crystal */
 745:.\Generated_Source\PSoC4/CyLib.c ****         CY_SYS_XTAL_BLERD_DBUS_REG &= (uint32) ~CY_SYS_XTAL_BLERD_DBUS_XTAL_ENABLE;
 746:.\Generated_Source\PSoC4/CyLib.c ****     }
 747:.\Generated_Source\PSoC4/CyLib.c **** 
 748:.\Generated_Source\PSoC4/CyLib.c **** 
 749:.\Generated_Source\PSoC4/CyLib.c ****     /*******************************************************************************
 750:.\Generated_Source\PSoC4/CyLib.c ****     * Function Name: CySysClkEcoReadStatus
 751:.\Generated_Source\PSoC4/CyLib.c ****     ********************************************************************************
 752:.\Generated_Source\PSoC4/CyLib.c ****     *
 753:.\Generated_Source\PSoC4/CyLib.c ****     * Summary:
 754:.\Generated_Source\PSoC4/CyLib.c ****     *  Read status bit (50 ppm reached) for the megahertz crystal.
 755:.\Generated_Source\PSoC4/CyLib.c ****     *
 756:.\Generated_Source\PSoC4/CyLib.c ****     * Parameters:
 757:.\Generated_Source\PSoC4/CyLib.c ****     *  None
 758:.\Generated_Source\PSoC4/CyLib.c ****     *
 759:.\Generated_Source\PSoC4/CyLib.c ****     * Return:
 760:.\Generated_Source\PSoC4/CyLib.c ****     *  Non-zero indicates that XTAL output reached 50 ppm.
 761:.\Generated_Source\PSoC4/CyLib.c ****     *
 762:.\Generated_Source\PSoC4/CyLib.c ****     *******************************************************************************/
 763:.\Generated_Source\PSoC4/CyLib.c ****     uint32 CySysClkEcoReadStatus(void)
 764:.\Generated_Source\PSoC4/CyLib.c ****     {
 765:.\Generated_Source\PSoC4/CyLib.c ****         return (CY_SYS_XTAL_BLERD_FSM_REG & CY_SYS_XTAL_BLERD_FSM_XO_AMP_DETECT);
 766:.\Generated_Source\PSoC4/CyLib.c ****     }
 767:.\Generated_Source\PSoC4/CyLib.c **** 
 768:.\Generated_Source\PSoC4/CyLib.c **** 
 769:.\Generated_Source\PSoC4/CyLib.c ****     /*******************************************************************************
 770:.\Generated_Source\PSoC4/CyLib.c ****     * Function Name: CySysClkWriteEcoDiv
 771:.\Generated_Source\PSoC4/CyLib.c ****     ********************************************************************************
 772:.\Generated_Source\PSoC4/CyLib.c ****     *
 773:.\Generated_Source\PSoC4/CyLib.c ****     * Summary:
 774:.\Generated_Source\PSoC4/CyLib.c ****     *  Selects value for the ECO divider.
 775:.\Generated_Source\PSoC4/CyLib.c ****     *
 776:.\Generated_Source\PSoC4/CyLib.c ****     * Parameters:
 777:.\Generated_Source\PSoC4/CyLib.c ****     *  divider: Power of 2 divider selection.
 778:.\Generated_Source\PSoC4/CyLib.c ****     *
 779:.\Generated_Source\PSoC4/CyLib.c ****     *   Define                        Description
 780:.\Generated_Source\PSoC4/CyLib.c ****     *   CY_SYS_CLK_ECO_DIV1             HFCLK = ECO / 1
 781:.\Generated_Source\PSoC4/CyLib.c ****     *   CY_SYS_CLK_ECO_DIV2             HFCLK = ECO / 2
 782:.\Generated_Source\PSoC4/CyLib.c ****     *   CY_SYS_CLK_ECO_DIV4             HFCLK = ECO / 4
 783:.\Generated_Source\PSoC4/CyLib.c ****     *   CY_SYS_CLK_ECO_DIV8             HFCLK = ECO / 8
 784:.\Generated_Source\PSoC4/CyLib.c ****     *
 785:.\Generated_Source\PSoC4/CyLib.c ****     * Return:
 786:.\Generated_Source\PSoC4/CyLib.c ****     *  None
 787:.\Generated_Source\PSoC4/CyLib.c ****     *
 788:.\Generated_Source\PSoC4/CyLib.c ****     * Side Effects:
 789:.\Generated_Source\PSoC4/CyLib.c ****     *  If the SYSCLK clock frequency increases during the device operation, call
 790:.\Generated_Source\PSoC4/CyLib.c ****     *  CySysFlashSetWaitCycles() with the appropriate parameter to adjust the number
 791:.\Generated_Source\PSoC4/CyLib.c ****     *  of clock cycles the cache will wait before sampling data comes back from Flash.
ARM GAS  C:\DOCUME~1\Owner\LOCALS~1\Temp\cc3gLjSb.s 			page 28


 792:.\Generated_Source\PSoC4/CyLib.c ****     *  If the SYSCLK clock frequency decreases, you can call
 793:.\Generated_Source\PSoC4/CyLib.c ****     *  CySysFlashSetWaitCycles() to improve the CPU performance. See
 794:.\Generated_Source\PSoC4/CyLib.c ****     *  CySysFlashSetWaitCycles() description for more information.
 795:.\Generated_Source\PSoC4/CyLib.c ****     *
 796:.\Generated_Source\PSoC4/CyLib.c ****     *******************************************************************************/
 797:.\Generated_Source\PSoC4/CyLib.c ****     void CySysClkWriteEcoDiv(uint32 divider)
 798:.\Generated_Source\PSoC4/CyLib.c ****     {
 799:.\Generated_Source\PSoC4/CyLib.c ****         uint8  interruptState;
 800:.\Generated_Source\PSoC4/CyLib.c **** 
 801:.\Generated_Source\PSoC4/CyLib.c ****         interruptState = CyEnterCriticalSection();
 802:.\Generated_Source\PSoC4/CyLib.c **** 
 803:.\Generated_Source\PSoC4/CyLib.c ****         CY_SYS_CLK_XTAL_CLK_DIV_CONFIG_REG =  (divider & CY_SYS_CLK_XTAL_CLK_DIV_MASK) |
 804:.\Generated_Source\PSoC4/CyLib.c ****                                               (CY_SYS_CLK_XTAL_CLK_DIV_CONFIG_REG & ((uint32) ~CY_S
 805:.\Generated_Source\PSoC4/CyLib.c **** 
 806:.\Generated_Source\PSoC4/CyLib.c ****         CyExitCriticalSection(interruptState);
 807:.\Generated_Source\PSoC4/CyLib.c ****     }
 808:.\Generated_Source\PSoC4/CyLib.c **** #endif /* (CY_PSOC4_4100BL || CY_PSOC4_4200BL) */
 809:.\Generated_Source\PSoC4/CyLib.c **** 
 810:.\Generated_Source\PSoC4/CyLib.c **** 
 811:.\Generated_Source\PSoC4/CyLib.c **** #if (CY_IP_WCO)
 812:.\Generated_Source\PSoC4/CyLib.c ****     /*******************************************************************************
 813:.\Generated_Source\PSoC4/CyLib.c ****     * Function Name: CySysClkWcoStart
 814:.\Generated_Source\PSoC4/CyLib.c ****     ********************************************************************************
 815:.\Generated_Source\PSoC4/CyLib.c ****     *
 816:.\Generated_Source\PSoC4/CyLib.c ****     * Summary:
 817:.\Generated_Source\PSoC4/CyLib.c ****     *  Enables the Watch Crystal Oscillator (WCO). The WCO is used as a source for
 818:.\Generated_Source\PSoC4/CyLib.c ****     *  LFCLK.  Similar to ILO, WCO is also available in all modes except Hibernate
 819:.\Generated_Source\PSoC4/CyLib.c ****     *  and Stop modes.
 820:.\Generated_Source\PSoC4/CyLib.c ****     *
 821:.\Generated_Source\PSoC4/CyLib.c ****     *  The WCO is always enabled in High Power Mode (HPM). Refer to the device
 822:.\Generated_Source\PSoC4/CyLib.c ****     *  datasheet for the  WCO startup time. Once WCO becomes stable it can be
 823:.\Generated_Source\PSoC4/CyLib.c ****     *  switched to the Low Power Mode (LPM). Note that oscillator can be unstable
 824:.\Generated_Source\PSoC4/CyLib.c ****     *  during switch and hence its output should not be used at the moment.
 825:.\Generated_Source\PSoC4/CyLib.c ****     *
 826:.\Generated_Source\PSoC4/CyLib.c ****     *  The CySysClkWcoSetPowerMode() function configures WCO power mode.
 827:.\Generated_Source\PSoC4/CyLib.c ****     *
 828:.\Generated_Source\PSoC4/CyLib.c ****     * Parameters:
 829:.\Generated_Source\PSoC4/CyLib.c ****     *  None
 830:.\Generated_Source\PSoC4/CyLib.c ****     *
 831:.\Generated_Source\PSoC4/CyLib.c ****     * Return:
 832:.\Generated_Source\PSoC4/CyLib.c ****     *  None
 833:.\Generated_Source\PSoC4/CyLib.c ****     *
 834:.\Generated_Source\PSoC4/CyLib.c ****     *******************************************************************************/
 835:.\Generated_Source\PSoC4/CyLib.c ****     void CySysClkWcoStart(void)
 836:.\Generated_Source\PSoC4/CyLib.c ****     {
 837:.\Generated_Source\PSoC4/CyLib.c ****         CySysClkWcoSetHighPowerMode();
 838:.\Generated_Source\PSoC4/CyLib.c ****         CY_SYS_CLK_WCO_CONFIG_REG |= CY_SYS_CLK_WCO_CONFIG_LPM_ENABLE;
 839:.\Generated_Source\PSoC4/CyLib.c ****     }
 840:.\Generated_Source\PSoC4/CyLib.c **** 
 841:.\Generated_Source\PSoC4/CyLib.c **** 
 842:.\Generated_Source\PSoC4/CyLib.c ****     /*******************************************************************************
 843:.\Generated_Source\PSoC4/CyLib.c ****     * Function Name: CySysClkWcoStop
 844:.\Generated_Source\PSoC4/CyLib.c ****     ********************************************************************************
 845:.\Generated_Source\PSoC4/CyLib.c ****     *
 846:.\Generated_Source\PSoC4/CyLib.c ****     * Summary:
 847:.\Generated_Source\PSoC4/CyLib.c ****     *  Disables the 32KHz Crystal Oscillator.
 848:.\Generated_Source\PSoC4/CyLib.c ****     *
ARM GAS  C:\DOCUME~1\Owner\LOCALS~1\Temp\cc3gLjSb.s 			page 29


 849:.\Generated_Source\PSoC4/CyLib.c ****     * Parameters:
 850:.\Generated_Source\PSoC4/CyLib.c ****     *  None
 851:.\Generated_Source\PSoC4/CyLib.c ****     *
 852:.\Generated_Source\PSoC4/CyLib.c ****     * Return:
 853:.\Generated_Source\PSoC4/CyLib.c ****     *  None
 854:.\Generated_Source\PSoC4/CyLib.c ****     *
 855:.\Generated_Source\PSoC4/CyLib.c ****     *******************************************************************************/
 856:.\Generated_Source\PSoC4/CyLib.c ****     void  CySysClkWcoStop(void)
 857:.\Generated_Source\PSoC4/CyLib.c ****     {
 858:.\Generated_Source\PSoC4/CyLib.c ****         uint8  interruptState;
 859:.\Generated_Source\PSoC4/CyLib.c **** 
 860:.\Generated_Source\PSoC4/CyLib.c ****         if (0u != CySysClkWcoEnabled())
 861:.\Generated_Source\PSoC4/CyLib.c ****         {
 862:.\Generated_Source\PSoC4/CyLib.c **** 
 863:.\Generated_Source\PSoC4/CyLib.c ****             if (CY_SYS_CLK_LFCLK_SRC_WCO == CySysClkGetLfclkSource())
 864:.\Generated_Source\PSoC4/CyLib.c ****             {
 865:.\Generated_Source\PSoC4/CyLib.c ****                 interruptState = CyEnterCriticalSection();
 866:.\Generated_Source\PSoC4/CyLib.c ****                 CySysClkLfclkPosedgeCatch();
 867:.\Generated_Source\PSoC4/CyLib.c ****                 CY_SYS_CLK_WCO_CONFIG_REG &= (uint32) ~CY_SYS_CLK_WCO_CONFIG_LPM_ENABLE;
 868:.\Generated_Source\PSoC4/CyLib.c ****                 CySysClkLfclkPosedgeRestore();
 869:.\Generated_Source\PSoC4/CyLib.c ****                 CyExitCriticalSection(interruptState);
 870:.\Generated_Source\PSoC4/CyLib.c ****             }
 871:.\Generated_Source\PSoC4/CyLib.c ****             else /* Safe to disable - shortened pulse does not impact peripheral */
 872:.\Generated_Source\PSoC4/CyLib.c ****             {
 873:.\Generated_Source\PSoC4/CyLib.c ****                 CY_SYS_CLK_WCO_CONFIG_REG &= (uint32) ~CY_SYS_CLK_WCO_CONFIG_LPM_ENABLE;
 874:.\Generated_Source\PSoC4/CyLib.c ****             }
 875:.\Generated_Source\PSoC4/CyLib.c ****         } /* Otherwise do nothing. WCO configuration cannot be changed. */
 876:.\Generated_Source\PSoC4/CyLib.c ****     }
 877:.\Generated_Source\PSoC4/CyLib.c **** 
 878:.\Generated_Source\PSoC4/CyLib.c **** 
 879:.\Generated_Source\PSoC4/CyLib.c ****     /*******************************************************************************
 880:.\Generated_Source\PSoC4/CyLib.c ****     * Function Name: CySysClkWcoEnabled
 881:.\Generated_Source\PSoC4/CyLib.c ****     ********************************************************************************
 882:.\Generated_Source\PSoC4/CyLib.c ****     *
 883:.\Generated_Source\PSoC4/CyLib.c ****     * Summary:
 884:.\Generated_Source\PSoC4/CyLib.c ****     *  Reports WCO enable state.
 885:.\Generated_Source\PSoC4/CyLib.c ****     *
 886:.\Generated_Source\PSoC4/CyLib.c ****     * Parameters:
 887:.\Generated_Source\PSoC4/CyLib.c ****     *  None
 888:.\Generated_Source\PSoC4/CyLib.c ****     *
 889:.\Generated_Source\PSoC4/CyLib.c ****     * Return:
 890:.\Generated_Source\PSoC4/CyLib.c ****     *  1 if WCO is enabled, and 0 if WCO is disabled.
 891:.\Generated_Source\PSoC4/CyLib.c ****     *
 892:.\Generated_Source\PSoC4/CyLib.c ****     *******************************************************************************/
 893:.\Generated_Source\PSoC4/CyLib.c ****     static uint32 CySysClkWcoEnabled(void)
 894:.\Generated_Source\PSoC4/CyLib.c ****     {
 895:.\Generated_Source\PSoC4/CyLib.c ****         return ((0u != (CY_SYS_CLK_WCO_CONFIG_REG & (uint32)(CY_SYS_CLK_WCO_CONFIG_LPM_ENABLE))) ?
 896:.\Generated_Source\PSoC4/CyLib.c ****                 (uint32) 1u :
 897:.\Generated_Source\PSoC4/CyLib.c ****                 (uint32) 0u);
 898:.\Generated_Source\PSoC4/CyLib.c ****     }
 899:.\Generated_Source\PSoC4/CyLib.c **** 
 900:.\Generated_Source\PSoC4/CyLib.c **** 
 901:.\Generated_Source\PSoC4/CyLib.c ****     /*******************************************************************************
 902:.\Generated_Source\PSoC4/CyLib.c ****     * Function Name: CySysClkWcoSetPowerMode
 903:.\Generated_Source\PSoC4/CyLib.c ****     ********************************************************************************
 904:.\Generated_Source\PSoC4/CyLib.c ****     *
 905:.\Generated_Source\PSoC4/CyLib.c ****     * Summary:
ARM GAS  C:\DOCUME~1\Owner\LOCALS~1\Temp\cc3gLjSb.s 			page 30


 906:.\Generated_Source\PSoC4/CyLib.c ****     *  Sets the power mode for the 32 KHz WCO.
 907:.\Generated_Source\PSoC4/CyLib.c ****     *
 908:.\Generated_Source\PSoC4/CyLib.c ****     * Parameters:
 909:.\Generated_Source\PSoC4/CyLib.c ****     *  uint32 mode:
 910:.\Generated_Source\PSoC4/CyLib.c ****     *   CY_SYS_CLK_WCO_HPM  - High power mode
 911:.\Generated_Source\PSoC4/CyLib.c ****     *   CY_SYS_CLK_WCO_LPM  - Low power mode
 912:.\Generated_Source\PSoC4/CyLib.c ****     *
 913:.\Generated_Source\PSoC4/CyLib.c ****     * Return:
 914:.\Generated_Source\PSoC4/CyLib.c ****     *  Previous power mode. The same as parameters.
 915:.\Generated_Source\PSoC4/CyLib.c ****     *
 916:.\Generated_Source\PSoC4/CyLib.c ****     *******************************************************************************/
 917:.\Generated_Source\PSoC4/CyLib.c ****     uint32 CySysClkWcoSetPowerMode(uint32 mode)
 918:.\Generated_Source\PSoC4/CyLib.c ****     {
 919:.\Generated_Source\PSoC4/CyLib.c ****         uint32 status;
 920:.\Generated_Source\PSoC4/CyLib.c **** 
 921:.\Generated_Source\PSoC4/CyLib.c ****         status = CY_SYS_CLK_WCO_CONFIG_REG & CY_SYS_CLK_WCO_LPM;
 922:.\Generated_Source\PSoC4/CyLib.c **** 
 923:.\Generated_Source\PSoC4/CyLib.c ****         switch(mode)
 924:.\Generated_Source\PSoC4/CyLib.c ****         {
 925:.\Generated_Source\PSoC4/CyLib.c ****         case CY_SYS_CLK_WCO_HPM:
 926:.\Generated_Source\PSoC4/CyLib.c ****                 CySysClkWcoSetHighPowerMode();
 927:.\Generated_Source\PSoC4/CyLib.c ****             break;
 928:.\Generated_Source\PSoC4/CyLib.c **** 
 929:.\Generated_Source\PSoC4/CyLib.c ****         case CY_SYS_CLK_WCO_LPM:
 930:.\Generated_Source\PSoC4/CyLib.c ****                 CySysClkWcoSetLowPowerMode();
 931:.\Generated_Source\PSoC4/CyLib.c ****             break;
 932:.\Generated_Source\PSoC4/CyLib.c **** 
 933:.\Generated_Source\PSoC4/CyLib.c ****         default:
 934:.\Generated_Source\PSoC4/CyLib.c ****             CYASSERT(0u != 0u);
 935:.\Generated_Source\PSoC4/CyLib.c ****             break;
 936:.\Generated_Source\PSoC4/CyLib.c ****         }
 937:.\Generated_Source\PSoC4/CyLib.c **** 
 938:.\Generated_Source\PSoC4/CyLib.c ****         return (status);
 939:.\Generated_Source\PSoC4/CyLib.c ****     }
 940:.\Generated_Source\PSoC4/CyLib.c **** 
 941:.\Generated_Source\PSoC4/CyLib.c **** #endif  /* (CY_IP_WCO) */
 942:.\Generated_Source\PSoC4/CyLib.c **** 
 943:.\Generated_Source\PSoC4/CyLib.c **** 
 944:.\Generated_Source\PSoC4/CyLib.c **** #if(CY_IP_SRSSV2)
 945:.\Generated_Source\PSoC4/CyLib.c **** 
 946:.\Generated_Source\PSoC4/CyLib.c **** 
 947:.\Generated_Source\PSoC4/CyLib.c ****     /*******************************************************************************
 948:.\Generated_Source\PSoC4/CyLib.c ****     * Function Name: CySysWdtLock
 949:.\Generated_Source\PSoC4/CyLib.c ****     ********************************************************************************
 950:.\Generated_Source\PSoC4/CyLib.c ****     *
 951:.\Generated_Source\PSoC4/CyLib.c ****     * Summary:
 952:.\Generated_Source\PSoC4/CyLib.c ****     *  Locks out configuration changes to the Watchdog timer registers and ILO
 953:.\Generated_Source\PSoC4/CyLib.c ****     *  configuration register.
 954:.\Generated_Source\PSoC4/CyLib.c ****     *
 955:.\Generated_Source\PSoC4/CyLib.c ****     * Parameters:
 956:.\Generated_Source\PSoC4/CyLib.c ****     *  None
 957:.\Generated_Source\PSoC4/CyLib.c ****     *
 958:.\Generated_Source\PSoC4/CyLib.c ****     * Return:
 959:.\Generated_Source\PSoC4/CyLib.c ****     *  None
 960:.\Generated_Source\PSoC4/CyLib.c ****     *
 961:.\Generated_Source\PSoC4/CyLib.c ****     * Side effects:
 962:.\Generated_Source\PSoC4/CyLib.c ****     *  After this function was called, ILO clock can't be disabled until
ARM GAS  C:\DOCUME~1\Owner\LOCALS~1\Temp\cc3gLjSb.s 			page 31


 963:.\Generated_Source\PSoC4/CyLib.c ****     *  CySysWdtUnlock() is called.
 964:.\Generated_Source\PSoC4/CyLib.c ****     *
 965:.\Generated_Source\PSoC4/CyLib.c ****     *******************************************************************************/
 966:.\Generated_Source\PSoC4/CyLib.c ****     void CySysWdtLock(void)
 967:.\Generated_Source\PSoC4/CyLib.c ****     {
 742              		.loc 1 967 0
 743              		.cfi_startproc
 744 0000 90B5     		push	{r4, r7, lr}
 745              		.cfi_def_cfa_offset 12
 746              		.cfi_offset 4, -12
 747              		.cfi_offset 7, -8
 748              		.cfi_offset 14, -4
 749 0002 83B0     		sub	sp, sp, #12
 750              		.cfi_def_cfa_offset 24
 751 0004 00AF     		add	r7, sp, #0
 752              		.cfi_def_cfa_register 7
 968:.\Generated_Source\PSoC4/CyLib.c ****         uint8 interruptState;
 969:.\Generated_Source\PSoC4/CyLib.c ****         interruptState = CyEnterCriticalSection();
 753              		.loc 1 969 0
 754 0006 FC1D     		add	r4, r7, #7
 755 0008 FFF7FEFF 		bl	CyEnterCriticalSection
 756 000c 031C     		mov	r3, r0
 757 000e 2370     		strb	r3, [r4]
 970:.\Generated_Source\PSoC4/CyLib.c **** 
 971:.\Generated_Source\PSoC4/CyLib.c ****         CY_SYS_CLK_SELECT_REG = (CY_SYS_CLK_SELECT_REG & (uint32)(~CY_SYS_WDT_CLK_LOCK_BITS_MASK)) 
 758              		.loc 1 971 0
 759 0010 074B     		ldr	r3, .L41
 760 0012 074A     		ldr	r2, .L41
 761 0014 1268     		ldr	r2, [r2]
 762 0016 C021     		mov	r1, #192
 763 0018 0902     		lsl	r1, r1, #8
 764 001a 0A43     		orr	r2, r1
 765 001c 1A60     		str	r2, [r3]
 972:.\Generated_Source\PSoC4/CyLib.c ****                  CY_SYS_WDT_CLK_LOCK_BITS_MASK;
 973:.\Generated_Source\PSoC4/CyLib.c **** 
 974:.\Generated_Source\PSoC4/CyLib.c ****         CyExitCriticalSection(interruptState);
 766              		.loc 1 974 0
 767 001e FB1D     		add	r3, r7, #7
 768 0020 1B78     		ldrb	r3, [r3]
 769 0022 181C     		mov	r0, r3
 770 0024 FFF7FEFF 		bl	CyExitCriticalSection
 975:.\Generated_Source\PSoC4/CyLib.c ****     }
 771              		.loc 1 975 0
 772 0028 BD46     		mov	sp, r7
 773 002a 03B0     		add	sp, sp, #12
 774              		@ sp needed
 775 002c 90BD     		pop	{r4, r7, pc}
 776              	.L42:
 777 002e C046     		.align	2
 778              	.L41:
 779 0030 00010B40 		.word	1074462976
 780              		.cfi_endproc
 781              	.LFE8:
 782              		.size	CySysWdtLock, .-CySysWdtLock
 783              		.section	.text.CySysWdtLocked,"ax",%progbits
 784              		.align	2
 785              		.code	16
ARM GAS  C:\DOCUME~1\Owner\LOCALS~1\Temp\cc3gLjSb.s 			page 32


 786              		.thumb_func
 787              		.type	CySysWdtLocked, %function
 788              	CySysWdtLocked:
 789              	.LFB9:
 976:.\Generated_Source\PSoC4/CyLib.c **** 
 977:.\Generated_Source\PSoC4/CyLib.c **** 
 978:.\Generated_Source\PSoC4/CyLib.c ****     /*******************************************************************************
 979:.\Generated_Source\PSoC4/CyLib.c ****     * Function Name: CySysWdtLocked
 980:.\Generated_Source\PSoC4/CyLib.c ****     ********************************************************************************
 981:.\Generated_Source\PSoC4/CyLib.c ****     *
 982:.\Generated_Source\PSoC4/CyLib.c ****     * Summary:
 983:.\Generated_Source\PSoC4/CyLib.c ****     *  Reports WDT lock state.
 984:.\Generated_Source\PSoC4/CyLib.c ****     *
 985:.\Generated_Source\PSoC4/CyLib.c ****     * Parameters:
 986:.\Generated_Source\PSoC4/CyLib.c ****     *  None
 987:.\Generated_Source\PSoC4/CyLib.c ****     *
 988:.\Generated_Source\PSoC4/CyLib.c ****     * Return:
 989:.\Generated_Source\PSoC4/CyLib.c ****     *  1 - WDT is locked, and 0 - WDT is unlocked.
 990:.\Generated_Source\PSoC4/CyLib.c ****     *
 991:.\Generated_Source\PSoC4/CyLib.c ****     *******************************************************************************/
 992:.\Generated_Source\PSoC4/CyLib.c ****     static uint32 CySysWdtLocked(void)
 993:.\Generated_Source\PSoC4/CyLib.c ****     {
 790              		.loc 1 993 0
 791              		.cfi_startproc
 792 0000 80B5     		push	{r7, lr}
 793              		.cfi_def_cfa_offset 8
 794              		.cfi_offset 7, -8
 795              		.cfi_offset 14, -4
 796 0002 00AF     		add	r7, sp, #0
 797              		.cfi_def_cfa_register 7
 994:.\Generated_Source\PSoC4/CyLib.c ****         /* Prohibits writing to WDT registers and ILO/WCO registers when not equal 0 */
 995:.\Generated_Source\PSoC4/CyLib.c ****         return ((0u != (CY_SYS_CLK_SELECT_REG & (uint32)(CY_SYS_WDT_CLK_LOCK_BITS_MASK))) ? (uint32
 798              		.loc 1 995 0
 799 0004 054B     		ldr	r3, .L47
 800 0006 1A68     		ldr	r2, [r3]
 801 0008 C023     		mov	r3, #192
 802 000a 1B02     		lsl	r3, r3, #8
 803 000c 1340     		and	r3, r2
 804 000e 01D0     		beq	.L44
 805              		.loc 1 995 0 is_stmt 0 discriminator 1
 806 0010 0123     		mov	r3, #1
 807 0012 00E0     		b	.L45
 808              	.L44:
 809              		.loc 1 995 0 discriminator 2
 810 0014 0023     		mov	r3, #0
 811              	.L45:
 996:.\Generated_Source\PSoC4/CyLib.c ****     }
 812              		.loc 1 996 0 is_stmt 1 discriminator 3
 813 0016 181C     		mov	r0, r3
 814 0018 BD46     		mov	sp, r7
 815              		@ sp needed
 816 001a 80BD     		pop	{r7, pc}
 817              	.L48:
 818              		.align	2
 819              	.L47:
 820 001c 00010B40 		.word	1074462976
 821              		.cfi_endproc
ARM GAS  C:\DOCUME~1\Owner\LOCALS~1\Temp\cc3gLjSb.s 			page 33


 822              	.LFE9:
 823              		.size	CySysWdtLocked, .-CySysWdtLocked
 824              		.section	.text.CySysWdtUnlock,"ax",%progbits
 825              		.align	2
 826              		.global	CySysWdtUnlock
 827              		.code	16
 828              		.thumb_func
 829              		.type	CySysWdtUnlock, %function
 830              	CySysWdtUnlock:
 831              	.LFB10:
 997:.\Generated_Source\PSoC4/CyLib.c **** 
 998:.\Generated_Source\PSoC4/CyLib.c **** 
 999:.\Generated_Source\PSoC4/CyLib.c ****     /*******************************************************************************
1000:.\Generated_Source\PSoC4/CyLib.c ****     * Function Name: CySysWdtUnlock
1001:.\Generated_Source\PSoC4/CyLib.c ****     ********************************************************************************
1002:.\Generated_Source\PSoC4/CyLib.c ****     *
1003:.\Generated_Source\PSoC4/CyLib.c ****     * Summary:
1004:.\Generated_Source\PSoC4/CyLib.c ****     *  Unlocks the Watchdog Timer configuration register.
1005:.\Generated_Source\PSoC4/CyLib.c ****     *
1006:.\Generated_Source\PSoC4/CyLib.c ****     * Parameters:
1007:.\Generated_Source\PSoC4/CyLib.c ****     *  None
1008:.\Generated_Source\PSoC4/CyLib.c ****     *
1009:.\Generated_Source\PSoC4/CyLib.c ****     * Return:
1010:.\Generated_Source\PSoC4/CyLib.c ****     *  None
1011:.\Generated_Source\PSoC4/CyLib.c ****     *
1012:.\Generated_Source\PSoC4/CyLib.c ****     *******************************************************************************/
1013:.\Generated_Source\PSoC4/CyLib.c ****     void CySysWdtUnlock(void)
1014:.\Generated_Source\PSoC4/CyLib.c ****     {
 832              		.loc 1 1014 0
 833              		.cfi_startproc
 834 0000 90B5     		push	{r4, r7, lr}
 835              		.cfi_def_cfa_offset 12
 836              		.cfi_offset 4, -12
 837              		.cfi_offset 7, -8
 838              		.cfi_offset 14, -4
 839 0002 83B0     		sub	sp, sp, #12
 840              		.cfi_def_cfa_offset 24
 841 0004 00AF     		add	r7, sp, #0
 842              		.cfi_def_cfa_register 7
1015:.\Generated_Source\PSoC4/CyLib.c ****         uint8 interruptState;
1016:.\Generated_Source\PSoC4/CyLib.c ****         interruptState = CyEnterCriticalSection();
 843              		.loc 1 1016 0
 844 0006 FC1D     		add	r4, r7, #7
 845 0008 FFF7FEFF 		bl	CyEnterCriticalSection
 846 000c 031C     		mov	r3, r0
 847 000e 2370     		strb	r3, [r4]
1017:.\Generated_Source\PSoC4/CyLib.c **** 
1018:.\Generated_Source\PSoC4/CyLib.c ****         /* Removing WDT lock requires two writes */
1019:.\Generated_Source\PSoC4/CyLib.c ****         CY_SYS_CLK_SELECT_REG = ((CY_SYS_CLK_SELECT_REG & (uint32)(~CY_SYS_WDT_CLK_LOCK_BITS_MASK))
 848              		.loc 1 1019 0
 849 0010 0C4B     		ldr	r3, .L50
 850 0012 0C4A     		ldr	r2, .L50
 851 0014 1168     		ldr	r1, [r2]
 852 0016 0C4A     		ldr	r2, .L50+4
 853 0018 0A40     		and	r2, r1
 854 001a 8021     		mov	r1, #128
 855 001c C901     		lsl	r1, r1, #7
ARM GAS  C:\DOCUME~1\Owner\LOCALS~1\Temp\cc3gLjSb.s 			page 34


 856 001e 0A43     		orr	r2, r1
 857 0020 1A60     		str	r2, [r3]
1020:.\Generated_Source\PSoC4/CyLib.c ****                 CY_SYS_WDT_CLK_LOCK_BIT0);
1021:.\Generated_Source\PSoC4/CyLib.c **** 
1022:.\Generated_Source\PSoC4/CyLib.c ****         CY_SYS_CLK_SELECT_REG = ((CY_SYS_CLK_SELECT_REG & (uint32)(~CY_SYS_WDT_CLK_LOCK_BITS_MASK))
 858              		.loc 1 1022 0
 859 0022 084B     		ldr	r3, .L50
 860 0024 074A     		ldr	r2, .L50
 861 0026 1168     		ldr	r1, [r2]
 862 0028 074A     		ldr	r2, .L50+4
 863 002a 0A40     		and	r2, r1
 864 002c 8021     		mov	r1, #128
 865 002e 0902     		lsl	r1, r1, #8
 866 0030 0A43     		orr	r2, r1
 867 0032 1A60     		str	r2, [r3]
1023:.\Generated_Source\PSoC4/CyLib.c ****                 CY_SYS_WDT_CLK_LOCK_BIT1);
1024:.\Generated_Source\PSoC4/CyLib.c **** 
1025:.\Generated_Source\PSoC4/CyLib.c ****         CyExitCriticalSection(interruptState);
 868              		.loc 1 1025 0
 869 0034 FB1D     		add	r3, r7, #7
 870 0036 1B78     		ldrb	r3, [r3]
 871 0038 181C     		mov	r0, r3
 872 003a FFF7FEFF 		bl	CyExitCriticalSection
1026:.\Generated_Source\PSoC4/CyLib.c ****     }
 873              		.loc 1 1026 0
 874 003e BD46     		mov	sp, r7
 875 0040 03B0     		add	sp, sp, #12
 876              		@ sp needed
 877 0042 90BD     		pop	{r4, r7, pc}
 878              	.L51:
 879              		.align	2
 880              	.L50:
 881 0044 00010B40 		.word	1074462976
 882 0048 FF3FFFFF 		.word	-49153
 883              		.cfi_endproc
 884              	.LFE10:
 885              		.size	CySysWdtUnlock, .-CySysWdtUnlock
 886              		.section	.text.CySysWdtReadEnabledStatus,"ax",%progbits
 887              		.align	2
 888              		.global	CySysWdtReadEnabledStatus
 889              		.code	16
 890              		.thumb_func
 891              		.type	CySysWdtReadEnabledStatus, %function
 892              	CySysWdtReadEnabledStatus:
 893              	.LFB11:
1027:.\Generated_Source\PSoC4/CyLib.c **** 
1028:.\Generated_Source\PSoC4/CyLib.c **** 
1029:.\Generated_Source\PSoC4/CyLib.c ****     /*******************************************************************************
1030:.\Generated_Source\PSoC4/CyLib.c ****     * Function Name: CySysWdtReadEnabledStatus
1031:.\Generated_Source\PSoC4/CyLib.c ****     ********************************************************************************
1032:.\Generated_Source\PSoC4/CyLib.c ****     *
1033:.\Generated_Source\PSoC4/CyLib.c ****     * Summary:
1034:.\Generated_Source\PSoC4/CyLib.c ****     *  Reads the enabled status of one of the three WDT counters.
1035:.\Generated_Source\PSoC4/CyLib.c ****     *
1036:.\Generated_Source\PSoC4/CyLib.c ****     * Parameters:
1037:.\Generated_Source\PSoC4/CyLib.c ****     *  counterNum: Valid range [0-2].  Number of the WDT counter.
1038:.\Generated_Source\PSoC4/CyLib.c ****     *
ARM GAS  C:\DOCUME~1\Owner\LOCALS~1\Temp\cc3gLjSb.s 			page 35


1039:.\Generated_Source\PSoC4/CyLib.c ****     * Return:
1040:.\Generated_Source\PSoC4/CyLib.c ****     *  Status of WDT counter:
1041:.\Generated_Source\PSoC4/CyLib.c ****     *   0 - counter is disabled
1042:.\Generated_Source\PSoC4/CyLib.c ****     *   1 - counter is enabled
1043:.\Generated_Source\PSoC4/CyLib.c ****     *
1044:.\Generated_Source\PSoC4/CyLib.c ****     * Side Effects:
1045:.\Generated_Source\PSoC4/CyLib.c ****     *  This function returns actual WDT counter status from status register. It may
1046:.\Generated_Source\PSoC4/CyLib.c ****     *  take up to 3 LFCLK cycles since WDT counter was enabled for WDT status
1047:.\Generated_Source\PSoC4/CyLib.c ****     *  register to contain actual data.
1048:.\Generated_Source\PSoC4/CyLib.c ****     *
1049:.\Generated_Source\PSoC4/CyLib.c ****     *******************************************************************************/
1050:.\Generated_Source\PSoC4/CyLib.c ****     uint32 CySysWdtReadEnabledStatus(uint32 counterNum)
1051:.\Generated_Source\PSoC4/CyLib.c ****     {
 894              		.loc 1 1051 0
 895              		.cfi_startproc
 896 0000 80B5     		push	{r7, lr}
 897              		.cfi_def_cfa_offset 8
 898              		.cfi_offset 7, -8
 899              		.cfi_offset 14, -4
 900 0002 82B0     		sub	sp, sp, #8
 901              		.cfi_def_cfa_offset 16
 902 0004 00AF     		add	r7, sp, #0
 903              		.cfi_def_cfa_register 7
 904 0006 7860     		str	r0, [r7, #4]
1052:.\Generated_Source\PSoC4/CyLib.c ****         CYASSERT(counterNum < CY_SYS_WDT_COUNTERS_MAX);
 905              		.loc 1 1052 0
 906 0008 7B68     		ldr	r3, [r7, #4]
 907 000a 022B     		cmp	r3, #2
 908 000c 02D9     		bls	.L53
 909              		.loc 1 1052 0 is_stmt 0 discriminator 1
 910 000e 0020     		mov	r0, #0
 911 0010 FFF7FEFF 		bl	CyHalt
 912              	.L53:
1053:.\Generated_Source\PSoC4/CyLib.c ****         return ((CY_SYS_WDT_CONTROL_REG >> ((CY_SYS_WDT_CNT_SHIFT * counterNum) + CY_SYS_WDT_CNT_ST
 913              		.loc 1 1053 0 is_stmt 1
 914 0014 054B     		ldr	r3, .L55
 915 0016 1A68     		ldr	r2, [r3]
 916 0018 7B68     		ldr	r3, [r7, #4]
 917 001a DB00     		lsl	r3, r3, #3
 918 001c 0133     		add	r3, r3, #1
 919 001e DA40     		lsr	r2, r2, r3
 920 0020 0123     		mov	r3, #1
 921 0022 1340     		and	r3, r2
1054:.\Generated_Source\PSoC4/CyLib.c ****     }
 922              		.loc 1 1054 0
 923 0024 181C     		mov	r0, r3
 924 0026 BD46     		mov	sp, r7
 925 0028 02B0     		add	sp, sp, #8
 926              		@ sp needed
 927 002a 80BD     		pop	{r7, pc}
 928              	.L56:
 929              		.align	2
 930              	.L55:
 931 002c 10020B40 		.word	1074463248
 932              		.cfi_endproc
 933              	.LFE11:
 934              		.size	CySysWdtReadEnabledStatus, .-CySysWdtReadEnabledStatus
ARM GAS  C:\DOCUME~1\Owner\LOCALS~1\Temp\cc3gLjSb.s 			page 36


 935              		.section	.text.CySysWdtWriteMode,"ax",%progbits
 936              		.align	2
 937              		.global	CySysWdtWriteMode
 938              		.code	16
 939              		.thumb_func
 940              		.type	CySysWdtWriteMode, %function
 941              	CySysWdtWriteMode:
 942              	.LFB12:
1055:.\Generated_Source\PSoC4/CyLib.c **** 
1056:.\Generated_Source\PSoC4/CyLib.c **** 
1057:.\Generated_Source\PSoC4/CyLib.c ****     /*******************************************************************************
1058:.\Generated_Source\PSoC4/CyLib.c ****     * Function Name: CySysWdtWriteMode
1059:.\Generated_Source\PSoC4/CyLib.c ****     ********************************************************************************
1060:.\Generated_Source\PSoC4/CyLib.c ****     *
1061:.\Generated_Source\PSoC4/CyLib.c ****     * Summary:
1062:.\Generated_Source\PSoC4/CyLib.c ****     *   Writes the mode of one of the three WDT counters.
1063:.\Generated_Source\PSoC4/CyLib.c ****     *
1064:.\Generated_Source\PSoC4/CyLib.c ****     * Parameters:
1065:.\Generated_Source\PSoC4/CyLib.c ****     *   counterNum: Valid range [0-2].  Number of the WDT counter.
1066:.\Generated_Source\PSoC4/CyLib.c ****     *   mode:       Mode of operation for the counter
1067:.\Generated_Source\PSoC4/CyLib.c ****     *       Define                   Mode
1068:.\Generated_Source\PSoC4/CyLib.c ****     *    CY_SYS_WDT_MODE_NONE       Free running
1069:.\Generated_Source\PSoC4/CyLib.c ****     *    CY_SYS_WDT_MODE_INT        Interrupt generated on match for counter 0
1070:.\Generated_Source\PSoC4/CyLib.c ****     *                               and 1, and on bit toggle for counter 2.
1071:.\Generated_Source\PSoC4/CyLib.c ****     *    CY_SYS_WDT_MODE_RESET      Reset on match (valid for counter 0 and 1
1072:.\Generated_Source\PSoC4/CyLib.c ****     *                               only)
1073:.\Generated_Source\PSoC4/CyLib.c ****     *    CY_SYS_WDT_MODE_INT_RESET  Generate an interrupt.  Generate a reset on
1074:.\Generated_Source\PSoC4/CyLib.c ****     *                                    the 3rd unhandled interrupt.
1075:.\Generated_Source\PSoC4/CyLib.c ****     *                                    (valid for counter 0 and 1 only)
1076:.\Generated_Source\PSoC4/CyLib.c ****     * Return:
1077:.\Generated_Source\PSoC4/CyLib.c ****     *   None
1078:.\Generated_Source\PSoC4/CyLib.c ****     *
1079:.\Generated_Source\PSoC4/CyLib.c ****     * Side Effects:
1080:.\Generated_Source\PSoC4/CyLib.c ****     *   WDT counter counterNum should be disabled to set mode. Otherwise this
1081:.\Generated_Source\PSoC4/CyLib.c ****     *   function call will have no effect. If the specified counter is enabled,
1082:.\Generated_Source\PSoC4/CyLib.c ****     *   call CySysWdtDisable() function with the corresponding parameter to
1083:.\Generated_Source\PSoC4/CyLib.c ****     *   disable specified counter and wait for it to stop.
1084:.\Generated_Source\PSoC4/CyLib.c ****     *
1085:.\Generated_Source\PSoC4/CyLib.c ****     *******************************************************************************/
1086:.\Generated_Source\PSoC4/CyLib.c ****     void CySysWdtWriteMode(uint32 counterNum, uint32 mode)
1087:.\Generated_Source\PSoC4/CyLib.c ****     {
 943              		.loc 1 1087 0
 944              		.cfi_startproc
 945 0000 80B5     		push	{r7, lr}
 946              		.cfi_def_cfa_offset 8
 947              		.cfi_offset 7, -8
 948              		.cfi_offset 14, -4
 949 0002 84B0     		sub	sp, sp, #16
 950              		.cfi_def_cfa_offset 24
 951 0004 00AF     		add	r7, sp, #0
 952              		.cfi_def_cfa_register 7
 953 0006 7860     		str	r0, [r7, #4]
 954 0008 3960     		str	r1, [r7]
1088:.\Generated_Source\PSoC4/CyLib.c ****         uint32 configRegValue;
1089:.\Generated_Source\PSoC4/CyLib.c **** 
1090:.\Generated_Source\PSoC4/CyLib.c ****         CYASSERT(counterNum < CY_SYS_WDT_COUNTERS_MAX);
 955              		.loc 1 1090 0
ARM GAS  C:\DOCUME~1\Owner\LOCALS~1\Temp\cc3gLjSb.s 			page 37


 956 000a 7B68     		ldr	r3, [r7, #4]
 957 000c 022B     		cmp	r3, #2
 958 000e 02D9     		bls	.L58
 959              		.loc 1 1090 0 is_stmt 0 discriminator 1
 960 0010 0020     		mov	r0, #0
 961 0012 FFF7FEFF 		bl	CyHalt
 962              	.L58:
1091:.\Generated_Source\PSoC4/CyLib.c **** 
1092:.\Generated_Source\PSoC4/CyLib.c ****         if(0u == CySysWdtReadEnabledStatus(counterNum))
 963              		.loc 1 1092 0 is_stmt 1
 964 0016 7B68     		ldr	r3, [r7, #4]
 965 0018 181C     		mov	r0, r3
 966 001a FFF7FEFF 		bl	CySysWdtReadEnabledStatus
 967 001e 031C     		mov	r3, r0
 968 0020 002B     		cmp	r3, #0
 969 0022 18D1     		bne	.L57
1093:.\Generated_Source\PSoC4/CyLib.c ****         {
1094:.\Generated_Source\PSoC4/CyLib.c ****             configRegValue = CY_SYS_WDT_CONFIG_REG &
 970              		.loc 1 1094 0
 971 0024 0D4B     		ldr	r3, .L60
 972 0026 1B68     		ldr	r3, [r3]
1095:.\Generated_Source\PSoC4/CyLib.c ****                                 (uint32)~((uint32)(CY_SYS_WDT_MODE_MASK << (counterNum * CY_SYS_WDT
 973              		.loc 1 1095 0
 974 0028 7A68     		ldr	r2, [r7, #4]
 975 002a D200     		lsl	r2, r2, #3
 976 002c 0321     		mov	r1, #3
 977 002e 081C     		mov	r0, r1
 978 0030 9040     		lsl	r0, r0, r2
 979 0032 021C     		mov	r2, r0
 980 0034 D243     		mvn	r2, r2
1094:.\Generated_Source\PSoC4/CyLib.c ****             configRegValue = CY_SYS_WDT_CONFIG_REG &
 981              		.loc 1 1094 0
 982 0036 1340     		and	r3, r2
 983 0038 FB60     		str	r3, [r7, #12]
1096:.\Generated_Source\PSoC4/CyLib.c ****             configRegValue |= (uint32)((mode & CY_SYS_WDT_MODE_MASK) << (counterNum * CY_SYS_WDT_CN
 984              		.loc 1 1096 0
 985 003a 3A68     		ldr	r2, [r7]
 986 003c 0323     		mov	r3, #3
 987 003e 1A40     		and	r2, r3
 988 0040 7B68     		ldr	r3, [r7, #4]
 989 0042 DB00     		lsl	r3, r3, #3
 990 0044 111C     		mov	r1, r2
 991 0046 9940     		lsl	r1, r1, r3
 992 0048 0B1C     		mov	r3, r1
 993 004a FA68     		ldr	r2, [r7, #12]
 994 004c 1343     		orr	r3, r2
 995 004e FB60     		str	r3, [r7, #12]
1097:.\Generated_Source\PSoC4/CyLib.c ****             CY_SYS_WDT_CONFIG_REG = configRegValue;
 996              		.loc 1 1097 0
 997 0050 024B     		ldr	r3, .L60
 998 0052 FA68     		ldr	r2, [r7, #12]
 999 0054 1A60     		str	r2, [r3]
 1000              	.L57:
1098:.\Generated_Source\PSoC4/CyLib.c ****         }
1099:.\Generated_Source\PSoC4/CyLib.c ****     }
 1001              		.loc 1 1099 0
 1002 0056 BD46     		mov	sp, r7
ARM GAS  C:\DOCUME~1\Owner\LOCALS~1\Temp\cc3gLjSb.s 			page 38


 1003 0058 04B0     		add	sp, sp, #16
 1004              		@ sp needed
 1005 005a 80BD     		pop	{r7, pc}
 1006              	.L61:
 1007              		.align	2
 1008              	.L60:
 1009 005c 0C020B40 		.word	1074463244
 1010              		.cfi_endproc
 1011              	.LFE12:
 1012              		.size	CySysWdtWriteMode, .-CySysWdtWriteMode
 1013              		.section	.text.CySysWdtReadMode,"ax",%progbits
 1014              		.align	2
 1015              		.global	CySysWdtReadMode
 1016              		.code	16
 1017              		.thumb_func
 1018              		.type	CySysWdtReadMode, %function
 1019              	CySysWdtReadMode:
 1020              	.LFB13:
1100:.\Generated_Source\PSoC4/CyLib.c **** 
1101:.\Generated_Source\PSoC4/CyLib.c **** 
1102:.\Generated_Source\PSoC4/CyLib.c ****     /*******************************************************************************
1103:.\Generated_Source\PSoC4/CyLib.c ****     * Function Name: CySysWdtReadMode
1104:.\Generated_Source\PSoC4/CyLib.c ****     ********************************************************************************
1105:.\Generated_Source\PSoC4/CyLib.c ****     *
1106:.\Generated_Source\PSoC4/CyLib.c ****     * Summary:
1107:.\Generated_Source\PSoC4/CyLib.c ****     *  Reads the mode of one of the three WDT counters.
1108:.\Generated_Source\PSoC4/CyLib.c ****     *
1109:.\Generated_Source\PSoC4/CyLib.c ****     * Parameters:
1110:.\Generated_Source\PSoC4/CyLib.c ****     *  counterNum: Valid range [0-2].  Number of the WDT counter.
1111:.\Generated_Source\PSoC4/CyLib.c ****     *
1112:.\Generated_Source\PSoC4/CyLib.c ****     * Return:
1113:.\Generated_Source\PSoC4/CyLib.c ****     *  Mode of the counter.  Same enumerated values as mode parameter used in
1114:.\Generated_Source\PSoC4/CyLib.c ****     *  CySysWdtWriteMode().
1115:.\Generated_Source\PSoC4/CyLib.c ****     *
1116:.\Generated_Source\PSoC4/CyLib.c ****     *******************************************************************************/
1117:.\Generated_Source\PSoC4/CyLib.c ****     uint32 CySysWdtReadMode(uint32 counterNum)
1118:.\Generated_Source\PSoC4/CyLib.c ****     {
 1021              		.loc 1 1118 0
 1022              		.cfi_startproc
 1023 0000 80B5     		push	{r7, lr}
 1024              		.cfi_def_cfa_offset 8
 1025              		.cfi_offset 7, -8
 1026              		.cfi_offset 14, -4
 1027 0002 82B0     		sub	sp, sp, #8
 1028              		.cfi_def_cfa_offset 16
 1029 0004 00AF     		add	r7, sp, #0
 1030              		.cfi_def_cfa_register 7
 1031 0006 7860     		str	r0, [r7, #4]
1119:.\Generated_Source\PSoC4/CyLib.c ****         return ((CY_SYS_WDT_CONFIG_REG >> (counterNum * CY_SYS_WDT_CNT_SHIFT)) & CY_SYS_WDT_MODE_MA
 1032              		.loc 1 1119 0
 1033 0008 054B     		ldr	r3, .L64
 1034 000a 1A68     		ldr	r2, [r3]
 1035 000c 7B68     		ldr	r3, [r7, #4]
 1036 000e DB00     		lsl	r3, r3, #3
 1037 0010 DA40     		lsr	r2, r2, r3
 1038 0012 0323     		mov	r3, #3
 1039 0014 1340     		and	r3, r2
ARM GAS  C:\DOCUME~1\Owner\LOCALS~1\Temp\cc3gLjSb.s 			page 39


1120:.\Generated_Source\PSoC4/CyLib.c ****     }
 1040              		.loc 1 1120 0
 1041 0016 181C     		mov	r0, r3
 1042 0018 BD46     		mov	sp, r7
 1043 001a 02B0     		add	sp, sp, #8
 1044              		@ sp needed
 1045 001c 80BD     		pop	{r7, pc}
 1046              	.L65:
 1047 001e C046     		.align	2
 1048              	.L64:
 1049 0020 0C020B40 		.word	1074463244
 1050              		.cfi_endproc
 1051              	.LFE13:
 1052              		.size	CySysWdtReadMode, .-CySysWdtReadMode
 1053              		.section	.text.CySysWdtWriteClearOnMatch,"ax",%progbits
 1054              		.align	2
 1055              		.global	CySysWdtWriteClearOnMatch
 1056              		.code	16
 1057              		.thumb_func
 1058              		.type	CySysWdtWriteClearOnMatch, %function
 1059              	CySysWdtWriteClearOnMatch:
 1060              	.LFB14:
1121:.\Generated_Source\PSoC4/CyLib.c **** 
1122:.\Generated_Source\PSoC4/CyLib.c **** 
1123:.\Generated_Source\PSoC4/CyLib.c ****     /*******************************************************************************
1124:.\Generated_Source\PSoC4/CyLib.c ****     * Function Name: CySysWdtWriteClearOnMatch
1125:.\Generated_Source\PSoC4/CyLib.c ****     ********************************************************************************
1126:.\Generated_Source\PSoC4/CyLib.c ****     *
1127:.\Generated_Source\PSoC4/CyLib.c ****     * Summary:
1128:.\Generated_Source\PSoC4/CyLib.c ****     *  Configures the WDT counter clear on a match setting.  If configured to clear
1129:.\Generated_Source\PSoC4/CyLib.c ****     *  on match, the counter will count from 0 to the MatchValue giving it a
1130:.\Generated_Source\PSoC4/CyLib.c ****     *  period of (MatchValue + 1).
1131:.\Generated_Source\PSoC4/CyLib.c ****     *
1132:.\Generated_Source\PSoC4/CyLib.c ****     * Parameters:
1133:.\Generated_Source\PSoC4/CyLib.c ****     *  counterNum:
1134:.\Generated_Source\PSoC4/CyLib.c ****     *   Valid range [0-1].  Number of the WDT counter.  Match values are not
1135:.\Generated_Source\PSoC4/CyLib.c ****     *   supported by counter 2.
1136:.\Generated_Source\PSoC4/CyLib.c ****     *
1137:.\Generated_Source\PSoC4/CyLib.c ****     * enable:
1138:.\Generated_Source\PSoC4/CyLib.c ****     *   0 to disable, 1 to enable
1139:.\Generated_Source\PSoC4/CyLib.c ****     *
1140:.\Generated_Source\PSoC4/CyLib.c ****     * Return:
1141:.\Generated_Source\PSoC4/CyLib.c ****     *   None
1142:.\Generated_Source\PSoC4/CyLib.c ****     *
1143:.\Generated_Source\PSoC4/CyLib.c ****     * Side Effects:
1144:.\Generated_Source\PSoC4/CyLib.c ****     *   WDT counter counterNum should be disabled. Otherwise this function call will
1145:.\Generated_Source\PSoC4/CyLib.c ****     *   have no effect. If the specified counter is enabled, call CySysWdtDisable()
1146:.\Generated_Source\PSoC4/CyLib.c ****     *   function with the corresponding parameter to disable specified counter and
1147:.\Generated_Source\PSoC4/CyLib.c ****     *   wait for it to stop. This may take up to three LFCLK cycles.
1148:.\Generated_Source\PSoC4/CyLib.c ****     *
1149:.\Generated_Source\PSoC4/CyLib.c ****     *******************************************************************************/
1150:.\Generated_Source\PSoC4/CyLib.c ****     void CySysWdtWriteClearOnMatch(uint32 counterNum, uint32 enable)
1151:.\Generated_Source\PSoC4/CyLib.c ****     {
 1061              		.loc 1 1151 0
 1062              		.cfi_startproc
 1063 0000 80B5     		push	{r7, lr}
 1064              		.cfi_def_cfa_offset 8
ARM GAS  C:\DOCUME~1\Owner\LOCALS~1\Temp\cc3gLjSb.s 			page 40


 1065              		.cfi_offset 7, -8
 1066              		.cfi_offset 14, -4
 1067 0002 84B0     		sub	sp, sp, #16
 1068              		.cfi_def_cfa_offset 24
 1069 0004 00AF     		add	r7, sp, #0
 1070              		.cfi_def_cfa_register 7
 1071 0006 7860     		str	r0, [r7, #4]
 1072 0008 3960     		str	r1, [r7]
1152:.\Generated_Source\PSoC4/CyLib.c ****         uint32 configRegValue;
1153:.\Generated_Source\PSoC4/CyLib.c **** 
1154:.\Generated_Source\PSoC4/CyLib.c ****         CYASSERT((counterNum == CY_SYS_WDT_COUNTER0) ||
 1073              		.loc 1 1154 0
 1074 000a 7B68     		ldr	r3, [r7, #4]
 1075 000c 002B     		cmp	r3, #0
 1076 000e 02D0     		beq	.L67
 1077              		.loc 1 1154 0 is_stmt 0 discriminator 2
 1078 0010 7B68     		ldr	r3, [r7, #4]
 1079 0012 012B     		cmp	r3, #1
 1080 0014 01D1     		bne	.L68
 1081              	.L67:
 1082              		.loc 1 1154 0 discriminator 1
 1083 0016 0123     		mov	r3, #1
 1084 0018 00E0     		b	.L69
 1085              	.L68:
 1086              		.loc 1 1154 0 discriminator 3
 1087 001a 0023     		mov	r3, #0
 1088              	.L69:
 1089              		.loc 1 1154 0 discriminator 4
 1090 001c 002B     		cmp	r3, #0
 1091 001e 02D1     		bne	.L70
 1092              		.loc 1 1154 0 discriminator 1
 1093 0020 0020     		mov	r0, #0
 1094 0022 FFF7FEFF 		bl	CyHalt
 1095              	.L70:
1155:.\Generated_Source\PSoC4/CyLib.c ****                  (counterNum == CY_SYS_WDT_COUNTER1));
1156:.\Generated_Source\PSoC4/CyLib.c **** 
1157:.\Generated_Source\PSoC4/CyLib.c ****         if(0u == CySysWdtReadEnabledStatus(counterNum))
 1096              		.loc 1 1157 0 is_stmt 1
 1097 0026 7B68     		ldr	r3, [r7, #4]
 1098 0028 181C     		mov	r0, r3
 1099 002a FFF7FEFF 		bl	CySysWdtReadEnabledStatus
 1100 002e 031C     		mov	r3, r0
 1101 0030 002B     		cmp	r3, #0
 1102 0032 18D1     		bne	.L66
1158:.\Generated_Source\PSoC4/CyLib.c ****         {
1159:.\Generated_Source\PSoC4/CyLib.c ****             configRegValue = CY_SYS_WDT_CONFIG_REG &
 1103              		.loc 1 1159 0
 1104 0034 0D4B     		ldr	r3, .L72
 1105 0036 1B68     		ldr	r3, [r3]
1160:.\Generated_Source\PSoC4/CyLib.c ****                 (uint32)~((uint32)((uint32)1u << ((counterNum * CY_SYS_WDT_CNT_SHIFT) + CY_SYS_WDT_
 1106              		.loc 1 1160 0
 1107 0038 7A68     		ldr	r2, [r7, #4]
 1108 003a D200     		lsl	r2, r2, #3
 1109 003c 0232     		add	r2, r2, #2
 1110 003e 0121     		mov	r1, #1
 1111 0040 081C     		mov	r0, r1
 1112 0042 9040     		lsl	r0, r0, r2
ARM GAS  C:\DOCUME~1\Owner\LOCALS~1\Temp\cc3gLjSb.s 			page 41


 1113 0044 021C     		mov	r2, r0
 1114 0046 D243     		mvn	r2, r2
1159:.\Generated_Source\PSoC4/CyLib.c ****             configRegValue = CY_SYS_WDT_CONFIG_REG &
 1115              		.loc 1 1159 0
 1116 0048 1340     		and	r3, r2
 1117 004a FB60     		str	r3, [r7, #12]
1161:.\Generated_Source\PSoC4/CyLib.c **** 
1162:.\Generated_Source\PSoC4/CyLib.c ****             configRegValue
1163:.\Generated_Source\PSoC4/CyLib.c ****                 |= (uint32)(enable << ((counterNum * CY_SYS_WDT_CNT_SHIFT) + CY_SYS_WDT_CNT_MATCH_C
 1118              		.loc 1 1163 0
 1119 004c 7B68     		ldr	r3, [r7, #4]
 1120 004e DB00     		lsl	r3, r3, #3
 1121 0050 0233     		add	r3, r3, #2
 1122 0052 3A68     		ldr	r2, [r7]
 1123 0054 111C     		mov	r1, r2
 1124 0056 9940     		lsl	r1, r1, r3
 1125 0058 0B1C     		mov	r3, r1
 1126 005a FA68     		ldr	r2, [r7, #12]
 1127 005c 1343     		orr	r3, r2
 1128 005e FB60     		str	r3, [r7, #12]
1164:.\Generated_Source\PSoC4/CyLib.c **** 
1165:.\Generated_Source\PSoC4/CyLib.c ****             CY_SYS_WDT_CONFIG_REG = configRegValue;
 1129              		.loc 1 1165 0
 1130 0060 024B     		ldr	r3, .L72
 1131 0062 FA68     		ldr	r2, [r7, #12]
 1132 0064 1A60     		str	r2, [r3]
 1133              	.L66:
1166:.\Generated_Source\PSoC4/CyLib.c ****         }
1167:.\Generated_Source\PSoC4/CyLib.c ****     }
 1134              		.loc 1 1167 0
 1135 0066 BD46     		mov	sp, r7
 1136 0068 04B0     		add	sp, sp, #16
 1137              		@ sp needed
 1138 006a 80BD     		pop	{r7, pc}
 1139              	.L73:
 1140              		.align	2
 1141              	.L72:
 1142 006c 0C020B40 		.word	1074463244
 1143              		.cfi_endproc
 1144              	.LFE14:
 1145              		.size	CySysWdtWriteClearOnMatch, .-CySysWdtWriteClearOnMatch
 1146              		.section	.text.CySysWdtReadClearOnMatch,"ax",%progbits
 1147              		.align	2
 1148              		.global	CySysWdtReadClearOnMatch
 1149              		.code	16
 1150              		.thumb_func
 1151              		.type	CySysWdtReadClearOnMatch, %function
 1152              	CySysWdtReadClearOnMatch:
 1153              	.LFB15:
1168:.\Generated_Source\PSoC4/CyLib.c **** 
1169:.\Generated_Source\PSoC4/CyLib.c **** 
1170:.\Generated_Source\PSoC4/CyLib.c ****     /*******************************************************************************
1171:.\Generated_Source\PSoC4/CyLib.c ****     * Function Name: CySysWdtReadClearOnMatch
1172:.\Generated_Source\PSoC4/CyLib.c ****     ********************************************************************************
1173:.\Generated_Source\PSoC4/CyLib.c ****     *
1174:.\Generated_Source\PSoC4/CyLib.c ****     * Summary:
1175:.\Generated_Source\PSoC4/CyLib.c ****     *  Reads the clear on match setting for the specified counter.
ARM GAS  C:\DOCUME~1\Owner\LOCALS~1\Temp\cc3gLjSb.s 			page 42


1176:.\Generated_Source\PSoC4/CyLib.c ****     *
1177:.\Generated_Source\PSoC4/CyLib.c ****     * Parameters:
1178:.\Generated_Source\PSoC4/CyLib.c ****     *   counterNum: Valid range [0-1].  Number of the WDT counter.  Match values are
1179:.\Generated_Source\PSoC4/CyLib.c ****     *               not supported by counter 2.
1180:.\Generated_Source\PSoC4/CyLib.c ****     *
1181:.\Generated_Source\PSoC4/CyLib.c ****     * Return:
1182:.\Generated_Source\PSoC4/CyLib.c ****     *   Clear on Match status: 1 if enabled, 0 if disabled
1183:.\Generated_Source\PSoC4/CyLib.c ****     *
1184:.\Generated_Source\PSoC4/CyLib.c ****     *******************************************************************************/
1185:.\Generated_Source\PSoC4/CyLib.c ****     uint32 CySysWdtReadClearOnMatch(uint32 counterNum)
1186:.\Generated_Source\PSoC4/CyLib.c ****     {
 1154              		.loc 1 1186 0
 1155              		.cfi_startproc
 1156 0000 80B5     		push	{r7, lr}
 1157              		.cfi_def_cfa_offset 8
 1158              		.cfi_offset 7, -8
 1159              		.cfi_offset 14, -4
 1160 0002 82B0     		sub	sp, sp, #8
 1161              		.cfi_def_cfa_offset 16
 1162 0004 00AF     		add	r7, sp, #0
 1163              		.cfi_def_cfa_register 7
 1164 0006 7860     		str	r0, [r7, #4]
1187:.\Generated_Source\PSoC4/CyLib.c ****         CYASSERT((counterNum == CY_SYS_WDT_COUNTER0) ||
 1165              		.loc 1 1187 0
 1166 0008 7B68     		ldr	r3, [r7, #4]
 1167 000a 002B     		cmp	r3, #0
 1168 000c 02D0     		beq	.L75
 1169              		.loc 1 1187 0 is_stmt 0 discriminator 2
 1170 000e 7B68     		ldr	r3, [r7, #4]
 1171 0010 012B     		cmp	r3, #1
 1172 0012 01D1     		bne	.L76
 1173              	.L75:
 1174              		.loc 1 1187 0 discriminator 1
 1175 0014 0123     		mov	r3, #1
 1176 0016 00E0     		b	.L77
 1177              	.L76:
 1178              		.loc 1 1187 0 discriminator 3
 1179 0018 0023     		mov	r3, #0
 1180              	.L77:
 1181              		.loc 1 1187 0 discriminator 4
 1182 001a 002B     		cmp	r3, #0
 1183 001c 02D1     		bne	.L78
 1184              		.loc 1 1187 0 discriminator 1
 1185 001e 0020     		mov	r0, #0
 1186 0020 FFF7FEFF 		bl	CyHalt
 1187              	.L78:
1188:.\Generated_Source\PSoC4/CyLib.c ****                  (counterNum == CY_SYS_WDT_COUNTER1));
1189:.\Generated_Source\PSoC4/CyLib.c **** 
1190:.\Generated_Source\PSoC4/CyLib.c ****         return (uint32)((CY_SYS_WDT_CONFIG_REG >>
 1188              		.loc 1 1190 0 is_stmt 1
 1189 0024 054B     		ldr	r3, .L80
 1190 0026 1A68     		ldr	r2, [r3]
1191:.\Generated_Source\PSoC4/CyLib.c ****                         ((counterNum * CY_SYS_WDT_CNT_SHIFT) + CY_SYS_WDT_CNT_MATCH_CLR_SHIFT)) & 0
 1191              		.loc 1 1191 0
 1192 0028 7B68     		ldr	r3, [r7, #4]
 1193 002a DB00     		lsl	r3, r3, #3
 1194 002c 0233     		add	r3, r3, #2
ARM GAS  C:\DOCUME~1\Owner\LOCALS~1\Temp\cc3gLjSb.s 			page 43


1190:.\Generated_Source\PSoC4/CyLib.c ****         return (uint32)((CY_SYS_WDT_CONFIG_REG >>
 1195              		.loc 1 1190 0
 1196 002e DA40     		lsr	r2, r2, r3
 1197 0030 0123     		mov	r3, #1
 1198 0032 1340     		and	r3, r2
1192:.\Generated_Source\PSoC4/CyLib.c ****     }
 1199              		.loc 1 1192 0
 1200 0034 181C     		mov	r0, r3
 1201 0036 BD46     		mov	sp, r7
 1202 0038 02B0     		add	sp, sp, #8
 1203              		@ sp needed
 1204 003a 80BD     		pop	{r7, pc}
 1205              	.L81:
 1206              		.align	2
 1207              	.L80:
 1208 003c 0C020B40 		.word	1074463244
 1209              		.cfi_endproc
 1210              	.LFE15:
 1211              		.size	CySysWdtReadClearOnMatch, .-CySysWdtReadClearOnMatch
 1212              		.section	.text.CySysWdtEnable,"ax",%progbits
 1213              		.align	2
 1214              		.global	CySysWdtEnable
 1215              		.code	16
 1216              		.thumb_func
 1217              		.type	CySysWdtEnable, %function
 1218              	CySysWdtEnable:
 1219              	.LFB16:
1193:.\Generated_Source\PSoC4/CyLib.c **** 
1194:.\Generated_Source\PSoC4/CyLib.c **** 
1195:.\Generated_Source\PSoC4/CyLib.c ****     /*******************************************************************************
1196:.\Generated_Source\PSoC4/CyLib.c ****     * Function Name: CySysWdtEnable
1197:.\Generated_Source\PSoC4/CyLib.c ****     ********************************************************************************
1198:.\Generated_Source\PSoC4/CyLib.c ****     *
1199:.\Generated_Source\PSoC4/CyLib.c ****     * Summary:
1200:.\Generated_Source\PSoC4/CyLib.c ****     *  Enables the specified WDT counters.  All the counters specified in the mask are
1201:.\Generated_Source\PSoC4/CyLib.c ****     *  enabled.
1202:.\Generated_Source\PSoC4/CyLib.c ****     *
1203:.\Generated_Source\PSoC4/CyLib.c ****     * Parameters:
1204:.\Generated_Source\PSoC4/CyLib.c ****     *  counterMask: Mask of all counters to enable
1205:.\Generated_Source\PSoC4/CyLib.c ****     *       Define                       Counter
1206:.\Generated_Source\PSoC4/CyLib.c ****     *      CY_SYS_WDT_COUNTER0_MASK      0
1207:.\Generated_Source\PSoC4/CyLib.c ****     *      CY_SYS_WDT_COUNTER1_MASK      1
1208:.\Generated_Source\PSoC4/CyLib.c ****     *      CY_SYS_WDT_COUNTER2_MASK      2
1209:.\Generated_Source\PSoC4/CyLib.c ****     *
1210:.\Generated_Source\PSoC4/CyLib.c ****     * Return:
1211:.\Generated_Source\PSoC4/CyLib.c ****     *  None
1212:.\Generated_Source\PSoC4/CyLib.c ****     *
1213:.\Generated_Source\PSoC4/CyLib.c ****     * Side Effects:
1214:.\Generated_Source\PSoC4/CyLib.c ****     *  Enabling or disabling a WDT requires 3 LFCLK cycles to come into effect.
1215:.\Generated_Source\PSoC4/CyLib.c ****     *  Therefore, the WDT enable state must not be changed more than once in
1216:.\Generated_Source\PSoC4/CyLib.c ****     *  that period.
1217:.\Generated_Source\PSoC4/CyLib.c ****     *
1218:.\Generated_Source\PSoC4/CyLib.c ****     *  After WDT is enabled, it is illegal to write WDT configuration (WDT_CONFIG)
1219:.\Generated_Source\PSoC4/CyLib.c ****     *  and control (WDT_CONTROL) registers. That means that all WDT functions that
1220:.\Generated_Source\PSoC4/CyLib.c ****     *  contain 'write' in the name (with the exception of CySysWdtWriteMatch()
1221:.\Generated_Source\PSoC4/CyLib.c ****     *  function) are illegal to call once WDT enabled.
1222:.\Generated_Source\PSoC4/CyLib.c ****     *
ARM GAS  C:\DOCUME~1\Owner\LOCALS~1\Temp\cc3gLjSb.s 			page 44


1223:.\Generated_Source\PSoC4/CyLib.c ****     *  PSoC 4100 / PSoC 4200:
1224:.\Generated_Source\PSoC4/CyLib.c ****     *  This function enables the ILO.
1225:.\Generated_Source\PSoC4/CyLib.c ****     *
1226:.\Generated_Source\PSoC4/CyLib.c ****     *  PSoC 4100-BL / PSoC 4200-BL:
1227:.\Generated_Source\PSoC4/CyLib.c ****     *  The LFLCK should be configured before calling this function. The desired
1228:.\Generated_Source\PSoC4/CyLib.c ****     *  source should be enabled and configured to be the source for the LFCLK.
1229:.\Generated_Source\PSoC4/CyLib.c ****     *
1230:.\Generated_Source\PSoC4/CyLib.c ****     *******************************************************************************/
1231:.\Generated_Source\PSoC4/CyLib.c ****     void CySysWdtEnable(uint32 counterMask)
1232:.\Generated_Source\PSoC4/CyLib.c ****     {
 1220              		.loc 1 1232 0
 1221              		.cfi_startproc
 1222 0000 80B5     		push	{r7, lr}
 1223              		.cfi_def_cfa_offset 8
 1224              		.cfi_offset 7, -8
 1225              		.cfi_offset 14, -4
 1226 0002 82B0     		sub	sp, sp, #8
 1227              		.cfi_def_cfa_offset 16
 1228 0004 00AF     		add	r7, sp, #0
 1229              		.cfi_def_cfa_register 7
 1230 0006 7860     		str	r0, [r7, #4]
1233:.\Generated_Source\PSoC4/CyLib.c ****         #if (!CY_IP_WCO)
1234:.\Generated_Source\PSoC4/CyLib.c ****             CySysClkIloStart();
 1231              		.loc 1 1234 0
 1232 0008 FFF7FEFF 		bl	CySysClkIloStart
1235:.\Generated_Source\PSoC4/CyLib.c ****         #endif /* (!CY_IP_WCO) */
1236:.\Generated_Source\PSoC4/CyLib.c **** 
1237:.\Generated_Source\PSoC4/CyLib.c ****         CY_SYS_WDT_CONTROL_REG |= counterMask;
 1233              		.loc 1 1237 0
 1234 000c 154B     		ldr	r3, .L89
 1235 000e 154A     		ldr	r2, .L89
 1236 0010 1168     		ldr	r1, [r2]
 1237 0012 7A68     		ldr	r2, [r7, #4]
 1238 0014 0A43     		orr	r2, r1
 1239 0016 1A60     		str	r2, [r3]
1238:.\Generated_Source\PSoC4/CyLib.c **** 
1239:.\Generated_Source\PSoC4/CyLib.c ****         if(0u != (counterMask & CY_SYS_WDT_COUNTER0_MASK))
 1240              		.loc 1 1239 0
 1241 0018 7A68     		ldr	r2, [r7, #4]
 1242 001a 0123     		mov	r3, #1
 1243 001c 1340     		and	r3, r2
 1244 001e 06D0     		beq	.L83
1240:.\Generated_Source\PSoC4/CyLib.c ****         {
1241:.\Generated_Source\PSoC4/CyLib.c ****             while (0u == CySysWdtReadEnabledStatus(CY_SYS_WDT_COUNTER0))
 1245              		.loc 1 1241 0
 1246 0020 C046     		mov	r8, r8
 1247              	.L84:
 1248              		.loc 1 1241 0 is_stmt 0 discriminator 1
 1249 0022 0020     		mov	r0, #0
 1250 0024 FFF7FEFF 		bl	CySysWdtReadEnabledStatus
 1251 0028 031C     		mov	r3, r0
 1252 002a 002B     		cmp	r3, #0
 1253 002c F9D0     		beq	.L84
 1254              	.L83:
1242:.\Generated_Source\PSoC4/CyLib.c ****             {
1243:.\Generated_Source\PSoC4/CyLib.c ****                 /* Wait for the changes to come into effect */
1244:.\Generated_Source\PSoC4/CyLib.c ****             }
ARM GAS  C:\DOCUME~1\Owner\LOCALS~1\Temp\cc3gLjSb.s 			page 45


1245:.\Generated_Source\PSoC4/CyLib.c ****         }
1246:.\Generated_Source\PSoC4/CyLib.c **** 
1247:.\Generated_Source\PSoC4/CyLib.c ****         if(0u != (counterMask & CY_SYS_WDT_COUNTER1_MASK))
 1255              		.loc 1 1247 0 is_stmt 1
 1256 002e 7A68     		ldr	r2, [r7, #4]
 1257 0030 8023     		mov	r3, #128
 1258 0032 5B00     		lsl	r3, r3, #1
 1259 0034 1340     		and	r3, r2
 1260 0036 06D0     		beq	.L85
1248:.\Generated_Source\PSoC4/CyLib.c ****         {
1249:.\Generated_Source\PSoC4/CyLib.c ****             while (0u == CySysWdtReadEnabledStatus(CY_SYS_WDT_COUNTER1))
 1261              		.loc 1 1249 0
 1262 0038 C046     		mov	r8, r8
 1263              	.L86:
 1264              		.loc 1 1249 0 is_stmt 0 discriminator 1
 1265 003a 0120     		mov	r0, #1
 1266 003c FFF7FEFF 		bl	CySysWdtReadEnabledStatus
 1267 0040 031C     		mov	r3, r0
 1268 0042 002B     		cmp	r3, #0
 1269 0044 F9D0     		beq	.L86
 1270              	.L85:
1250:.\Generated_Source\PSoC4/CyLib.c ****             {
1251:.\Generated_Source\PSoC4/CyLib.c ****                 /* Wait for the changes to come into effect */
1252:.\Generated_Source\PSoC4/CyLib.c ****             }
1253:.\Generated_Source\PSoC4/CyLib.c ****         }
1254:.\Generated_Source\PSoC4/CyLib.c **** 
1255:.\Generated_Source\PSoC4/CyLib.c ****         if(0u != (counterMask & CY_SYS_WDT_COUNTER2_MASK))
 1271              		.loc 1 1255 0 is_stmt 1
 1272 0046 7A68     		ldr	r2, [r7, #4]
 1273 0048 8023     		mov	r3, #128
 1274 004a 5B02     		lsl	r3, r3, #9
 1275 004c 1340     		and	r3, r2
 1276 004e 06D0     		beq	.L82
1256:.\Generated_Source\PSoC4/CyLib.c ****         {
1257:.\Generated_Source\PSoC4/CyLib.c ****             while (0u == CySysWdtReadEnabledStatus(CY_SYS_WDT_COUNTER2))
 1277              		.loc 1 1257 0
 1278 0050 C046     		mov	r8, r8
 1279              	.L88:
 1280              		.loc 1 1257 0 is_stmt 0 discriminator 1
 1281 0052 0220     		mov	r0, #2
 1282 0054 FFF7FEFF 		bl	CySysWdtReadEnabledStatus
 1283 0058 031C     		mov	r3, r0
 1284 005a 002B     		cmp	r3, #0
 1285 005c F9D0     		beq	.L88
 1286              	.L82:
1258:.\Generated_Source\PSoC4/CyLib.c ****             {
1259:.\Generated_Source\PSoC4/CyLib.c ****                 /* Wait for the changes to come into effect */
1260:.\Generated_Source\PSoC4/CyLib.c ****             }
1261:.\Generated_Source\PSoC4/CyLib.c ****         }
1262:.\Generated_Source\PSoC4/CyLib.c ****     }
 1287              		.loc 1 1262 0 is_stmt 1
 1288 005e BD46     		mov	sp, r7
 1289 0060 02B0     		add	sp, sp, #8
 1290              		@ sp needed
 1291 0062 80BD     		pop	{r7, pc}
 1292              	.L90:
 1293              		.align	2
ARM GAS  C:\DOCUME~1\Owner\LOCALS~1\Temp\cc3gLjSb.s 			page 46


 1294              	.L89:
 1295 0064 10020B40 		.word	1074463248
 1296              		.cfi_endproc
 1297              	.LFE16:
 1298              		.size	CySysWdtEnable, .-CySysWdtEnable
 1299              		.section	.text.CySysWdtDisable,"ax",%progbits
 1300              		.align	2
 1301              		.global	CySysWdtDisable
 1302              		.code	16
 1303              		.thumb_func
 1304              		.type	CySysWdtDisable, %function
 1305              	CySysWdtDisable:
 1306              	.LFB17:
1263:.\Generated_Source\PSoC4/CyLib.c **** 
1264:.\Generated_Source\PSoC4/CyLib.c **** 
1265:.\Generated_Source\PSoC4/CyLib.c ****     /*******************************************************************************
1266:.\Generated_Source\PSoC4/CyLib.c ****     * Function Name: CySysWdtDisable
1267:.\Generated_Source\PSoC4/CyLib.c ****     ********************************************************************************
1268:.\Generated_Source\PSoC4/CyLib.c ****     *
1269:.\Generated_Source\PSoC4/CyLib.c ****     * Summary:
1270:.\Generated_Source\PSoC4/CyLib.c ****     *  Disables the specified WDT counters. All the counters specified in the mask
1271:.\Generated_Source\PSoC4/CyLib.c ****     *  are disabled. The function waits for the changes to come into effect.
1272:.\Generated_Source\PSoC4/CyLib.c ****     *
1273:.\Generated_Source\PSoC4/CyLib.c ****     * Parameters:
1274:.\Generated_Source\PSoC4/CyLib.c ****     *  uint32 counterMask: Mask of all counters to disable
1275:.\Generated_Source\PSoC4/CyLib.c ****     *    Define                       Counter
1276:.\Generated_Source\PSoC4/CyLib.c ****     *   CY_SYS_WDT_COUNTER0_MASK      0
1277:.\Generated_Source\PSoC4/CyLib.c ****     *   CY_SYS_WDT_COUNTER1_MASK      1
1278:.\Generated_Source\PSoC4/CyLib.c ****     *   CY_SYS_WDT_COUNTER2_MASK      2
1279:.\Generated_Source\PSoC4/CyLib.c ****     *
1280:.\Generated_Source\PSoC4/CyLib.c ****     * Return:
1281:.\Generated_Source\PSoC4/CyLib.c ****     *   None
1282:.\Generated_Source\PSoC4/CyLib.c ****     *
1283:.\Generated_Source\PSoC4/CyLib.c ****     *******************************************************************************/
1284:.\Generated_Source\PSoC4/CyLib.c ****     void CySysWdtDisable(uint32 counterMask)
1285:.\Generated_Source\PSoC4/CyLib.c ****     {
 1307              		.loc 1 1285 0
 1308              		.cfi_startproc
 1309 0000 80B5     		push	{r7, lr}
 1310              		.cfi_def_cfa_offset 8
 1311              		.cfi_offset 7, -8
 1312              		.cfi_offset 14, -4
 1313 0002 82B0     		sub	sp, sp, #8
 1314              		.cfi_def_cfa_offset 16
 1315 0004 00AF     		add	r7, sp, #0
 1316              		.cfi_def_cfa_register 7
 1317 0006 7860     		str	r0, [r7, #4]
1286:.\Generated_Source\PSoC4/CyLib.c ****         CY_SYS_WDT_CONTROL_REG &= ~counterMask;
 1318              		.loc 1 1286 0
 1319 0008 164B     		ldr	r3, .L98
 1320 000a 164A     		ldr	r2, .L98
 1321 000c 1268     		ldr	r2, [r2]
 1322 000e 7968     		ldr	r1, [r7, #4]
 1323 0010 C943     		mvn	r1, r1
 1324 0012 0A40     		and	r2, r1
 1325 0014 1A60     		str	r2, [r3]
1287:.\Generated_Source\PSoC4/CyLib.c **** 
ARM GAS  C:\DOCUME~1\Owner\LOCALS~1\Temp\cc3gLjSb.s 			page 47


1288:.\Generated_Source\PSoC4/CyLib.c ****         if(0u != (counterMask & CY_SYS_WDT_COUNTER0_MASK))
 1326              		.loc 1 1288 0
 1327 0016 7A68     		ldr	r2, [r7, #4]
 1328 0018 0123     		mov	r3, #1
 1329 001a 1340     		and	r3, r2
 1330 001c 06D0     		beq	.L92
1289:.\Generated_Source\PSoC4/CyLib.c ****         {
1290:.\Generated_Source\PSoC4/CyLib.c ****             while (0u != CySysWdtReadEnabledStatus(CY_SYS_WDT_COUNTER0))
 1331              		.loc 1 1290 0
 1332 001e C046     		mov	r8, r8
 1333              	.L93:
 1334              		.loc 1 1290 0 is_stmt 0 discriminator 1
 1335 0020 0020     		mov	r0, #0
 1336 0022 FFF7FEFF 		bl	CySysWdtReadEnabledStatus
 1337 0026 031C     		mov	r3, r0
 1338 0028 002B     		cmp	r3, #0
 1339 002a F9D1     		bne	.L93
 1340              	.L92:
1291:.\Generated_Source\PSoC4/CyLib.c ****             {
1292:.\Generated_Source\PSoC4/CyLib.c ****                 /* Wait for the changes to come into effect */
1293:.\Generated_Source\PSoC4/CyLib.c ****             }
1294:.\Generated_Source\PSoC4/CyLib.c ****         }
1295:.\Generated_Source\PSoC4/CyLib.c **** 
1296:.\Generated_Source\PSoC4/CyLib.c ****         if(0u != (counterMask & CY_SYS_WDT_COUNTER1_MASK))
 1341              		.loc 1 1296 0 is_stmt 1
 1342 002c 7A68     		ldr	r2, [r7, #4]
 1343 002e 8023     		mov	r3, #128
 1344 0030 5B00     		lsl	r3, r3, #1
 1345 0032 1340     		and	r3, r2
 1346 0034 06D0     		beq	.L94
1297:.\Generated_Source\PSoC4/CyLib.c ****         {
1298:.\Generated_Source\PSoC4/CyLib.c ****             while (0u != CySysWdtReadEnabledStatus(CY_SYS_WDT_COUNTER1))
 1347              		.loc 1 1298 0
 1348 0036 C046     		mov	r8, r8
 1349              	.L95:
 1350              		.loc 1 1298 0 is_stmt 0 discriminator 1
 1351 0038 0120     		mov	r0, #1
 1352 003a FFF7FEFF 		bl	CySysWdtReadEnabledStatus
 1353 003e 031C     		mov	r3, r0
 1354 0040 002B     		cmp	r3, #0
 1355 0042 F9D1     		bne	.L95
 1356              	.L94:
1299:.\Generated_Source\PSoC4/CyLib.c ****             {
1300:.\Generated_Source\PSoC4/CyLib.c ****                 /* Wait for the changes to come into effect */
1301:.\Generated_Source\PSoC4/CyLib.c ****             }
1302:.\Generated_Source\PSoC4/CyLib.c ****         }
1303:.\Generated_Source\PSoC4/CyLib.c **** 
1304:.\Generated_Source\PSoC4/CyLib.c ****         if(0u != (counterMask & CY_SYS_WDT_COUNTER2_MASK))
 1357              		.loc 1 1304 0 is_stmt 1
 1358 0044 7A68     		ldr	r2, [r7, #4]
 1359 0046 8023     		mov	r3, #128
 1360 0048 5B02     		lsl	r3, r3, #9
 1361 004a 1340     		and	r3, r2
 1362 004c 06D0     		beq	.L91
1305:.\Generated_Source\PSoC4/CyLib.c ****         {
1306:.\Generated_Source\PSoC4/CyLib.c ****             while (0u != CySysWdtReadEnabledStatus(CY_SYS_WDT_COUNTER2))
 1363              		.loc 1 1306 0
ARM GAS  C:\DOCUME~1\Owner\LOCALS~1\Temp\cc3gLjSb.s 			page 48


 1364 004e C046     		mov	r8, r8
 1365              	.L97:
 1366              		.loc 1 1306 0 is_stmt 0 discriminator 1
 1367 0050 0220     		mov	r0, #2
 1368 0052 FFF7FEFF 		bl	CySysWdtReadEnabledStatus
 1369 0056 031C     		mov	r3, r0
 1370 0058 002B     		cmp	r3, #0
 1371 005a F9D1     		bne	.L97
 1372              	.L91:
1307:.\Generated_Source\PSoC4/CyLib.c ****             {
1308:.\Generated_Source\PSoC4/CyLib.c ****                 /* Wait for the changes to come into effect */
1309:.\Generated_Source\PSoC4/CyLib.c ****             }
1310:.\Generated_Source\PSoC4/CyLib.c ****         }
1311:.\Generated_Source\PSoC4/CyLib.c ****     }
 1373              		.loc 1 1311 0 is_stmt 1
 1374 005c BD46     		mov	sp, r7
 1375 005e 02B0     		add	sp, sp, #8
 1376              		@ sp needed
 1377 0060 80BD     		pop	{r7, pc}
 1378              	.L99:
 1379 0062 C046     		.align	2
 1380              	.L98:
 1381 0064 10020B40 		.word	1074463248
 1382              		.cfi_endproc
 1383              	.LFE17:
 1384              		.size	CySysWdtDisable, .-CySysWdtDisable
 1385              		.section	.text.CySysWdtWriteCascade,"ax",%progbits
 1386              		.align	2
 1387              		.global	CySysWdtWriteCascade
 1388              		.code	16
 1389              		.thumb_func
 1390              		.type	CySysWdtWriteCascade, %function
 1391              	CySysWdtWriteCascade:
 1392              	.LFB18:
1312:.\Generated_Source\PSoC4/CyLib.c **** 
1313:.\Generated_Source\PSoC4/CyLib.c **** 
1314:.\Generated_Source\PSoC4/CyLib.c ****     /*******************************************************************************
1315:.\Generated_Source\PSoC4/CyLib.c ****     * Function Name: CySysWdtWriteCascade
1316:.\Generated_Source\PSoC4/CyLib.c ****     ********************************************************************************
1317:.\Generated_Source\PSoC4/CyLib.c ****     *
1318:.\Generated_Source\PSoC4/CyLib.c ****     * Summary:
1319:.\Generated_Source\PSoC4/CyLib.c ****     *   Writes the two WDT cascade values based on the combination of mask values
1320:.\Generated_Source\PSoC4/CyLib.c ****     *   specified.
1321:.\Generated_Source\PSoC4/CyLib.c ****     *
1322:.\Generated_Source\PSoC4/CyLib.c ****     * Parameters:
1323:.\Generated_Source\PSoC4/CyLib.c ****     *   cascadeMask: Mask value used to set or clear the cascade values.
1324:.\Generated_Source\PSoC4/CyLib.c ****     *   Define                     Cascade
1325:.\Generated_Source\PSoC4/CyLib.c ****     *   CY_SYS_WDT_CASCADE_NONE    Neither
1326:.\Generated_Source\PSoC4/CyLib.c ****     *   CY_SYS_WDT_CASCADE_01      Cascade 01
1327:.\Generated_Source\PSoC4/CyLib.c ****     *   CY_SYS_WDT_CASCADE_12      Cascade 12
1328:.\Generated_Source\PSoC4/CyLib.c ****     *
1329:.\Generated_Source\PSoC4/CyLib.c ****     *   To set both cascade modes, two defines should be ORed:
1330:.\Generated_Source\PSoC4/CyLib.c ****     *   (CY_SYS_WDT_CASCADE_01 | CY_SYS_WDT_CASCADE_12)
1331:.\Generated_Source\PSoC4/CyLib.c ****     *
1332:.\Generated_Source\PSoC4/CyLib.c ****     * Return:
1333:.\Generated_Source\PSoC4/CyLib.c ****     *   None
1334:.\Generated_Source\PSoC4/CyLib.c ****     *
ARM GAS  C:\DOCUME~1\Owner\LOCALS~1\Temp\cc3gLjSb.s 			page 49


1335:.\Generated_Source\PSoC4/CyLib.c ****     * Side effects:
1336:.\Generated_Source\PSoC4/CyLib.c ****     *   If only one cascade mask is specified, the second cascade is disabled.
1337:.\Generated_Source\PSoC4/CyLib.c ****     *   To set both cascade modes two defines should be ORed:
1338:.\Generated_Source\PSoC4/CyLib.c ****     *    (CY_SYS_WDT_CASCADE_01 | CY_SYS_WDT_CASCADE_12).
1339:.\Generated_Source\PSoC4/CyLib.c ****     *
1340:.\Generated_Source\PSoC4/CyLib.c ****     *   WDT counters that are part of the specified cascade, should be disabled.
1341:.\Generated_Source\PSoC4/CyLib.c ****     *   Otherwise this function call will have no effect. If the specified
1342:.\Generated_Source\PSoC4/CyLib.c ****     *   counter is enabled, call CySysWdtDisable() function with the corresponding
1343:.\Generated_Source\PSoC4/CyLib.c ****     *   parameter to disable specified counter and wait for it to stop. This may
1344:.\Generated_Source\PSoC4/CyLib.c ****     *   take up to 3 LFCLK cycles.
1345:.\Generated_Source\PSoC4/CyLib.c ****     *
1346:.\Generated_Source\PSoC4/CyLib.c ****     *******************************************************************************/
1347:.\Generated_Source\PSoC4/CyLib.c ****     void CySysWdtWriteCascade(uint32 cascadeMask)
1348:.\Generated_Source\PSoC4/CyLib.c ****     {
 1393              		.loc 1 1348 0
 1394              		.cfi_startproc
 1395 0000 90B5     		push	{r4, r7, lr}
 1396              		.cfi_def_cfa_offset 12
 1397              		.cfi_offset 4, -12
 1398              		.cfi_offset 7, -8
 1399              		.cfi_offset 14, -4
 1400 0002 85B0     		sub	sp, sp, #20
 1401              		.cfi_def_cfa_offset 32
 1402 0004 00AF     		add	r7, sp, #0
 1403              		.cfi_def_cfa_register 7
 1404 0006 7860     		str	r0, [r7, #4]
1349:.\Generated_Source\PSoC4/CyLib.c ****         uint32 configRegValue;
1350:.\Generated_Source\PSoC4/CyLib.c ****         uint32 countersEnableStatus;
1351:.\Generated_Source\PSoC4/CyLib.c **** 
1352:.\Generated_Source\PSoC4/CyLib.c ****         countersEnableStatus = CySysWdtReadEnabledStatus(CY_SYS_WDT_COUNTER0) |
 1405              		.loc 1 1352 0
 1406 0008 0020     		mov	r0, #0
 1407 000a FFF7FEFF 		bl	CySysWdtReadEnabledStatus
 1408 000e 041C     		mov	r4, r0
1353:.\Generated_Source\PSoC4/CyLib.c ****                             CySysWdtReadEnabledStatus(CY_SYS_WDT_COUNTER1) |
 1409              		.loc 1 1353 0
 1410 0010 0120     		mov	r0, #1
 1411 0012 FFF7FEFF 		bl	CySysWdtReadEnabledStatus
 1412 0016 031C     		mov	r3, r0
1352:.\Generated_Source\PSoC4/CyLib.c ****         countersEnableStatus = CySysWdtReadEnabledStatus(CY_SYS_WDT_COUNTER0) |
 1413              		.loc 1 1352 0
 1414 0018 1C43     		orr	r4, r3
1354:.\Generated_Source\PSoC4/CyLib.c ****                             CySysWdtReadEnabledStatus(CY_SYS_WDT_COUNTER2);
 1415              		.loc 1 1354 0
 1416 001a 0220     		mov	r0, #2
 1417 001c FFF7FEFF 		bl	CySysWdtReadEnabledStatus
 1418 0020 031C     		mov	r3, r0
1352:.\Generated_Source\PSoC4/CyLib.c ****         countersEnableStatus = CySysWdtReadEnabledStatus(CY_SYS_WDT_COUNTER0) |
 1419              		.loc 1 1352 0
 1420 0022 2343     		orr	r3, r4
 1421 0024 FB60     		str	r3, [r7, #12]
1355:.\Generated_Source\PSoC4/CyLib.c **** 
1356:.\Generated_Source\PSoC4/CyLib.c ****         if (0u == countersEnableStatus)
 1422              		.loc 1 1356 0
 1423 0026 FB68     		ldr	r3, [r7, #12]
 1424 0028 002B     		cmp	r3, #0
 1425 002a 0DD1     		bne	.L100
ARM GAS  C:\DOCUME~1\Owner\LOCALS~1\Temp\cc3gLjSb.s 			page 50


1357:.\Generated_Source\PSoC4/CyLib.c ****         {
1358:.\Generated_Source\PSoC4/CyLib.c ****             configRegValue = CY_SYS_WDT_CONFIG_REG;
 1426              		.loc 1 1358 0
 1427 002c 084B     		ldr	r3, .L102
 1428 002e 1B68     		ldr	r3, [r3]
 1429 0030 BB60     		str	r3, [r7, #8]
1359:.\Generated_Source\PSoC4/CyLib.c ****             configRegValue &= ((uint32)(~(CY_SYS_WDT_CASCADE_01|CY_SYS_WDT_CASCADE_12)));
 1430              		.loc 1 1359 0
 1431 0032 BA68     		ldr	r2, [r7, #8]
 1432 0034 074B     		ldr	r3, .L102+4
 1433 0036 1340     		and	r3, r2
 1434 0038 BB60     		str	r3, [r7, #8]
1360:.\Generated_Source\PSoC4/CyLib.c ****             configRegValue |= cascadeMask;
 1435              		.loc 1 1360 0
 1436 003a BA68     		ldr	r2, [r7, #8]
 1437 003c 7B68     		ldr	r3, [r7, #4]
 1438 003e 1343     		orr	r3, r2
 1439 0040 BB60     		str	r3, [r7, #8]
1361:.\Generated_Source\PSoC4/CyLib.c ****             CY_SYS_WDT_CONFIG_REG = configRegValue;
 1440              		.loc 1 1361 0
 1441 0042 034B     		ldr	r3, .L102
 1442 0044 BA68     		ldr	r2, [r7, #8]
 1443 0046 1A60     		str	r2, [r3]
 1444              	.L100:
1362:.\Generated_Source\PSoC4/CyLib.c ****         }
1363:.\Generated_Source\PSoC4/CyLib.c ****     }
 1445              		.loc 1 1363 0
 1446 0048 BD46     		mov	sp, r7
 1447 004a 05B0     		add	sp, sp, #20
 1448              		@ sp needed
 1449 004c 90BD     		pop	{r4, r7, pc}
 1450              	.L103:
 1451 004e C046     		.align	2
 1452              	.L102:
 1453 0050 0C020B40 		.word	1074463244
 1454 0054 F7F7FFFF 		.word	-2057
 1455              		.cfi_endproc
 1456              	.LFE18:
 1457              		.size	CySysWdtWriteCascade, .-CySysWdtWriteCascade
 1458              		.section	.text.CySysWdtReadCascade,"ax",%progbits
 1459              		.align	2
 1460              		.global	CySysWdtReadCascade
 1461              		.code	16
 1462              		.thumb_func
 1463              		.type	CySysWdtReadCascade, %function
 1464              	CySysWdtReadCascade:
 1465              	.LFB19:
1364:.\Generated_Source\PSoC4/CyLib.c **** 
1365:.\Generated_Source\PSoC4/CyLib.c **** 
1366:.\Generated_Source\PSoC4/CyLib.c ****     /*******************************************************************************
1367:.\Generated_Source\PSoC4/CyLib.c ****     * Function Name: CySysWdtReadCascade
1368:.\Generated_Source\PSoC4/CyLib.c ****     ********************************************************************************
1369:.\Generated_Source\PSoC4/CyLib.c ****     *
1370:.\Generated_Source\PSoC4/CyLib.c ****     * Summary:
1371:.\Generated_Source\PSoC4/CyLib.c ****     *   Reads the two WDT cascade values returning a mask of the bits set.
1372:.\Generated_Source\PSoC4/CyLib.c ****     *
1373:.\Generated_Source\PSoC4/CyLib.c ****     * Parameters:
ARM GAS  C:\DOCUME~1\Owner\LOCALS~1\Temp\cc3gLjSb.s 			page 51


1374:.\Generated_Source\PSoC4/CyLib.c ****     *   None
1375:.\Generated_Source\PSoC4/CyLib.c ****     *
1376:.\Generated_Source\PSoC4/CyLib.c ****     * Return:
1377:.\Generated_Source\PSoC4/CyLib.c ****     *   Mask of cascade values set.
1378:.\Generated_Source\PSoC4/CyLib.c ****     *   Define                     Cascade
1379:.\Generated_Source\PSoC4/CyLib.c ****     *   CY_SYS_WDT_CASCADE_NONE    Neither
1380:.\Generated_Source\PSoC4/CyLib.c ****     *   CY_SYS_WDT_CASCADE_01      Cascade 01
1381:.\Generated_Source\PSoC4/CyLib.c ****     *   CY_SYS_WDT_CASCADE_12      Cascade 12
1382:.\Generated_Source\PSoC4/CyLib.c ****     *
1383:.\Generated_Source\PSoC4/CyLib.c ****     *******************************************************************************/
1384:.\Generated_Source\PSoC4/CyLib.c ****     uint32 CySysWdtReadCascade(void)
1385:.\Generated_Source\PSoC4/CyLib.c ****     {
 1466              		.loc 1 1385 0
 1467              		.cfi_startproc
 1468 0000 80B5     		push	{r7, lr}
 1469              		.cfi_def_cfa_offset 8
 1470              		.cfi_offset 7, -8
 1471              		.cfi_offset 14, -4
 1472 0002 00AF     		add	r7, sp, #0
 1473              		.cfi_def_cfa_register 7
1386:.\Generated_Source\PSoC4/CyLib.c ****         return (CY_SYS_WDT_CONFIG_REG & (CY_SYS_WDT_CASCADE_01 | CY_SYS_WDT_CASCADE_12));
 1474              		.loc 1 1386 0
 1475 0004 034B     		ldr	r3, .L106
 1476 0006 1A68     		ldr	r2, [r3]
 1477 0008 034B     		ldr	r3, .L106+4
 1478 000a 1340     		and	r3, r2
1387:.\Generated_Source\PSoC4/CyLib.c ****     }
 1479              		.loc 1 1387 0
 1480 000c 181C     		mov	r0, r3
 1481 000e BD46     		mov	sp, r7
 1482              		@ sp needed
 1483 0010 80BD     		pop	{r7, pc}
 1484              	.L107:
 1485 0012 C046     		.align	2
 1486              	.L106:
 1487 0014 0C020B40 		.word	1074463244
 1488 0018 08080000 		.word	2056
 1489              		.cfi_endproc
 1490              	.LFE19:
 1491              		.size	CySysWdtReadCascade, .-CySysWdtReadCascade
 1492              		.section	.text.CySysWdtWriteMatch,"ax",%progbits
 1493              		.align	2
 1494              		.global	CySysWdtWriteMatch
 1495              		.code	16
 1496              		.thumb_func
 1497              		.type	CySysWdtWriteMatch, %function
 1498              	CySysWdtWriteMatch:
 1499              	.LFB20:
1388:.\Generated_Source\PSoC4/CyLib.c **** 
1389:.\Generated_Source\PSoC4/CyLib.c **** 
1390:.\Generated_Source\PSoC4/CyLib.c ****     /*******************************************************************************
1391:.\Generated_Source\PSoC4/CyLib.c ****     * Function Name: CySysWdtWriteMatch
1392:.\Generated_Source\PSoC4/CyLib.c ****     ********************************************************************************
1393:.\Generated_Source\PSoC4/CyLib.c ****     *
1394:.\Generated_Source\PSoC4/CyLib.c ****     * Summary:
1395:.\Generated_Source\PSoC4/CyLib.c ****     *  Configures the WDT counter match comparison value.
1396:.\Generated_Source\PSoC4/CyLib.c ****     *
ARM GAS  C:\DOCUME~1\Owner\LOCALS~1\Temp\cc3gLjSb.s 			page 52


1397:.\Generated_Source\PSoC4/CyLib.c ****     * Parameters:
1398:.\Generated_Source\PSoC4/CyLib.c ****     *  counterNum:
1399:.\Generated_Source\PSoC4/CyLib.c ****     *   Valid range [0-1]. Number of the WDT counter. Match values are not
1400:.\Generated_Source\PSoC4/CyLib.c ****     *   supported by counter 2.
1401:.\Generated_Source\PSoC4/CyLib.c ****     *
1402:.\Generated_Source\PSoC4/CyLib.c ****     *  match:
1403:.\Generated_Source\PSoC4/CyLib.c ****     *   Valid range [0-65535]. Value to be used to match against the counter.
1404:.\Generated_Source\PSoC4/CyLib.c ****     *
1405:.\Generated_Source\PSoC4/CyLib.c ****     * Return:
1406:.\Generated_Source\PSoC4/CyLib.c ****     *   None
1407:.\Generated_Source\PSoC4/CyLib.c ****     *
1408:.\Generated_Source\PSoC4/CyLib.c ****     *******************************************************************************/
1409:.\Generated_Source\PSoC4/CyLib.c ****     void CySysWdtWriteMatch(uint32 counterNum, uint32 match)
1410:.\Generated_Source\PSoC4/CyLib.c ****     {
 1500              		.loc 1 1410 0
 1501              		.cfi_startproc
 1502 0000 80B5     		push	{r7, lr}
 1503              		.cfi_def_cfa_offset 8
 1504              		.cfi_offset 7, -8
 1505              		.cfi_offset 14, -4
 1506 0002 84B0     		sub	sp, sp, #16
 1507              		.cfi_def_cfa_offset 24
 1508 0004 00AF     		add	r7, sp, #0
 1509              		.cfi_def_cfa_register 7
 1510 0006 7860     		str	r0, [r7, #4]
 1511 0008 3960     		str	r1, [r7]
1411:.\Generated_Source\PSoC4/CyLib.c ****         uint32 regValue;
1412:.\Generated_Source\PSoC4/CyLib.c **** 
1413:.\Generated_Source\PSoC4/CyLib.c ****         CYASSERT((counterNum == CY_SYS_WDT_COUNTER0) ||
 1512              		.loc 1 1413 0
 1513 000a 7B68     		ldr	r3, [r7, #4]
 1514 000c 002B     		cmp	r3, #0
 1515 000e 02D0     		beq	.L109
 1516              		.loc 1 1413 0 is_stmt 0 discriminator 2
 1517 0010 7B68     		ldr	r3, [r7, #4]
 1518 0012 012B     		cmp	r3, #1
 1519 0014 01D1     		bne	.L110
 1520              	.L109:
 1521              		.loc 1 1413 0 discriminator 1
 1522 0016 0123     		mov	r3, #1
 1523 0018 00E0     		b	.L111
 1524              	.L110:
 1525              		.loc 1 1413 0 discriminator 3
 1526 001a 0023     		mov	r3, #0
 1527              	.L111:
 1528              		.loc 1 1413 0 discriminator 4
 1529 001c 002B     		cmp	r3, #0
 1530 001e 02D1     		bne	.L112
 1531              		.loc 1 1413 0 discriminator 1
 1532 0020 0020     		mov	r0, #0
 1533 0022 FFF7FEFF 		bl	CyHalt
 1534              	.L112:
1414:.\Generated_Source\PSoC4/CyLib.c ****                  (counterNum == CY_SYS_WDT_COUNTER1));
1415:.\Generated_Source\PSoC4/CyLib.c **** 
1416:.\Generated_Source\PSoC4/CyLib.c ****         /* Wait for the previous changes to come into effect */
1417:.\Generated_Source\PSoC4/CyLib.c ****         CyDelayUs(CY_SYS_WDT_3LFCLK_DELAY_US);
 1535              		.loc 1 1417 0 is_stmt 1
ARM GAS  C:\DOCUME~1\Owner\LOCALS~1\Temp\cc3gLjSb.s 			page 53


 1536 0026 C920     		mov	r0, #201
 1537 0028 FFF7FEFF 		bl	CyDelayUs
1418:.\Generated_Source\PSoC4/CyLib.c **** 
1419:.\Generated_Source\PSoC4/CyLib.c ****         regValue = CY_SYS_WDT_MATCH_REG;
 1538              		.loc 1 1419 0
 1539 002c 0D4B     		ldr	r3, .L113
 1540 002e 1B68     		ldr	r3, [r3]
 1541 0030 FB60     		str	r3, [r7, #12]
1420:.\Generated_Source\PSoC4/CyLib.c ****         regValue &= (uint32)~((uint32)(CY_SYS_WDT_LOWER_16BITS_MASK << (counterNum * CY_SYS_WDT_CNT
 1542              		.loc 1 1420 0
 1543 0032 7B68     		ldr	r3, [r7, #4]
 1544 0034 1B01     		lsl	r3, r3, #4
 1545 0036 0C4A     		ldr	r2, .L113+4
 1546 0038 111C     		mov	r1, r2
 1547 003a 9940     		lsl	r1, r1, r3
 1548 003c 0B1C     		mov	r3, r1
 1549 003e DA43     		mvn	r2, r3
 1550 0040 FB68     		ldr	r3, [r7, #12]
 1551 0042 1340     		and	r3, r2
 1552 0044 FB60     		str	r3, [r7, #12]
1421:.\Generated_Source\PSoC4/CyLib.c ****         CY_SYS_WDT_MATCH_REG = (regValue | (match << (counterNum * CY_SYS_WDT_CNT_MATCH_SHIFT)));
 1553              		.loc 1 1421 0
 1554 0046 074B     		ldr	r3, .L113
 1555 0048 7A68     		ldr	r2, [r7, #4]
 1556 004a 1201     		lsl	r2, r2, #4
 1557 004c 3968     		ldr	r1, [r7]
 1558 004e 9140     		lsl	r1, r1, r2
 1559 0050 FA68     		ldr	r2, [r7, #12]
 1560 0052 0A43     		orr	r2, r1
 1561 0054 1A60     		str	r2, [r3]
1422:.\Generated_Source\PSoC4/CyLib.c **** 
1423:.\Generated_Source\PSoC4/CyLib.c ****         /* Make sure the match synchronization started */
1424:.\Generated_Source\PSoC4/CyLib.c ****         CyDelayUs(CY_SYS_WDT_1LFCLK_DELAY_US);
 1562              		.loc 1 1424 0
 1563 0056 4320     		mov	r0, #67
 1564 0058 FFF7FEFF 		bl	CyDelayUs
1425:.\Generated_Source\PSoC4/CyLib.c ****     }
 1565              		.loc 1 1425 0
 1566 005c BD46     		mov	sp, r7
 1567 005e 04B0     		add	sp, sp, #16
 1568              		@ sp needed
 1569 0060 80BD     		pop	{r7, pc}
 1570              	.L114:
 1571 0062 C046     		.align	2
 1572              	.L113:
 1573 0064 08020B40 		.word	1074463240
 1574 0068 FFFF0000 		.word	65535
 1575              		.cfi_endproc
 1576              	.LFE20:
 1577              		.size	CySysWdtWriteMatch, .-CySysWdtWriteMatch
 1578              		.section	.text.CySysWdtWriteToggleBit,"ax",%progbits
 1579              		.align	2
 1580              		.global	CySysWdtWriteToggleBit
 1581              		.code	16
 1582              		.thumb_func
 1583              		.type	CySysWdtWriteToggleBit, %function
 1584              	CySysWdtWriteToggleBit:
ARM GAS  C:\DOCUME~1\Owner\LOCALS~1\Temp\cc3gLjSb.s 			page 54


 1585              	.LFB21:
1426:.\Generated_Source\PSoC4/CyLib.c **** 
1427:.\Generated_Source\PSoC4/CyLib.c **** 
1428:.\Generated_Source\PSoC4/CyLib.c ****     /*******************************************************************************
1429:.\Generated_Source\PSoC4/CyLib.c ****     * Function Name: CySysWdtWriteToggleBit
1430:.\Generated_Source\PSoC4/CyLib.c ****     ********************************************************************************
1431:.\Generated_Source\PSoC4/CyLib.c ****     *
1432:.\Generated_Source\PSoC4/CyLib.c ****     * Summary:
1433:.\Generated_Source\PSoC4/CyLib.c ****     *  Configures which bit in the WDT counter 2 to monitor for a toggle. When that
1434:.\Generated_Source\PSoC4/CyLib.c ****     *  bit toggles, an interrupt is generated if the mode for counter 2 has
1435:.\Generated_Source\PSoC4/CyLib.c ****     *  interrupts enabled.
1436:.\Generated_Source\PSoC4/CyLib.c ****     *
1437:.\Generated_Source\PSoC4/CyLib.c ****     * Parameters:
1438:.\Generated_Source\PSoC4/CyLib.c ****     *  bit:
1439:.\Generated_Source\PSoC4/CyLib.c ****     *   Valid range [0-31].  Counter 2 bit to monitor for a toggle.
1440:.\Generated_Source\PSoC4/CyLib.c ****     *
1441:.\Generated_Source\PSoC4/CyLib.c ****     * Return:
1442:.\Generated_Source\PSoC4/CyLib.c ****     *   None
1443:.\Generated_Source\PSoC4/CyLib.c ****     *
1444:.\Generated_Source\PSoC4/CyLib.c ****     * Side effects:
1445:.\Generated_Source\PSoC4/CyLib.c ****     *   WDT Counter 2 should be disabled. Otherwise this function call will have no
1446:.\Generated_Source\PSoC4/CyLib.c ****     *   effect.
1447:.\Generated_Source\PSoC4/CyLib.c ****     *
1448:.\Generated_Source\PSoC4/CyLib.c ****     *   If the specified counter is enabled, call CySysWdtDisable() function with
1449:.\Generated_Source\PSoC4/CyLib.c ****     *   the corresponding parameter to disable specified counter and wait for it to
1450:.\Generated_Source\PSoC4/CyLib.c ****     *   stop. This may take up to 3 LFCLK cycles.
1451:.\Generated_Source\PSoC4/CyLib.c ****     *
1452:.\Generated_Source\PSoC4/CyLib.c ****     *******************************************************************************/
1453:.\Generated_Source\PSoC4/CyLib.c ****     void CySysWdtWriteToggleBit(uint32 bits)
1454:.\Generated_Source\PSoC4/CyLib.c ****     {
 1586              		.loc 1 1454 0
 1587              		.cfi_startproc
 1588 0000 80B5     		push	{r7, lr}
 1589              		.cfi_def_cfa_offset 8
 1590              		.cfi_offset 7, -8
 1591              		.cfi_offset 14, -4
 1592 0002 84B0     		sub	sp, sp, #16
 1593              		.cfi_def_cfa_offset 24
 1594 0004 00AF     		add	r7, sp, #0
 1595              		.cfi_def_cfa_register 7
 1596 0006 7860     		str	r0, [r7, #4]
1455:.\Generated_Source\PSoC4/CyLib.c ****         uint32 configRegValue;
1456:.\Generated_Source\PSoC4/CyLib.c **** 
1457:.\Generated_Source\PSoC4/CyLib.c ****         if (0u == CySysWdtReadEnabledStatus(CY_SYS_WDT_COUNTER2))
 1597              		.loc 1 1457 0
 1598 0008 0220     		mov	r0, #2
 1599 000a FFF7FEFF 		bl	CySysWdtReadEnabledStatus
 1600 000e 031C     		mov	r3, r0
 1601 0010 002B     		cmp	r3, #0
 1602 0012 10D1     		bne	.L115
1458:.\Generated_Source\PSoC4/CyLib.c ****         {
1459:.\Generated_Source\PSoC4/CyLib.c ****             configRegValue = CY_SYS_WDT_CONFIG_REG;
 1603              		.loc 1 1459 0
 1604 0014 094B     		ldr	r3, .L117
 1605 0016 1B68     		ldr	r3, [r3]
 1606 0018 FB60     		str	r3, [r7, #12]
1460:.\Generated_Source\PSoC4/CyLib.c ****             configRegValue &= (uint32)(~((uint32)(CY_SYS_WDT_CONFIG_BITS2_MASK << CY_SYS_WDT_CONFIG
ARM GAS  C:\DOCUME~1\Owner\LOCALS~1\Temp\cc3gLjSb.s 			page 55


 1607              		.loc 1 1460 0
 1608 001a FA68     		ldr	r2, [r7, #12]
 1609 001c 084B     		ldr	r3, .L117+4
 1610 001e 1340     		and	r3, r2
 1611 0020 FB60     		str	r3, [r7, #12]
1461:.\Generated_Source\PSoC4/CyLib.c ****             configRegValue |= ((bits & CY_SYS_WDT_CONFIG_BITS2_MASK) << CY_SYS_WDT_CONFIG_BITS2_POS
 1612              		.loc 1 1461 0
 1613 0022 7A68     		ldr	r2, [r7, #4]
 1614 0024 1F23     		mov	r3, #31
 1615 0026 1340     		and	r3, r2
 1616 0028 1B06     		lsl	r3, r3, #24
 1617 002a FA68     		ldr	r2, [r7, #12]
 1618 002c 1343     		orr	r3, r2
 1619 002e FB60     		str	r3, [r7, #12]
1462:.\Generated_Source\PSoC4/CyLib.c ****             CY_SYS_WDT_CONFIG_REG = configRegValue;
 1620              		.loc 1 1462 0
 1621 0030 024B     		ldr	r3, .L117
 1622 0032 FA68     		ldr	r2, [r7, #12]
 1623 0034 1A60     		str	r2, [r3]
 1624              	.L115:
1463:.\Generated_Source\PSoC4/CyLib.c ****         }
1464:.\Generated_Source\PSoC4/CyLib.c ****     }
 1625              		.loc 1 1464 0
 1626 0036 BD46     		mov	sp, r7
 1627 0038 04B0     		add	sp, sp, #16
 1628              		@ sp needed
 1629 003a 80BD     		pop	{r7, pc}
 1630              	.L118:
 1631              		.align	2
 1632              	.L117:
 1633 003c 0C020B40 		.word	1074463244
 1634 0040 FFFFFFE0 		.word	-520093697
 1635              		.cfi_endproc
 1636              	.LFE21:
 1637              		.size	CySysWdtWriteToggleBit, .-CySysWdtWriteToggleBit
 1638              		.section	.text.CySysWdtReadToggleBit,"ax",%progbits
 1639              		.align	2
 1640              		.global	CySysWdtReadToggleBit
 1641              		.code	16
 1642              		.thumb_func
 1643              		.type	CySysWdtReadToggleBit, %function
 1644              	CySysWdtReadToggleBit:
 1645              	.LFB22:
1465:.\Generated_Source\PSoC4/CyLib.c **** 
1466:.\Generated_Source\PSoC4/CyLib.c **** 
1467:.\Generated_Source\PSoC4/CyLib.c ****     /*******************************************************************************
1468:.\Generated_Source\PSoC4/CyLib.c ****     * Function Name: CySysWdtReadToggleBit
1469:.\Generated_Source\PSoC4/CyLib.c ****     ********************************************************************************
1470:.\Generated_Source\PSoC4/CyLib.c ****     *
1471:.\Generated_Source\PSoC4/CyLib.c ****     * Summary:
1472:.\Generated_Source\PSoC4/CyLib.c ****     *  Reads which bit in the WDT counter 2 is monitored for a toggle.
1473:.\Generated_Source\PSoC4/CyLib.c ****     *
1474:.\Generated_Source\PSoC4/CyLib.c ****     * Parameters:
1475:.\Generated_Source\PSoC4/CyLib.c ****     *  None
1476:.\Generated_Source\PSoC4/CyLib.c ****     *
1477:.\Generated_Source\PSoC4/CyLib.c ****     * Return:
1478:.\Generated_Source\PSoC4/CyLib.c ****     *  The bit that is monitored (range of 0 to 31)
ARM GAS  C:\DOCUME~1\Owner\LOCALS~1\Temp\cc3gLjSb.s 			page 56


1479:.\Generated_Source\PSoC4/CyLib.c ****     *
1480:.\Generated_Source\PSoC4/CyLib.c ****     *******************************************************************************/
1481:.\Generated_Source\PSoC4/CyLib.c ****     uint32 CySysWdtReadToggleBit(void)
1482:.\Generated_Source\PSoC4/CyLib.c ****     {
 1646              		.loc 1 1482 0
 1647              		.cfi_startproc
 1648 0000 80B5     		push	{r7, lr}
 1649              		.cfi_def_cfa_offset 8
 1650              		.cfi_offset 7, -8
 1651              		.cfi_offset 14, -4
 1652 0002 00AF     		add	r7, sp, #0
 1653              		.cfi_def_cfa_register 7
1483:.\Generated_Source\PSoC4/CyLib.c ****         return ((CY_SYS_WDT_CONFIG_REG >> CY_SYS_WDT_CONFIG_BITS2_POS) & CY_SYS_WDT_CONFIG_BITS2_MA
 1654              		.loc 1 1483 0
 1655 0004 034B     		ldr	r3, .L121
 1656 0006 1B68     		ldr	r3, [r3]
 1657 0008 1A0E     		lsr	r2, r3, #24
 1658 000a 1F23     		mov	r3, #31
 1659 000c 1340     		and	r3, r2
1484:.\Generated_Source\PSoC4/CyLib.c ****     }
 1660              		.loc 1 1484 0
 1661 000e 181C     		mov	r0, r3
 1662 0010 BD46     		mov	sp, r7
 1663              		@ sp needed
 1664 0012 80BD     		pop	{r7, pc}
 1665              	.L122:
 1666              		.align	2
 1667              	.L121:
 1668 0014 0C020B40 		.word	1074463244
 1669              		.cfi_endproc
 1670              	.LFE22:
 1671              		.size	CySysWdtReadToggleBit, .-CySysWdtReadToggleBit
 1672              		.section	.text.CySysWdtReadMatch,"ax",%progbits
 1673              		.align	2
 1674              		.global	CySysWdtReadMatch
 1675              		.code	16
 1676              		.thumb_func
 1677              		.type	CySysWdtReadMatch, %function
 1678              	CySysWdtReadMatch:
 1679              	.LFB23:
1485:.\Generated_Source\PSoC4/CyLib.c **** 
1486:.\Generated_Source\PSoC4/CyLib.c **** 
1487:.\Generated_Source\PSoC4/CyLib.c ****     /*******************************************************************************
1488:.\Generated_Source\PSoC4/CyLib.c ****     * Function Name: CySysWdtReadMatch
1489:.\Generated_Source\PSoC4/CyLib.c ****     ********************************************************************************
1490:.\Generated_Source\PSoC4/CyLib.c ****     *
1491:.\Generated_Source\PSoC4/CyLib.c ****     * Summary:
1492:.\Generated_Source\PSoC4/CyLib.c ****     *  Reads the WDT counter match comparison value.
1493:.\Generated_Source\PSoC4/CyLib.c ****     *
1494:.\Generated_Source\PSoC4/CyLib.c ****     * Parameters:
1495:.\Generated_Source\PSoC4/CyLib.c ****     *  counterNum: Valid range [0-1].  Number of the WDT counter.  Match values
1496:.\Generated_Source\PSoC4/CyLib.c ****     *               are not supported by counter 2.
1497:.\Generated_Source\PSoC4/CyLib.c ****     *
1498:.\Generated_Source\PSoC4/CyLib.c ****     * Return:
1499:.\Generated_Source\PSoC4/CyLib.c ****     *  16-bit match value.
1500:.\Generated_Source\PSoC4/CyLib.c ****     *
1501:.\Generated_Source\PSoC4/CyLib.c ****     *******************************************************************************/
ARM GAS  C:\DOCUME~1\Owner\LOCALS~1\Temp\cc3gLjSb.s 			page 57


1502:.\Generated_Source\PSoC4/CyLib.c ****     uint32 CySysWdtReadMatch(uint32 counterNum)
1503:.\Generated_Source\PSoC4/CyLib.c ****     {
 1680              		.loc 1 1503 0
 1681              		.cfi_startproc
 1682 0000 80B5     		push	{r7, lr}
 1683              		.cfi_def_cfa_offset 8
 1684              		.cfi_offset 7, -8
 1685              		.cfi_offset 14, -4
 1686 0002 82B0     		sub	sp, sp, #8
 1687              		.cfi_def_cfa_offset 16
 1688 0004 00AF     		add	r7, sp, #0
 1689              		.cfi_def_cfa_register 7
 1690 0006 7860     		str	r0, [r7, #4]
1504:.\Generated_Source\PSoC4/CyLib.c ****         CYASSERT((counterNum == CY_SYS_WDT_COUNTER0) ||
 1691              		.loc 1 1504 0
 1692 0008 7B68     		ldr	r3, [r7, #4]
 1693 000a 002B     		cmp	r3, #0
 1694 000c 02D0     		beq	.L124
 1695              		.loc 1 1504 0 is_stmt 0 discriminator 2
 1696 000e 7B68     		ldr	r3, [r7, #4]
 1697 0010 012B     		cmp	r3, #1
 1698 0012 01D1     		bne	.L125
 1699              	.L124:
 1700              		.loc 1 1504 0 discriminator 1
 1701 0014 0123     		mov	r3, #1
 1702 0016 00E0     		b	.L126
 1703              	.L125:
 1704              		.loc 1 1504 0 discriminator 3
 1705 0018 0023     		mov	r3, #0
 1706              	.L126:
 1707              		.loc 1 1504 0 discriminator 4
 1708 001a 002B     		cmp	r3, #0
 1709 001c 02D1     		bne	.L127
 1710              		.loc 1 1504 0 discriminator 1
 1711 001e 0020     		mov	r0, #0
 1712 0020 FFF7FEFF 		bl	CyHalt
 1713              	.L127:
1505:.\Generated_Source\PSoC4/CyLib.c ****                  (counterNum == CY_SYS_WDT_COUNTER1));
1506:.\Generated_Source\PSoC4/CyLib.c **** 
1507:.\Generated_Source\PSoC4/CyLib.c ****         return ((uint32)(CY_SYS_WDT_MATCH_REG >> (counterNum * CY_SYS_WDT_CNT_MATCH_SHIFT)) & CY_SY
 1714              		.loc 1 1507 0 is_stmt 1
 1715 0024 064B     		ldr	r3, .L129
 1716 0026 1A68     		ldr	r2, [r3]
 1717 0028 7B68     		ldr	r3, [r7, #4]
 1718 002a 1B01     		lsl	r3, r3, #4
 1719 002c 111C     		mov	r1, r2
 1720 002e D940     		lsr	r1, r1, r3
 1721 0030 0B1C     		mov	r3, r1
 1722 0032 1B04     		lsl	r3, r3, #16
 1723 0034 1B0C     		lsr	r3, r3, #16
1508:.\Generated_Source\PSoC4/CyLib.c ****     }
 1724              		.loc 1 1508 0
 1725 0036 181C     		mov	r0, r3
 1726 0038 BD46     		mov	sp, r7
 1727 003a 02B0     		add	sp, sp, #8
 1728              		@ sp needed
 1729 003c 80BD     		pop	{r7, pc}
ARM GAS  C:\DOCUME~1\Owner\LOCALS~1\Temp\cc3gLjSb.s 			page 58


 1730              	.L130:
 1731 003e C046     		.align	2
 1732              	.L129:
 1733 0040 08020B40 		.word	1074463240
 1734              		.cfi_endproc
 1735              	.LFE23:
 1736              		.size	CySysWdtReadMatch, .-CySysWdtReadMatch
 1737              		.section	.text.CySysWdtReadCount,"ax",%progbits
 1738              		.align	2
 1739              		.global	CySysWdtReadCount
 1740              		.code	16
 1741              		.thumb_func
 1742              		.type	CySysWdtReadCount, %function
 1743              	CySysWdtReadCount:
 1744              	.LFB24:
1509:.\Generated_Source\PSoC4/CyLib.c **** 
1510:.\Generated_Source\PSoC4/CyLib.c **** 
1511:.\Generated_Source\PSoC4/CyLib.c ****     /*******************************************************************************
1512:.\Generated_Source\PSoC4/CyLib.c ****     * Function Name: CySysWdtReadCount
1513:.\Generated_Source\PSoC4/CyLib.c ****     ********************************************************************************
1514:.\Generated_Source\PSoC4/CyLib.c ****     *
1515:.\Generated_Source\PSoC4/CyLib.c ****     * Summary:
1516:.\Generated_Source\PSoC4/CyLib.c ****     *  Reads the current WDT counter value.
1517:.\Generated_Source\PSoC4/CyLib.c ****     *
1518:.\Generated_Source\PSoC4/CyLib.c ****     * Parameters:
1519:.\Generated_Source\PSoC4/CyLib.c ****     *  counterNum: Valid range [0-2].  Number of the WDT counter.
1520:.\Generated_Source\PSoC4/CyLib.c ****     *
1521:.\Generated_Source\PSoC4/CyLib.c ****     * Return:
1522:.\Generated_Source\PSoC4/CyLib.c ****     *  Live counter value.  Counter 0 and 1 are 16 bit counters and counter
1523:.\Generated_Source\PSoC4/CyLib.c ****     *  2 is a 32 bit counter.
1524:.\Generated_Source\PSoC4/CyLib.c ****     *
1525:.\Generated_Source\PSoC4/CyLib.c ****     *******************************************************************************/
1526:.\Generated_Source\PSoC4/CyLib.c ****     uint32 CySysWdtReadCount(uint32 counterNum)
1527:.\Generated_Source\PSoC4/CyLib.c ****     {
 1745              		.loc 1 1527 0
 1746              		.cfi_startproc
 1747 0000 80B5     		push	{r7, lr}
 1748              		.cfi_def_cfa_offset 8
 1749              		.cfi_offset 7, -8
 1750              		.cfi_offset 14, -4
 1751 0002 84B0     		sub	sp, sp, #16
 1752              		.cfi_def_cfa_offset 24
 1753 0004 00AF     		add	r7, sp, #0
 1754              		.cfi_def_cfa_register 7
 1755 0006 7860     		str	r0, [r7, #4]
1528:.\Generated_Source\PSoC4/CyLib.c ****         uint32 regValue = 0u;
 1756              		.loc 1 1528 0
 1757 0008 0023     		mov	r3, #0
 1758 000a FB60     		str	r3, [r7, #12]
1529:.\Generated_Source\PSoC4/CyLib.c **** 
1530:.\Generated_Source\PSoC4/CyLib.c ****         switch(counterNum)
 1759              		.loc 1 1530 0
 1760 000c 7B68     		ldr	r3, [r7, #4]
 1761 000e 012B     		cmp	r3, #1
 1762 0010 09D0     		beq	.L133
 1763 0012 02D3     		bcc	.L134
 1764 0014 022B     		cmp	r3, #2
ARM GAS  C:\DOCUME~1\Owner\LOCALS~1\Temp\cc3gLjSb.s 			page 59


 1765 0016 0BD0     		beq	.L135
 1766 0018 0EE0     		b	.L138
 1767              	.L134:
1531:.\Generated_Source\PSoC4/CyLib.c ****         {
1532:.\Generated_Source\PSoC4/CyLib.c ****             /* WDT Counter 0 */
1533:.\Generated_Source\PSoC4/CyLib.c ****             case 0u:
1534:.\Generated_Source\PSoC4/CyLib.c ****                 regValue = CY_SYS_WDT_CTRLOW_REG & CY_SYS_WDT_LOWER_16BITS_MASK;
 1768              		.loc 1 1534 0
 1769 001a 0C4B     		ldr	r3, .L139
 1770 001c 1B68     		ldr	r3, [r3]
 1771 001e 1B04     		lsl	r3, r3, #16
 1772 0020 1B0C     		lsr	r3, r3, #16
 1773 0022 FB60     		str	r3, [r7, #12]
1535:.\Generated_Source\PSoC4/CyLib.c ****             break;
 1774              		.loc 1 1535 0
 1775 0024 0CE0     		b	.L136
 1776              	.L133:
1536:.\Generated_Source\PSoC4/CyLib.c **** 
1537:.\Generated_Source\PSoC4/CyLib.c ****             /* WDT Counter 1 */
1538:.\Generated_Source\PSoC4/CyLib.c ****             case 1u:
1539:.\Generated_Source\PSoC4/CyLib.c ****                 regValue = (CY_SYS_WDT_CTRLOW_REG >> CY_SYS_WDT_CNT_MATCH_SHIFT) & CY_SYS_WDT_LOWER
 1777              		.loc 1 1539 0
 1778 0026 094B     		ldr	r3, .L139
 1779 0028 1B68     		ldr	r3, [r3]
 1780 002a 1B0C     		lsr	r3, r3, #16
 1781 002c FB60     		str	r3, [r7, #12]
1540:.\Generated_Source\PSoC4/CyLib.c ****             break;
 1782              		.loc 1 1540 0
 1783 002e 07E0     		b	.L136
 1784              	.L135:
1541:.\Generated_Source\PSoC4/CyLib.c **** 
1542:.\Generated_Source\PSoC4/CyLib.c ****             /* WDT Counter 2 */
1543:.\Generated_Source\PSoC4/CyLib.c ****             case 2u:
1544:.\Generated_Source\PSoC4/CyLib.c ****                 regValue = CY_SYS_WDT_CTRHIGH_REG;
 1785              		.loc 1 1544 0
 1786 0030 074B     		ldr	r3, .L139+4
 1787 0032 1B68     		ldr	r3, [r3]
 1788 0034 FB60     		str	r3, [r7, #12]
1545:.\Generated_Source\PSoC4/CyLib.c ****             break;
 1789              		.loc 1 1545 0
 1790 0036 03E0     		b	.L136
 1791              	.L138:
1546:.\Generated_Source\PSoC4/CyLib.c **** 
1547:.\Generated_Source\PSoC4/CyLib.c ****             default:
1548:.\Generated_Source\PSoC4/CyLib.c ****                 CYASSERT(0u != 0u);
 1792              		.loc 1 1548 0
 1793 0038 0020     		mov	r0, #0
 1794 003a FFF7FEFF 		bl	CyHalt
1549:.\Generated_Source\PSoC4/CyLib.c ****             break;
 1795              		.loc 1 1549 0
 1796 003e C046     		mov	r8, r8
 1797              	.L136:
1550:.\Generated_Source\PSoC4/CyLib.c ****         }
1551:.\Generated_Source\PSoC4/CyLib.c **** 
1552:.\Generated_Source\PSoC4/CyLib.c ****         return (regValue);
 1798              		.loc 1 1552 0
 1799 0040 FB68     		ldr	r3, [r7, #12]
ARM GAS  C:\DOCUME~1\Owner\LOCALS~1\Temp\cc3gLjSb.s 			page 60


1553:.\Generated_Source\PSoC4/CyLib.c ****     }
 1800              		.loc 1 1553 0
 1801 0042 181C     		mov	r0, r3
 1802 0044 BD46     		mov	sp, r7
 1803 0046 04B0     		add	sp, sp, #16
 1804              		@ sp needed
 1805 0048 80BD     		pop	{r7, pc}
 1806              	.L140:
 1807 004a C046     		.align	2
 1808              	.L139:
 1809 004c 00020B40 		.word	1074463232
 1810 0050 04020B40 		.word	1074463236
 1811              		.cfi_endproc
 1812              	.LFE24:
 1813              		.size	CySysWdtReadCount, .-CySysWdtReadCount
 1814              		.section	.text.CySysWdtGetInterruptSource,"ax",%progbits
 1815              		.align	2
 1816              		.global	CySysWdtGetInterruptSource
 1817              		.code	16
 1818              		.thumb_func
 1819              		.type	CySysWdtGetInterruptSource, %function
 1820              	CySysWdtGetInterruptSource:
 1821              	.LFB25:
1554:.\Generated_Source\PSoC4/CyLib.c **** 
1555:.\Generated_Source\PSoC4/CyLib.c **** 
1556:.\Generated_Source\PSoC4/CyLib.c ****     /*******************************************************************************
1557:.\Generated_Source\PSoC4/CyLib.c ****     * Function Name: CySysWdtGetInterruptSource
1558:.\Generated_Source\PSoC4/CyLib.c ****     ********************************************************************************
1559:.\Generated_Source\PSoC4/CyLib.c ****     *
1560:.\Generated_Source\PSoC4/CyLib.c ****     * Summary:
1561:.\Generated_Source\PSoC4/CyLib.c ****     *   Reads a mask containing all the WDT counters interrupts that are currently
1562:.\Generated_Source\PSoC4/CyLib.c ****     *   set by the hardware, if a corresponding mode is selected.
1563:.\Generated_Source\PSoC4/CyLib.c ****     *
1564:.\Generated_Source\PSoC4/CyLib.c ****     * Parameters:
1565:.\Generated_Source\PSoC4/CyLib.c ****     *   None
1566:.\Generated_Source\PSoC4/CyLib.c ****     *
1567:.\Generated_Source\PSoC4/CyLib.c ****     * Return:
1568:.\Generated_Source\PSoC4/CyLib.c ****     *   Mask of interrupts set.
1569:.\Generated_Source\PSoC4/CyLib.c ****     *   Define                    Counter
1570:.\Generated_Source\PSoC4/CyLib.c ****     *   CY_SYS_WDT_COUNTER0_INT    0
1571:.\Generated_Source\PSoC4/CyLib.c ****     *   CY_SYS_WDT_COUNTER1_INT    1
1572:.\Generated_Source\PSoC4/CyLib.c ****     *   CY_SYS_WDT_COUNTER2_INT    2
1573:.\Generated_Source\PSoC4/CyLib.c ****     *
1574:.\Generated_Source\PSoC4/CyLib.c ****     *******************************************************************************/
1575:.\Generated_Source\PSoC4/CyLib.c ****     uint32 CySysWdtGetInterruptSource(void)
1576:.\Generated_Source\PSoC4/CyLib.c ****     {
 1822              		.loc 1 1576 0
 1823              		.cfi_startproc
 1824 0000 80B5     		push	{r7, lr}
 1825              		.cfi_def_cfa_offset 8
 1826              		.cfi_offset 7, -8
 1827              		.cfi_offset 14, -4
 1828 0002 00AF     		add	r7, sp, #0
 1829              		.cfi_def_cfa_register 7
1577:.\Generated_Source\PSoC4/CyLib.c ****         return (CY_SYS_WDT_CONTROL_REG & (CY_SYS_WDT_COUNTER0_INT | CY_SYS_WDT_COUNTER1_INT | CY_SY
 1830              		.loc 1 1577 0
 1831 0004 034B     		ldr	r3, .L143
ARM GAS  C:\DOCUME~1\Owner\LOCALS~1\Temp\cc3gLjSb.s 			page 61


 1832 0006 1A68     		ldr	r2, [r3]
 1833 0008 034B     		ldr	r3, .L143+4
 1834 000a 1340     		and	r3, r2
1578:.\Generated_Source\PSoC4/CyLib.c ****     }
 1835              		.loc 1 1578 0
 1836 000c 181C     		mov	r0, r3
 1837 000e BD46     		mov	sp, r7
 1838              		@ sp needed
 1839 0010 80BD     		pop	{r7, pc}
 1840              	.L144:
 1841 0012 C046     		.align	2
 1842              	.L143:
 1843 0014 10020B40 		.word	1074463248
 1844 0018 04040400 		.word	263172
 1845              		.cfi_endproc
 1846              	.LFE25:
 1847              		.size	CySysWdtGetInterruptSource, .-CySysWdtGetInterruptSource
 1848              		.section	.text.CySysWdtClearInterrupt,"ax",%progbits
 1849              		.align	2
 1850              		.global	CySysWdtClearInterrupt
 1851              		.code	16
 1852              		.thumb_func
 1853              		.type	CySysWdtClearInterrupt, %function
 1854              	CySysWdtClearInterrupt:
 1855              	.LFB26:
1579:.\Generated_Source\PSoC4/CyLib.c **** 
1580:.\Generated_Source\PSoC4/CyLib.c **** 
1581:.\Generated_Source\PSoC4/CyLib.c ****     /*******************************************************************************
1582:.\Generated_Source\PSoC4/CyLib.c ****     * Function Name: CySysWdtClearInterrupt
1583:.\Generated_Source\PSoC4/CyLib.c ****     ********************************************************************************
1584:.\Generated_Source\PSoC4/CyLib.c ****     *
1585:.\Generated_Source\PSoC4/CyLib.c ****     * Summary:
1586:.\Generated_Source\PSoC4/CyLib.c ****     *   Clears all the WDT counter interrupts set in the mask. Calling this function
1587:.\Generated_Source\PSoC4/CyLib.c ****     *   also prevents Reset from happening when the counter mode is set to generate
1588:.\Generated_Source\PSoC4/CyLib.c ****     *   3 interrupts and then reset the device.
1589:.\Generated_Source\PSoC4/CyLib.c ****     *
1590:.\Generated_Source\PSoC4/CyLib.c ****     *   All the WDT interrupts are to be cleared by the firmware, otherwise interrupts
1591:.\Generated_Source\PSoC4/CyLib.c ****     *   will be generated continuously.
1592:.\Generated_Source\PSoC4/CyLib.c ****     *
1593:.\Generated_Source\PSoC4/CyLib.c ****     * Parameters:
1594:.\Generated_Source\PSoC4/CyLib.c ****     *   counterMask: Mask of all counters to enable
1595:.\Generated_Source\PSoC4/CyLib.c ****     *   Define                    Counter
1596:.\Generated_Source\PSoC4/CyLib.c ****     *   CY_SYS_WDT_COUNTER0_INT    0
1597:.\Generated_Source\PSoC4/CyLib.c ****     *   CY_SYS_WDT_COUNTER1_INT    1
1598:.\Generated_Source\PSoC4/CyLib.c ****     *   CY_SYS_WDT_COUNTER2_INT    2
1599:.\Generated_Source\PSoC4/CyLib.c ****     *
1600:.\Generated_Source\PSoC4/CyLib.c ****     * Return:
1601:.\Generated_Source\PSoC4/CyLib.c ****     *   None
1602:.\Generated_Source\PSoC4/CyLib.c ****     *
1603:.\Generated_Source\PSoC4/CyLib.c ****     * Side effects:
1604:.\Generated_Source\PSoC4/CyLib.c ****     *   This function temporary removes the watchdog lock, if it was set, and
1605:.\Generated_Source\PSoC4/CyLib.c ****     *   restores the lock state, after cleaning the WDT interrupts, that are set in
1606:.\Generated_Source\PSoC4/CyLib.c ****     *   a mask.
1607:.\Generated_Source\PSoC4/CyLib.c ****     *
1608:.\Generated_Source\PSoC4/CyLib.c ****     *******************************************************************************/
1609:.\Generated_Source\PSoC4/CyLib.c ****     void CySysWdtClearInterrupt(uint32 counterMask)
1610:.\Generated_Source\PSoC4/CyLib.c ****     {
ARM GAS  C:\DOCUME~1\Owner\LOCALS~1\Temp\cc3gLjSb.s 			page 62


 1856              		.loc 1 1610 0
 1857              		.cfi_startproc
 1858 0000 90B5     		push	{r4, r7, lr}
 1859              		.cfi_def_cfa_offset 12
 1860              		.cfi_offset 4, -12
 1861              		.cfi_offset 7, -8
 1862              		.cfi_offset 14, -4
 1863 0002 85B0     		sub	sp, sp, #20
 1864              		.cfi_def_cfa_offset 32
 1865 0004 00AF     		add	r7, sp, #0
 1866              		.cfi_def_cfa_register 7
 1867 0006 7860     		str	r0, [r7, #4]
1611:.\Generated_Source\PSoC4/CyLib.c ****         uint8 interruptState;
1612:.\Generated_Source\PSoC4/CyLib.c ****         uint32 wdtLockState;
1613:.\Generated_Source\PSoC4/CyLib.c **** 
1614:.\Generated_Source\PSoC4/CyLib.c ****         interruptState = CyEnterCriticalSection();
 1868              		.loc 1 1614 0
 1869 0008 3C1C     		mov	r4, r7
 1870 000a 0B34     		add	r4, r4, #11
 1871 000c FFF7FEFF 		bl	CyEnterCriticalSection
 1872 0010 031C     		mov	r3, r0
 1873 0012 2370     		strb	r3, [r4]
1615:.\Generated_Source\PSoC4/CyLib.c **** 
1616:.\Generated_Source\PSoC4/CyLib.c ****         if (0u != CySysWdtLocked())
 1874              		.loc 1 1616 0
 1875 0014 FFF7FEFF 		bl	CySysWdtLocked
 1876 0018 031C     		mov	r3, r0
 1877 001a 002B     		cmp	r3, #0
 1878 001c 04D0     		beq	.L146
1617:.\Generated_Source\PSoC4/CyLib.c ****         {
1618:.\Generated_Source\PSoC4/CyLib.c ****             wdtLockState = 1u;
 1879              		.loc 1 1618 0
 1880 001e 0123     		mov	r3, #1
 1881 0020 FB60     		str	r3, [r7, #12]
1619:.\Generated_Source\PSoC4/CyLib.c ****             CySysWdtUnlock();
 1882              		.loc 1 1619 0
 1883 0022 FFF7FEFF 		bl	CySysWdtUnlock
 1884 0026 01E0     		b	.L147
 1885              	.L146:
1620:.\Generated_Source\PSoC4/CyLib.c ****         }
1621:.\Generated_Source\PSoC4/CyLib.c ****         else
1622:.\Generated_Source\PSoC4/CyLib.c ****         {
1623:.\Generated_Source\PSoC4/CyLib.c ****             wdtLockState = 0u;
 1886              		.loc 1 1623 0
 1887 0028 0023     		mov	r3, #0
 1888 002a FB60     		str	r3, [r7, #12]
 1889              	.L147:
1624:.\Generated_Source\PSoC4/CyLib.c ****         }
1625:.\Generated_Source\PSoC4/CyLib.c **** 
1626:.\Generated_Source\PSoC4/CyLib.c ****         /* Set new WDT control register value */
1627:.\Generated_Source\PSoC4/CyLib.c ****         counterMask &= (CY_SYS_WDT_COUNTER0_INT |
 1890              		.loc 1 1627 0
 1891 002c 7A68     		ldr	r2, [r7, #4]
 1892 002e 0C4B     		ldr	r3, .L149
 1893 0030 1340     		and	r3, r2
 1894 0032 7B60     		str	r3, [r7, #4]
1628:.\Generated_Source\PSoC4/CyLib.c ****                         CY_SYS_WDT_COUNTER1_INT |
ARM GAS  C:\DOCUME~1\Owner\LOCALS~1\Temp\cc3gLjSb.s 			page 63


1629:.\Generated_Source\PSoC4/CyLib.c ****                         CY_SYS_WDT_COUNTER2_INT);
1630:.\Generated_Source\PSoC4/CyLib.c **** 
1631:.\Generated_Source\PSoC4/CyLib.c ****         CY_SYS_WDT_CONTROL_REG = counterMask | (CY_SYS_WDT_CONTROL_REG & ~(CY_SYS_WDT_COUNTER0_INT 
 1895              		.loc 1 1631 0
 1896 0034 0B4B     		ldr	r3, .L149+4
 1897 0036 0B4A     		ldr	r2, .L149+4
 1898 0038 1168     		ldr	r1, [r2]
 1899 003a 0B4A     		ldr	r2, .L149+8
 1900 003c 1140     		and	r1, r2
 1901 003e 7A68     		ldr	r2, [r7, #4]
 1902 0040 0A43     		orr	r2, r1
 1903 0042 1A60     		str	r2, [r3]
1632:.\Generated_Source\PSoC4/CyLib.c ****                                                                            CY_SYS_WDT_COUNTER1_INT 
1633:.\Generated_Source\PSoC4/CyLib.c ****                                                                            CY_SYS_WDT_COUNTER2_INT)
1634:.\Generated_Source\PSoC4/CyLib.c **** 
1635:.\Generated_Source\PSoC4/CyLib.c ****         if (1u == wdtLockState)
 1904              		.loc 1 1635 0
 1905 0044 FB68     		ldr	r3, [r7, #12]
 1906 0046 012B     		cmp	r3, #1
 1907 0048 01D1     		bne	.L148
1636:.\Generated_Source\PSoC4/CyLib.c ****         {
1637:.\Generated_Source\PSoC4/CyLib.c ****             CySysWdtLock();
 1908              		.loc 1 1637 0
 1909 004a FFF7FEFF 		bl	CySysWdtLock
 1910              	.L148:
1638:.\Generated_Source\PSoC4/CyLib.c ****         }
1639:.\Generated_Source\PSoC4/CyLib.c **** 
1640:.\Generated_Source\PSoC4/CyLib.c ****         CyExitCriticalSection(interruptState);
 1911              		.loc 1 1640 0
 1912 004e 3B1C     		mov	r3, r7
 1913 0050 0B33     		add	r3, r3, #11
 1914 0052 1B78     		ldrb	r3, [r3]
 1915 0054 181C     		mov	r0, r3
 1916 0056 FFF7FEFF 		bl	CyExitCriticalSection
1641:.\Generated_Source\PSoC4/CyLib.c ****     }
 1917              		.loc 1 1641 0
 1918 005a BD46     		mov	sp, r7
 1919 005c 05B0     		add	sp, sp, #20
 1920              		@ sp needed
 1921 005e 90BD     		pop	{r4, r7, pc}
 1922              	.L150:
 1923              		.align	2
 1924              	.L149:
 1925 0060 04040400 		.word	263172
 1926 0064 10020B40 		.word	1074463248
 1927 0068 FBFBFBFF 		.word	-263173
 1928              		.cfi_endproc
 1929              	.LFE26:
 1930              		.size	CySysWdtClearInterrupt, .-CySysWdtClearInterrupt
 1931              		.section	.text.CySysWdtResetCounters,"ax",%progbits
 1932              		.align	2
 1933              		.global	CySysWdtResetCounters
 1934              		.code	16
 1935              		.thumb_func
 1936              		.type	CySysWdtResetCounters, %function
 1937              	CySysWdtResetCounters:
 1938              	.LFB27:
ARM GAS  C:\DOCUME~1\Owner\LOCALS~1\Temp\cc3gLjSb.s 			page 64


1642:.\Generated_Source\PSoC4/CyLib.c **** 
1643:.\Generated_Source\PSoC4/CyLib.c **** 
1644:.\Generated_Source\PSoC4/CyLib.c ****     /*******************************************************************************
1645:.\Generated_Source\PSoC4/CyLib.c ****     * Function Name: CySysWdtResetCounters
1646:.\Generated_Source\PSoC4/CyLib.c ****     ********************************************************************************
1647:.\Generated_Source\PSoC4/CyLib.c ****     *
1648:.\Generated_Source\PSoC4/CyLib.c ****     * Summary:
1649:.\Generated_Source\PSoC4/CyLib.c ****     *  Resets all WDT counters set in the mask.
1650:.\Generated_Source\PSoC4/CyLib.c ****     *
1651:.\Generated_Source\PSoC4/CyLib.c ****     * Parameters:
1652:.\Generated_Source\PSoC4/CyLib.c ****     *  counterMask: Mask of all counters to reset.
1653:.\Generated_Source\PSoC4/CyLib.c ****     *   Define                       Counter
1654:.\Generated_Source\PSoC4/CyLib.c ****     *   CY_SYS_WDT_COUNTER0_RESET    0
1655:.\Generated_Source\PSoC4/CyLib.c ****     *   CY_SYS_WDT_COUNTER1_RESET    1
1656:.\Generated_Source\PSoC4/CyLib.c ****     *   CY_SYS_WDT_COUNTER2_RESET    2
1657:.\Generated_Source\PSoC4/CyLib.c ****     *
1658:.\Generated_Source\PSoC4/CyLib.c ****     * Return:
1659:.\Generated_Source\PSoC4/CyLib.c ****     *   None
1660:.\Generated_Source\PSoC4/CyLib.c ****     *
1661:.\Generated_Source\PSoC4/CyLib.c ****     * Side effects:
1662:.\Generated_Source\PSoC4/CyLib.c ****     *   This function will not reset counter values if the Watchdog is locked.
1663:.\Generated_Source\PSoC4/CyLib.c ****     *
1664:.\Generated_Source\PSoC4/CyLib.c ****     *******************************************************************************/
1665:.\Generated_Source\PSoC4/CyLib.c ****     void CySysWdtResetCounters(uint32 countersMask)
1666:.\Generated_Source\PSoC4/CyLib.c ****     {
 1939              		.loc 1 1666 0
 1940              		.cfi_startproc
 1941 0000 80B5     		push	{r7, lr}
 1942              		.cfi_def_cfa_offset 8
 1943              		.cfi_offset 7, -8
 1944              		.cfi_offset 14, -4
 1945 0002 82B0     		sub	sp, sp, #8
 1946              		.cfi_def_cfa_offset 16
 1947 0004 00AF     		add	r7, sp, #0
 1948              		.cfi_def_cfa_register 7
 1949 0006 7860     		str	r0, [r7, #4]
1667:.\Generated_Source\PSoC4/CyLib.c ****         /* Set new WDT reset value */
1668:.\Generated_Source\PSoC4/CyLib.c ****         CY_SYS_WDT_CONTROL_REG |= (countersMask & (CY_SYS_WDT_COUNTER0_RESET |
 1950              		.loc 1 1668 0
 1951 0008 054B     		ldr	r3, .L152
 1952 000a 054A     		ldr	r2, .L152
 1953 000c 1168     		ldr	r1, [r2]
 1954 000e 7868     		ldr	r0, [r7, #4]
 1955 0010 044A     		ldr	r2, .L152+4
 1956 0012 0240     		and	r2, r0
 1957 0014 0A43     		orr	r2, r1
 1958 0016 1A60     		str	r2, [r3]
1669:.\Generated_Source\PSoC4/CyLib.c ****             CY_SYS_WDT_COUNTER1_RESET | CY_SYS_WDT_COUNTER2_RESET));
1670:.\Generated_Source\PSoC4/CyLib.c ****     }
 1959              		.loc 1 1670 0
 1960 0018 BD46     		mov	sp, r7
 1961 001a 02B0     		add	sp, sp, #8
 1962              		@ sp needed
 1963 001c 80BD     		pop	{r7, pc}
 1964              	.L153:
 1965 001e C046     		.align	2
 1966              	.L152:
ARM GAS  C:\DOCUME~1\Owner\LOCALS~1\Temp\cc3gLjSb.s 			page 65


 1967 0020 10020B40 		.word	1074463248
 1968 0024 08080800 		.word	526344
 1969              		.cfi_endproc
 1970              	.LFE27:
 1971              		.size	CySysWdtResetCounters, .-CySysWdtResetCounters
 1972              		.section	.text.CySysClkLfclkPosedgeCatch,"ax",%progbits
 1973              		.align	2
 1974              		.code	16
 1975              		.thumb_func
 1976              		.type	CySysClkLfclkPosedgeCatch, %function
 1977              	CySysClkLfclkPosedgeCatch:
 1978              	.LFB28:
1671:.\Generated_Source\PSoC4/CyLib.c **** 
1672:.\Generated_Source\PSoC4/CyLib.c **** 
1673:.\Generated_Source\PSoC4/CyLib.c ****     /*******************************************************************************
1674:.\Generated_Source\PSoC4/CyLib.c ****     * Function Name: CySysClkLfclkPosedgeCatch
1675:.\Generated_Source\PSoC4/CyLib.c ****     ********************************************************************************
1676:.\Generated_Source\PSoC4/CyLib.c ****     *
1677:.\Generated_Source\PSoC4/CyLib.c ****     * Summary:
1678:.\Generated_Source\PSoC4/CyLib.c ****     *  Returns once LFCLK positive edge occurred.
1679:.\Generated_Source\PSoC4/CyLib.c ****     *
1680:.\Generated_Source\PSoC4/CyLib.c ****     *  The CySysClkLfclkPosedgeRestore() should be called after this function in
1681:.\Generated_Source\PSoC4/CyLib.c ****     *  order to restore WDT configuration.
1682:.\Generated_Source\PSoC4/CyLib.c ****     *
1683:.\Generated_Source\PSoC4/CyLib.c ****     *  The pair of the CySysClkLfclkPosedgeCatch() and CySysClkLfclkPosedgeRestore()
1684:.\Generated_Source\PSoC4/CyLib.c ****     *  functions expected to be called inside of a critical section.
1685:.\Generated_Source\PSoC4/CyLib.c ****     *
1686:.\Generated_Source\PSoC4/CyLib.c ****     *  To ensure that the WDT counter value is read until it changes. The enabled
1687:.\Generated_Source\PSoC4/CyLib.c ****     *  WDT counter is used for that purpose. If no counters are enabled, the counter
1688:.\Generated_Source\PSoC4/CyLib.c ****     *  0 is enabled. And after LFCLK source is switched, the counter 0 configuration
1689:.\Generated_Source\PSoC4/CyLib.c ****     *  is restored back.
1690:.\Generated_Source\PSoC4/CyLib.c ****     *
1691:.\Generated_Source\PSoC4/CyLib.c ****     *  Not applicable for the PSoC 4000 devices.
1692:.\Generated_Source\PSoC4/CyLib.c ****     *
1693:.\Generated_Source\PSoC4/CyLib.c ****     * Parameters:
1694:.\Generated_Source\PSoC4/CyLib.c ****     *  None
1695:.\Generated_Source\PSoC4/CyLib.c ****     *
1696:.\Generated_Source\PSoC4/CyLib.c ****     * Return:
1697:.\Generated_Source\PSoC4/CyLib.c ****     *  None
1698:.\Generated_Source\PSoC4/CyLib.c ****     *
1699:.\Generated_Source\PSoC4/CyLib.c ****     * Side Effects:
1700:.\Generated_Source\PSoC4/CyLib.c ****     *  This function will have no effect if the WDT is locked (CySysWdtLock() is
1701:.\Generated_Source\PSoC4/CyLib.c ****     *  called). Call CySysWdtUnlock() to unlock the WDT.
1702:.\Generated_Source\PSoC4/CyLib.c ****     *
1703:.\Generated_Source\PSoC4/CyLib.c ****     *******************************************************************************/
1704:.\Generated_Source\PSoC4/CyLib.c ****     static void CySysClkLfclkPosedgeCatch(void)
1705:.\Generated_Source\PSoC4/CyLib.c ****     {
 1979              		.loc 1 1705 0
 1980              		.cfi_startproc
 1981 0000 80B5     		push	{r7, lr}
 1982              		.cfi_def_cfa_offset 8
 1983              		.cfi_offset 7, -8
 1984              		.cfi_offset 14, -4
 1985 0002 82B0     		sub	sp, sp, #8
 1986              		.cfi_def_cfa_offset 16
 1987 0004 00AF     		add	r7, sp, #0
 1988              		.cfi_def_cfa_register 7
ARM GAS  C:\DOCUME~1\Owner\LOCALS~1\Temp\cc3gLjSb.s 			page 66


1706:.\Generated_Source\PSoC4/CyLib.c ****         uint32 firstCount;
1707:.\Generated_Source\PSoC4/CyLib.c **** 
1708:.\Generated_Source\PSoC4/CyLib.c ****         if (0u != CySysWdtReadEnabledStatus(CY_SYS_WDT_COUNTER0))
 1989              		.loc 1 1708 0
 1990 0006 0020     		mov	r0, #0
 1991 0008 FFF7FEFF 		bl	CySysWdtReadEnabledStatus
 1992 000c 031C     		mov	r3, r0
 1993 000e 002B     		cmp	r3, #0
 1994 0010 03D0     		beq	.L155
1709:.\Generated_Source\PSoC4/CyLib.c ****         {
1710:.\Generated_Source\PSoC4/CyLib.c ****             lfclkPosedgeEnabledWdtCounter = CY_SYS_WDT_COUNTER0;
 1995              		.loc 1 1710 0
 1996 0012 1F4B     		ldr	r3, .L160
 1997 0014 0022     		mov	r2, #0
 1998 0016 1A60     		str	r2, [r3]
 1999 0018 26E0     		b	.L156
 2000              	.L155:
1711:.\Generated_Source\PSoC4/CyLib.c ****         }
1712:.\Generated_Source\PSoC4/CyLib.c ****         else if (0u != CySysWdtReadEnabledStatus(CY_SYS_WDT_COUNTER1))
 2001              		.loc 1 1712 0
 2002 001a 0120     		mov	r0, #1
 2003 001c FFF7FEFF 		bl	CySysWdtReadEnabledStatus
 2004 0020 031C     		mov	r3, r0
 2005 0022 002B     		cmp	r3, #0
 2006 0024 03D0     		beq	.L157
1713:.\Generated_Source\PSoC4/CyLib.c ****         {
1714:.\Generated_Source\PSoC4/CyLib.c ****             lfclkPosedgeEnabledWdtCounter = CY_SYS_WDT_COUNTER1;
 2007              		.loc 1 1714 0
 2008 0026 1A4B     		ldr	r3, .L160
 2009 0028 0122     		mov	r2, #1
 2010 002a 1A60     		str	r2, [r3]
 2011 002c 1CE0     		b	.L156
 2012              	.L157:
1715:.\Generated_Source\PSoC4/CyLib.c ****         }
1716:.\Generated_Source\PSoC4/CyLib.c ****         else if (0u != CySysWdtReadEnabledStatus(CY_SYS_WDT_COUNTER2))
 2013              		.loc 1 1716 0
 2014 002e 0220     		mov	r0, #2
 2015 0030 FFF7FEFF 		bl	CySysWdtReadEnabledStatus
 2016 0034 031C     		mov	r3, r0
 2017 0036 002B     		cmp	r3, #0
 2018 0038 03D0     		beq	.L158
1717:.\Generated_Source\PSoC4/CyLib.c ****         {
1718:.\Generated_Source\PSoC4/CyLib.c ****             lfclkPosedgeEnabledWdtCounter = CY_SYS_WDT_COUNTER2;
 2019              		.loc 1 1718 0
 2020 003a 154B     		ldr	r3, .L160
 2021 003c 0222     		mov	r2, #2
 2022 003e 1A60     		str	r2, [r3]
 2023 0040 12E0     		b	.L156
 2024              	.L158:
1719:.\Generated_Source\PSoC4/CyLib.c ****         }
1720:.\Generated_Source\PSoC4/CyLib.c ****         else /* All WDT counters are disabled */
1721:.\Generated_Source\PSoC4/CyLib.c ****         {
1722:.\Generated_Source\PSoC4/CyLib.c ****             /* Configure WDT counter # 0 */
1723:.\Generated_Source\PSoC4/CyLib.c ****             lfclkPosedgeWdtCounter0Enabled = 1u;
 2025              		.loc 1 1723 0
 2026 0042 144B     		ldr	r3, .L160+4
 2027 0044 0122     		mov	r2, #1
ARM GAS  C:\DOCUME~1\Owner\LOCALS~1\Temp\cc3gLjSb.s 			page 67


 2028 0046 1A60     		str	r2, [r3]
1724:.\Generated_Source\PSoC4/CyLib.c ****             lfclkPosedgeEnabledWdtCounter = CY_SYS_WDT_COUNTER0;
 2029              		.loc 1 1724 0
 2030 0048 114B     		ldr	r3, .L160
 2031 004a 0022     		mov	r2, #0
 2032 004c 1A60     		str	r2, [r3]
1725:.\Generated_Source\PSoC4/CyLib.c **** 
1726:.\Generated_Source\PSoC4/CyLib.c ****             lfclkPosedgeWdtCounter0Mode = CySysWdtReadMode(CY_SYS_WDT_COUNTER0);
 2033              		.loc 1 1726 0
 2034 004e 0020     		mov	r0, #0
 2035 0050 FFF7FEFF 		bl	CySysWdtReadMode
 2036 0054 021C     		mov	r2, r0
 2037 0056 104B     		ldr	r3, .L160+8
 2038 0058 1A60     		str	r2, [r3]
1727:.\Generated_Source\PSoC4/CyLib.c ****             CySysWdtWriteMode(CY_SYS_WDT_COUNTER0, CY_SYS_WDT_MODE_NONE);
 2039              		.loc 1 1727 0
 2040 005a 0020     		mov	r0, #0
 2041 005c 0021     		mov	r1, #0
 2042 005e FFF7FEFF 		bl	CySysWdtWriteMode
1728:.\Generated_Source\PSoC4/CyLib.c ****             CySysWdtEnable(CY_SYS_WDT_COUNTER0_MASK);
 2043              		.loc 1 1728 0
 2044 0062 0120     		mov	r0, #1
 2045 0064 FFF7FEFF 		bl	CySysWdtEnable
 2046              	.L156:
1729:.\Generated_Source\PSoC4/CyLib.c ****         }
1730:.\Generated_Source\PSoC4/CyLib.c **** 
1731:.\Generated_Source\PSoC4/CyLib.c ****         firstCount = CySysWdtReadCount(lfclkPosedgeEnabledWdtCounter);
 2047              		.loc 1 1731 0
 2048 0068 094B     		ldr	r3, .L160
 2049 006a 1B68     		ldr	r3, [r3]
 2050 006c 181C     		mov	r0, r3
 2051 006e FFF7FEFF 		bl	CySysWdtReadCount
 2052 0072 031C     		mov	r3, r0
 2053 0074 7B60     		str	r3, [r7, #4]
1732:.\Generated_Source\PSoC4/CyLib.c ****         while (CySysWdtReadCount(lfclkPosedgeEnabledWdtCounter) == firstCount)
 2054              		.loc 1 1732 0
 2055 0076 C046     		mov	r8, r8
 2056              	.L159:
 2057              		.loc 1 1732 0 is_stmt 0 discriminator 1
 2058 0078 054B     		ldr	r3, .L160
 2059 007a 1B68     		ldr	r3, [r3]
 2060 007c 181C     		mov	r0, r3
 2061 007e FFF7FEFF 		bl	CySysWdtReadCount
 2062 0082 021C     		mov	r2, r0
 2063 0084 7B68     		ldr	r3, [r7, #4]
 2064 0086 9A42     		cmp	r2, r3
 2065 0088 F6D0     		beq	.L159
1733:.\Generated_Source\PSoC4/CyLib.c ****         {
1734:.\Generated_Source\PSoC4/CyLib.c ****             /* Wait for counter to increment */
1735:.\Generated_Source\PSoC4/CyLib.c ****         }
1736:.\Generated_Source\PSoC4/CyLib.c ****     }
 2066              		.loc 1 1736 0 is_stmt 1
 2067 008a BD46     		mov	sp, r7
 2068 008c 02B0     		add	sp, sp, #8
 2069              		@ sp needed
 2070 008e 80BD     		pop	{r7, pc}
 2071              	.L161:
ARM GAS  C:\DOCUME~1\Owner\LOCALS~1\Temp\cc3gLjSb.s 			page 68


 2072              		.align	2
 2073              	.L160:
 2074 0090 00000000 		.word	lfclkPosedgeEnabledWdtCounter
 2075 0094 00000000 		.word	lfclkPosedgeWdtCounter0Enabled
 2076 0098 00000000 		.word	lfclkPosedgeWdtCounter0Mode
 2077              		.cfi_endproc
 2078              	.LFE28:
 2079              		.size	CySysClkLfclkPosedgeCatch, .-CySysClkLfclkPosedgeCatch
 2080              		.section	.text.CySysClkLfclkPosedgeRestore,"ax",%progbits
 2081              		.align	2
 2082              		.code	16
 2083              		.thumb_func
 2084              		.type	CySysClkLfclkPosedgeRestore, %function
 2085              	CySysClkLfclkPosedgeRestore:
 2086              	.LFB29:
1737:.\Generated_Source\PSoC4/CyLib.c **** 
1738:.\Generated_Source\PSoC4/CyLib.c **** 
1739:.\Generated_Source\PSoC4/CyLib.c ****     /*******************************************************************************
1740:.\Generated_Source\PSoC4/CyLib.c ****     * Function Name: CySysClkLfclkPosedgeRestore
1741:.\Generated_Source\PSoC4/CyLib.c ****     ********************************************************************************
1742:.\Generated_Source\PSoC4/CyLib.c ****     *
1743:.\Generated_Source\PSoC4/CyLib.c ****     * Summary:
1744:.\Generated_Source\PSoC4/CyLib.c ****     *  Restores WDT configuration after CySysClkLfclkPosedgeCatch() call.
1745:.\Generated_Source\PSoC4/CyLib.c ****     *
1746:.\Generated_Source\PSoC4/CyLib.c ****     *  The pair of the CySysClkLfclkPosedgeCatch() and CySysClkLfclkPosedgeRestore()
1747:.\Generated_Source\PSoC4/CyLib.c ****     *  functions expected to be called inside of a critical section.
1748:.\Generated_Source\PSoC4/CyLib.c ****     *
1749:.\Generated_Source\PSoC4/CyLib.c ****     *  Not applicable for the PSoC 4000 devices.
1750:.\Generated_Source\PSoC4/CyLib.c ****     *
1751:.\Generated_Source\PSoC4/CyLib.c ****     * Parameters:
1752:.\Generated_Source\PSoC4/CyLib.c ****     *  None
1753:.\Generated_Source\PSoC4/CyLib.c ****     *
1754:.\Generated_Source\PSoC4/CyLib.c ****     * Return:
1755:.\Generated_Source\PSoC4/CyLib.c ****     *  None
1756:.\Generated_Source\PSoC4/CyLib.c ****     *
1757:.\Generated_Source\PSoC4/CyLib.c ****     * Side Effects:
1758:.\Generated_Source\PSoC4/CyLib.c ****     *  This function will have no effect if the WDT is locked (CySysWdtLock() is
1759:.\Generated_Source\PSoC4/CyLib.c ****     *  called). Call CySysWdtUnlock() to unlock the WDT.
1760:.\Generated_Source\PSoC4/CyLib.c ****     *
1761:.\Generated_Source\PSoC4/CyLib.c ****     *******************************************************************************/
1762:.\Generated_Source\PSoC4/CyLib.c ****     static void CySysClkLfclkPosedgeRestore(void)
1763:.\Generated_Source\PSoC4/CyLib.c ****     {
 2087              		.loc 1 1763 0
 2088              		.cfi_startproc
 2089 0000 80B5     		push	{r7, lr}
 2090              		.cfi_def_cfa_offset 8
 2091              		.cfi_offset 7, -8
 2092              		.cfi_offset 14, -4
 2093 0002 00AF     		add	r7, sp, #0
 2094              		.cfi_def_cfa_register 7
1764:.\Generated_Source\PSoC4/CyLib.c ****         if (lfclkPosedgeWdtCounter0Enabled != 0u)
 2095              		.loc 1 1764 0
 2096 0004 0A4B     		ldr	r3, .L164
 2097 0006 1B68     		ldr	r3, [r3]
 2098 0008 002B     		cmp	r3, #0
 2099 000a 0ED0     		beq	.L162
1765:.\Generated_Source\PSoC4/CyLib.c ****         {
ARM GAS  C:\DOCUME~1\Owner\LOCALS~1\Temp\cc3gLjSb.s 			page 69


1766:.\Generated_Source\PSoC4/CyLib.c ****             /* Restore counter # 0 configuration and force it's shutdown */
1767:.\Generated_Source\PSoC4/CyLib.c ****             CY_SYS_WDT_CONTROL_REG &= (uint32)(~CY_SYS_WDT_COUNTER0_MASK);
 2100              		.loc 1 1767 0
 2101 000c 094B     		ldr	r3, .L164+4
 2102 000e 094A     		ldr	r2, .L164+4
 2103 0010 1268     		ldr	r2, [r2]
 2104 0012 0121     		mov	r1, #1
 2105 0014 8A43     		bic	r2, r1
 2106 0016 1A60     		str	r2, [r3]
1768:.\Generated_Source\PSoC4/CyLib.c ****             CySysWdtWriteMode(CY_SYS_WDT_COUNTER0, lfclkPosedgeWdtCounter0Mode);
 2107              		.loc 1 1768 0
 2108 0018 074B     		ldr	r3, .L164+8
 2109 001a 1B68     		ldr	r3, [r3]
 2110 001c 0020     		mov	r0, #0
 2111 001e 191C     		mov	r1, r3
 2112 0020 FFF7FEFF 		bl	CySysWdtWriteMode
1769:.\Generated_Source\PSoC4/CyLib.c ****             lfclkPosedgeWdtCounter0Enabled = 0u;
 2113              		.loc 1 1769 0
 2114 0024 024B     		ldr	r3, .L164
 2115 0026 0022     		mov	r2, #0
 2116 0028 1A60     		str	r2, [r3]
 2117              	.L162:
1770:.\Generated_Source\PSoC4/CyLib.c ****         }
1771:.\Generated_Source\PSoC4/CyLib.c ****     }
 2118              		.loc 1 1771 0
 2119 002a BD46     		mov	sp, r7
 2120              		@ sp needed
 2121 002c 80BD     		pop	{r7, pc}
 2122              	.L165:
 2123 002e C046     		.align	2
 2124              	.L164:
 2125 0030 00000000 		.word	lfclkPosedgeWdtCounter0Enabled
 2126 0034 10020B40 		.word	1074463248
 2127 0038 00000000 		.word	lfclkPosedgeWdtCounter0Mode
 2128              		.cfi_endproc
 2129              	.LFE29:
 2130              		.size	CySysClkLfclkPosedgeRestore, .-CySysClkLfclkPosedgeRestore
 2131              		.section	.text.CySysLvdEnable,"ax",%progbits
 2132              		.align	2
 2133              		.global	CySysLvdEnable
 2134              		.code	16
 2135              		.thumb_func
 2136              		.type	CySysLvdEnable, %function
 2137              	CySysLvdEnable:
 2138              	.LFB30:
1772:.\Generated_Source\PSoC4/CyLib.c **** 
1773:.\Generated_Source\PSoC4/CyLib.c **** #else
1774:.\Generated_Source\PSoC4/CyLib.c **** 
1775:.\Generated_Source\PSoC4/CyLib.c ****     /*******************************************************************************
1776:.\Generated_Source\PSoC4/CyLib.c ****     * Function Name: CySysWdtReadEnabledStatus
1777:.\Generated_Source\PSoC4/CyLib.c ****     ********************************************************************************
1778:.\Generated_Source\PSoC4/CyLib.c ****     *
1779:.\Generated_Source\PSoC4/CyLib.c ****     * Summary:
1780:.\Generated_Source\PSoC4/CyLib.c ****     *  Reads the enabled status WDT counter.
1781:.\Generated_Source\PSoC4/CyLib.c ****     *
1782:.\Generated_Source\PSoC4/CyLib.c ****     * Parameters:
1783:.\Generated_Source\PSoC4/CyLib.c ****     *  None
ARM GAS  C:\DOCUME~1\Owner\LOCALS~1\Temp\cc3gLjSb.s 			page 70


1784:.\Generated_Source\PSoC4/CyLib.c ****     *
1785:.\Generated_Source\PSoC4/CyLib.c ****     * Return:
1786:.\Generated_Source\PSoC4/CyLib.c ****     *  Status of WDT counter:
1787:.\Generated_Source\PSoC4/CyLib.c ****     *   0 - counter is disabled
1788:.\Generated_Source\PSoC4/CyLib.c ****     *   1 - counter is enabled
1789:.\Generated_Source\PSoC4/CyLib.c ****     *
1790:.\Generated_Source\PSoC4/CyLib.c ****     *******************************************************************************/
1791:.\Generated_Source\PSoC4/CyLib.c ****     uint32 CySysWdtReadEnabledStatus(void)
1792:.\Generated_Source\PSoC4/CyLib.c ****     {
1793:.\Generated_Source\PSoC4/CyLib.c ****         return ((CY_SYS_WDT_DISABLE_KEY_REG == CY_SYS_WDT_KEY) ? (uint32) 0u : (uint32) 1u);
1794:.\Generated_Source\PSoC4/CyLib.c ****     }
1795:.\Generated_Source\PSoC4/CyLib.c **** 
1796:.\Generated_Source\PSoC4/CyLib.c **** 
1797:.\Generated_Source\PSoC4/CyLib.c ****     /*******************************************************************************
1798:.\Generated_Source\PSoC4/CyLib.c ****     * Function Name: CySysWdtEnable
1799:.\Generated_Source\PSoC4/CyLib.c ****     ********************************************************************************
1800:.\Generated_Source\PSoC4/CyLib.c ****     *
1801:.\Generated_Source\PSoC4/CyLib.c ****     * Summary:
1802:.\Generated_Source\PSoC4/CyLib.c ****     *  Enables the watchdog timer reset generation. The CySysWdtClearInterrupt()
1803:.\Generated_Source\PSoC4/CyLib.c ****     *  feeds the watch dog. Two unserviced interrupts will lead to a system reset
1804:.\Generated_Source\PSoC4/CyLib.c ****     *  (i.e. at the third match).
1805:.\Generated_Source\PSoC4/CyLib.c ****     *
1806:.\Generated_Source\PSoC4/CyLib.c ****     * Parameters:
1807:.\Generated_Source\PSoC4/CyLib.c ****     *  None
1808:.\Generated_Source\PSoC4/CyLib.c ****     *
1809:.\Generated_Source\PSoC4/CyLib.c ****     * Return:
1810:.\Generated_Source\PSoC4/CyLib.c ****     *  None
1811:.\Generated_Source\PSoC4/CyLib.c ****     *
1812:.\Generated_Source\PSoC4/CyLib.c ****     * Side Effects:
1813:.\Generated_Source\PSoC4/CyLib.c ****     *  The ILO is enabled by hardware once WDT is started.
1814:.\Generated_Source\PSoC4/CyLib.c ****     *
1815:.\Generated_Source\PSoC4/CyLib.c ****     *******************************************************************************/
1816:.\Generated_Source\PSoC4/CyLib.c ****     void CySysWdtEnable(void)
1817:.\Generated_Source\PSoC4/CyLib.c ****     {
1818:.\Generated_Source\PSoC4/CyLib.c ****         CY_SYS_WDT_DISABLE_KEY_REG = 0u;
1819:.\Generated_Source\PSoC4/CyLib.c ****     }
1820:.\Generated_Source\PSoC4/CyLib.c **** 
1821:.\Generated_Source\PSoC4/CyLib.c **** 
1822:.\Generated_Source\PSoC4/CyLib.c ****     /*******************************************************************************
1823:.\Generated_Source\PSoC4/CyLib.c ****     * Function Name: CySysWdtDisable
1824:.\Generated_Source\PSoC4/CyLib.c ****     ********************************************************************************
1825:.\Generated_Source\PSoC4/CyLib.c ****     *
1826:.\Generated_Source\PSoC4/CyLib.c ****     * Summary:
1827:.\Generated_Source\PSoC4/CyLib.c ****     *  Disables the WDT reset generation.
1828:.\Generated_Source\PSoC4/CyLib.c ****     *
1829:.\Generated_Source\PSoC4/CyLib.c ****     * Parameters:
1830:.\Generated_Source\PSoC4/CyLib.c ****     *  None
1831:.\Generated_Source\PSoC4/CyLib.c ****     *
1832:.\Generated_Source\PSoC4/CyLib.c ****     * Return:
1833:.\Generated_Source\PSoC4/CyLib.c ****     *  None
1834:.\Generated_Source\PSoC4/CyLib.c ****     *
1835:.\Generated_Source\PSoC4/CyLib.c ****     *******************************************************************************/
1836:.\Generated_Source\PSoC4/CyLib.c ****     void CySysWdtDisable(void)
1837:.\Generated_Source\PSoC4/CyLib.c ****     {
1838:.\Generated_Source\PSoC4/CyLib.c ****         CY_SYS_WDT_DISABLE_KEY_REG = CY_SYS_WDT_KEY;
1839:.\Generated_Source\PSoC4/CyLib.c ****     }
1840:.\Generated_Source\PSoC4/CyLib.c **** 
ARM GAS  C:\DOCUME~1\Owner\LOCALS~1\Temp\cc3gLjSb.s 			page 71


1841:.\Generated_Source\PSoC4/CyLib.c **** 
1842:.\Generated_Source\PSoC4/CyLib.c ****     /*******************************************************************************
1843:.\Generated_Source\PSoC4/CyLib.c ****     * Function Name: CySysWdtWriteMatch
1844:.\Generated_Source\PSoC4/CyLib.c ****     ********************************************************************************
1845:.\Generated_Source\PSoC4/CyLib.c ****     *
1846:.\Generated_Source\PSoC4/CyLib.c ****     * Summary:
1847:.\Generated_Source\PSoC4/CyLib.c ****     *  Configures the WDT counter match comparison value.
1848:.\Generated_Source\PSoC4/CyLib.c ****     *
1849:.\Generated_Source\PSoC4/CyLib.c ****     * Parameters:
1850:.\Generated_Source\PSoC4/CyLib.c ****     *  match:
1851:.\Generated_Source\PSoC4/CyLib.c ****     *   Valid range [0-65535]. Value to be used to match against the counter.
1852:.\Generated_Source\PSoC4/CyLib.c ****     *
1853:.\Generated_Source\PSoC4/CyLib.c ****     * Return:
1854:.\Generated_Source\PSoC4/CyLib.c ****     *  None
1855:.\Generated_Source\PSoC4/CyLib.c ****     *
1856:.\Generated_Source\PSoC4/CyLib.c ****     *******************************************************************************/
1857:.\Generated_Source\PSoC4/CyLib.c ****     void CySysWdtWriteMatch(uint32 match)
1858:.\Generated_Source\PSoC4/CyLib.c ****     {
1859:.\Generated_Source\PSoC4/CyLib.c ****         CY_SYS_WDT_MATCH_REG = (CY_SYS_WDT_MATCH_REG & (uint32)(~ (uint32)CY_SYS_WDT_MATCH_MASK)) |
1860:.\Generated_Source\PSoC4/CyLib.c ****     }
1861:.\Generated_Source\PSoC4/CyLib.c **** 
1862:.\Generated_Source\PSoC4/CyLib.c **** 
1863:.\Generated_Source\PSoC4/CyLib.c ****     /*******************************************************************************
1864:.\Generated_Source\PSoC4/CyLib.c ****     * Function Name: CySysWdtReadMatch
1865:.\Generated_Source\PSoC4/CyLib.c ****     ********************************************************************************
1866:.\Generated_Source\PSoC4/CyLib.c ****     *
1867:.\Generated_Source\PSoC4/CyLib.c ****     * Summary:
1868:.\Generated_Source\PSoC4/CyLib.c ****     *  Reads the WDT counter match comparison value.
1869:.\Generated_Source\PSoC4/CyLib.c ****     *
1870:.\Generated_Source\PSoC4/CyLib.c ****     * Parameters:
1871:.\Generated_Source\PSoC4/CyLib.c ****     *  None
1872:.\Generated_Source\PSoC4/CyLib.c ****     *
1873:.\Generated_Source\PSoC4/CyLib.c ****     * Return:
1874:.\Generated_Source\PSoC4/CyLib.c ****     *  Counter match value.
1875:.\Generated_Source\PSoC4/CyLib.c ****     *
1876:.\Generated_Source\PSoC4/CyLib.c ****     *******************************************************************************/
1877:.\Generated_Source\PSoC4/CyLib.c ****     uint32 CySysWdtReadMatch(void)
1878:.\Generated_Source\PSoC4/CyLib.c ****     {
1879:.\Generated_Source\PSoC4/CyLib.c ****         return (CY_SYS_WDT_MATCH_REG & CY_SYS_WDT_MATCH_MASK);
1880:.\Generated_Source\PSoC4/CyLib.c ****     }
1881:.\Generated_Source\PSoC4/CyLib.c **** 
1882:.\Generated_Source\PSoC4/CyLib.c **** 
1883:.\Generated_Source\PSoC4/CyLib.c ****     /*******************************************************************************
1884:.\Generated_Source\PSoC4/CyLib.c ****     * Function Name: CySysWdtReadCount
1885:.\Generated_Source\PSoC4/CyLib.c ****     ********************************************************************************
1886:.\Generated_Source\PSoC4/CyLib.c ****     *
1887:.\Generated_Source\PSoC4/CyLib.c ****     * Summary:
1888:.\Generated_Source\PSoC4/CyLib.c ****     *  Reads the current WDT counter value.
1889:.\Generated_Source\PSoC4/CyLib.c ****     *
1890:.\Generated_Source\PSoC4/CyLib.c ****     * Parameters:
1891:.\Generated_Source\PSoC4/CyLib.c ****     *  None
1892:.\Generated_Source\PSoC4/CyLib.c ****     *
1893:.\Generated_Source\PSoC4/CyLib.c ****     * Return:
1894:.\Generated_Source\PSoC4/CyLib.c ****     *  Live counter value
1895:.\Generated_Source\PSoC4/CyLib.c ****     *
1896:.\Generated_Source\PSoC4/CyLib.c ****     *******************************************************************************/
1897:.\Generated_Source\PSoC4/CyLib.c ****     uint32 CySysWdtReadCount(void)
ARM GAS  C:\DOCUME~1\Owner\LOCALS~1\Temp\cc3gLjSb.s 			page 72


1898:.\Generated_Source\PSoC4/CyLib.c ****     {
1899:.\Generated_Source\PSoC4/CyLib.c ****         return ((uint32)CY_SYS_WDT_COUNTER_REG);
1900:.\Generated_Source\PSoC4/CyLib.c ****     }
1901:.\Generated_Source\PSoC4/CyLib.c **** 
1902:.\Generated_Source\PSoC4/CyLib.c **** 
1903:.\Generated_Source\PSoC4/CyLib.c ****     /*******************************************************************************
1904:.\Generated_Source\PSoC4/CyLib.c ****     * Function Name: CySysWdtWriteIgnoreBits
1905:.\Generated_Source\PSoC4/CyLib.c ****     ********************************************************************************
1906:.\Generated_Source\PSoC4/CyLib.c ****     *
1907:.\Generated_Source\PSoC4/CyLib.c ****     * Summary:
1908:.\Generated_Source\PSoC4/CyLib.c ****     *  Configures the number of the MSB bits of the watchdog timer that are not
1909:.\Generated_Source\PSoC4/CyLib.c ****     *  checked against the match.
1910:.\Generated_Source\PSoC4/CyLib.c ****     *
1911:.\Generated_Source\PSoC4/CyLib.c ****     * Parameters:
1912:.\Generated_Source\PSoC4/CyLib.c ****     *  bitsNum:
1913:.\Generated_Source\PSoC4/CyLib.c ****     *   Valid range [0-15]. Number of MSB bits.
1914:.\Generated_Source\PSoC4/CyLib.c ****     *
1915:.\Generated_Source\PSoC4/CyLib.c ****     * Return:
1916:.\Generated_Source\PSoC4/CyLib.c ****     *  None
1917:.\Generated_Source\PSoC4/CyLib.c ****     *
1918:.\Generated_Source\PSoC4/CyLib.c ****     * Side Effects:
1919:.\Generated_Source\PSoC4/CyLib.c ****     *  The value of bitsNum provides control over the time-to-reset of the watchdog
1920:.\Generated_Source\PSoC4/CyLib.c ****     *  (which happens after 3 successive matches).
1921:.\Generated_Source\PSoC4/CyLib.c ****     *
1922:.\Generated_Source\PSoC4/CyLib.c ****     *******************************************************************************/
1923:.\Generated_Source\PSoC4/CyLib.c ****     void CySysWdtWriteIgnoreBits(uint32 bitsNum)
1924:.\Generated_Source\PSoC4/CyLib.c ****     {
1925:.\Generated_Source\PSoC4/CyLib.c ****         bitsNum = ((uint32)(bitsNum << CY_SYS_WDT_IGNORE_BITS_SHIFT) & CY_SYS_WDT_IGNORE_BITS_MASK)
1926:.\Generated_Source\PSoC4/CyLib.c ****         CY_SYS_WDT_MATCH_REG = (CY_SYS_WDT_MATCH_REG & (uint32)(~CY_SYS_WDT_IGNORE_BITS_MASK)) | bi
1927:.\Generated_Source\PSoC4/CyLib.c ****     }
1928:.\Generated_Source\PSoC4/CyLib.c **** 
1929:.\Generated_Source\PSoC4/CyLib.c **** 
1930:.\Generated_Source\PSoC4/CyLib.c ****     /*******************************************************************************
1931:.\Generated_Source\PSoC4/CyLib.c ****     * Function Name: CySysWdtReadIgnoreBits
1932:.\Generated_Source\PSoC4/CyLib.c ****     ********************************************************************************
1933:.\Generated_Source\PSoC4/CyLib.c ****     *
1934:.\Generated_Source\PSoC4/CyLib.c ****     * Summary:
1935:.\Generated_Source\PSoC4/CyLib.c ****     *  Reads the number of the  MSB bits of the watchdog timer that are not
1936:.\Generated_Source\PSoC4/CyLib.c ****     *  checked against the match.
1937:.\Generated_Source\PSoC4/CyLib.c ****     *
1938:.\Generated_Source\PSoC4/CyLib.c ****     * Parameters:
1939:.\Generated_Source\PSoC4/CyLib.c ****     *  None
1940:.\Generated_Source\PSoC4/CyLib.c ****     *
1941:.\Generated_Source\PSoC4/CyLib.c ****     * Return:
1942:.\Generated_Source\PSoC4/CyLib.c ****     *  Number of MSB bits.
1943:.\Generated_Source\PSoC4/CyLib.c ****     *
1944:.\Generated_Source\PSoC4/CyLib.c ****     *******************************************************************************/
1945:.\Generated_Source\PSoC4/CyLib.c ****     uint32 CySysWdtReadIgnoreBits(void)
1946:.\Generated_Source\PSoC4/CyLib.c ****     {
1947:.\Generated_Source\PSoC4/CyLib.c ****         return((uint32)((CY_SYS_WDT_MATCH_REG & CY_SYS_WDT_IGNORE_BITS_MASK) >> CY_SYS_WDT_IGNORE_B
1948:.\Generated_Source\PSoC4/CyLib.c ****     }
1949:.\Generated_Source\PSoC4/CyLib.c **** 
1950:.\Generated_Source\PSoC4/CyLib.c **** 
1951:.\Generated_Source\PSoC4/CyLib.c ****     /*******************************************************************************
1952:.\Generated_Source\PSoC4/CyLib.c ****     * Function Name: CySysWdtClearInterrupt
1953:.\Generated_Source\PSoC4/CyLib.c ****     ********************************************************************************
1954:.\Generated_Source\PSoC4/CyLib.c ****     *
ARM GAS  C:\DOCUME~1\Owner\LOCALS~1\Temp\cc3gLjSb.s 			page 73


1955:.\Generated_Source\PSoC4/CyLib.c ****     * Summary:
1956:.\Generated_Source\PSoC4/CyLib.c ****     *  Feeds the watch dog. Cleans the WDT match flag, which is set every time the
1957:.\Generated_Source\PSoC4/CyLib.c ****     *  WDT counter reaches a WDT match value.  Two unserviced interrupts will lead
1958:.\Generated_Source\PSoC4/CyLib.c ****     *  to a system reset (i.e. at the third match).
1959:.\Generated_Source\PSoC4/CyLib.c ****     *
1960:.\Generated_Source\PSoC4/CyLib.c ****     * Parameters:
1961:.\Generated_Source\PSoC4/CyLib.c ****     *  None
1962:.\Generated_Source\PSoC4/CyLib.c ****     *
1963:.\Generated_Source\PSoC4/CyLib.c ****     * Return:
1964:.\Generated_Source\PSoC4/CyLib.c ****     *  None
1965:.\Generated_Source\PSoC4/CyLib.c ****     *
1966:.\Generated_Source\PSoC4/CyLib.c ****     *******************************************************************************/
1967:.\Generated_Source\PSoC4/CyLib.c ****     void CySysWdtClearInterrupt(void)
1968:.\Generated_Source\PSoC4/CyLib.c ****     {
1969:.\Generated_Source\PSoC4/CyLib.c ****         CY_SYS_SRSS_INTR_REG |= CY_SYS_WDT_LOWER_BIT_MASK;
1970:.\Generated_Source\PSoC4/CyLib.c ****     }
1971:.\Generated_Source\PSoC4/CyLib.c **** 
1972:.\Generated_Source\PSoC4/CyLib.c **** 
1973:.\Generated_Source\PSoC4/CyLib.c ****     /*******************************************************************************
1974:.\Generated_Source\PSoC4/CyLib.c ****     * Function Name: CySysWdtMaskInterrupt
1975:.\Generated_Source\PSoC4/CyLib.c ****     ********************************************************************************
1976:.\Generated_Source\PSoC4/CyLib.c ****     *
1977:.\Generated_Source\PSoC4/CyLib.c ****     * Summary:
1978:.\Generated_Source\PSoC4/CyLib.c ****     *  After masking interrupts from the WDT, they are not passed to the CPU.
1979:.\Generated_Source\PSoC4/CyLib.c ****     *  This function does not disable the WDT reset generation.
1980:.\Generated_Source\PSoC4/CyLib.c ****     *
1981:.\Generated_Source\PSoC4/CyLib.c ****     * Parameters:
1982:.\Generated_Source\PSoC4/CyLib.c ****     *  None
1983:.\Generated_Source\PSoC4/CyLib.c ****     *
1984:.\Generated_Source\PSoC4/CyLib.c ****     * Return:
1985:.\Generated_Source\PSoC4/CyLib.c ****     *  None
1986:.\Generated_Source\PSoC4/CyLib.c ****     *
1987:.\Generated_Source\PSoC4/CyLib.c ****     *******************************************************************************/
1988:.\Generated_Source\PSoC4/CyLib.c ****     void CySysWdtMaskInterrupt(void)
1989:.\Generated_Source\PSoC4/CyLib.c ****     {
1990:.\Generated_Source\PSoC4/CyLib.c ****         CY_SYS_SRSS_INTR_MASK_REG &= (uint32)(~ (uint32)CY_SYS_WDT_LOWER_BIT_MASK);
1991:.\Generated_Source\PSoC4/CyLib.c ****     }
1992:.\Generated_Source\PSoC4/CyLib.c **** 
1993:.\Generated_Source\PSoC4/CyLib.c **** 
1994:.\Generated_Source\PSoC4/CyLib.c ****     /*******************************************************************************
1995:.\Generated_Source\PSoC4/CyLib.c ****     * Function Name: CySysWdtUnmaskInterrupt
1996:.\Generated_Source\PSoC4/CyLib.c ****     ********************************************************************************
1997:.\Generated_Source\PSoC4/CyLib.c ****     *
1998:.\Generated_Source\PSoC4/CyLib.c ****     * Summary:
1999:.\Generated_Source\PSoC4/CyLib.c ****     *  Unmasks WDT interrupts.
2000:.\Generated_Source\PSoC4/CyLib.c ****     *
2001:.\Generated_Source\PSoC4/CyLib.c ****     * Parameters:
2002:.\Generated_Source\PSoC4/CyLib.c ****     *  None
2003:.\Generated_Source\PSoC4/CyLib.c ****     *
2004:.\Generated_Source\PSoC4/CyLib.c ****     * Return:
2005:.\Generated_Source\PSoC4/CyLib.c ****     *  None
2006:.\Generated_Source\PSoC4/CyLib.c ****     *
2007:.\Generated_Source\PSoC4/CyLib.c ****     *******************************************************************************/
2008:.\Generated_Source\PSoC4/CyLib.c ****     void CySysWdtUnmaskInterrupt(void)
2009:.\Generated_Source\PSoC4/CyLib.c ****     {
2010:.\Generated_Source\PSoC4/CyLib.c ****         CY_SYS_SRSS_INTR_MASK_REG |= CY_SYS_WDT_LOWER_BIT_MASK;
2011:.\Generated_Source\PSoC4/CyLib.c ****     }
ARM GAS  C:\DOCUME~1\Owner\LOCALS~1\Temp\cc3gLjSb.s 			page 74


2012:.\Generated_Source\PSoC4/CyLib.c **** 
2013:.\Generated_Source\PSoC4/CyLib.c **** #endif /* (CY_IP_SRSSV2) */
2014:.\Generated_Source\PSoC4/CyLib.c **** 
2015:.\Generated_Source\PSoC4/CyLib.c **** 
2016:.\Generated_Source\PSoC4/CyLib.c **** #if(CY_IP_SRSSV2)
2017:.\Generated_Source\PSoC4/CyLib.c **** 
2018:.\Generated_Source\PSoC4/CyLib.c ****     /*******************************************************************************
2019:.\Generated_Source\PSoC4/CyLib.c ****     * Function Name: CySysLvdEnable
2020:.\Generated_Source\PSoC4/CyLib.c ****     ********************************************************************************
2021:.\Generated_Source\PSoC4/CyLib.c ****     *
2022:.\Generated_Source\PSoC4/CyLib.c ****     * Summary:
2023:.\Generated_Source\PSoC4/CyLib.c ****     *  Enables the output of the low-voltage monitor when Vddd is at or below the
2024:.\Generated_Source\PSoC4/CyLib.c ****     *  trip point, configures the device to generate an interrupt, and sets the voltage
2025:.\Generated_Source\PSoC4/CyLib.c ****     *  trip level.
2026:.\Generated_Source\PSoC4/CyLib.c ****     *
2027:.\Generated_Source\PSoC4/CyLib.c ****     * Parameters:
2028:.\Generated_Source\PSoC4/CyLib.c ****     *  threshold: Threshold selection for Low Voltage Detect circuit.
2029:.\Generated_Source\PSoC4/CyLib.c ****     *  Threshold variation is +/- 2.5% from these typical voltage choices.
2030:.\Generated_Source\PSoC4/CyLib.c ****     *         Define                     Voltage threshold
2031:.\Generated_Source\PSoC4/CyLib.c ****     *    CY_LVD_THRESHOLD_1_75_V       1.7500 V
2032:.\Generated_Source\PSoC4/CyLib.c ****     *    CY_LVD_THRESHOLD_1_80_V       1.8000 V
2033:.\Generated_Source\PSoC4/CyLib.c ****     *    CY_LVD_THRESHOLD_1_90_V       1.9000 V
2034:.\Generated_Source\PSoC4/CyLib.c ****     *    CY_LVD_THRESHOLD_2_00_V       2.0000 V
2035:.\Generated_Source\PSoC4/CyLib.c ****     *    CY_LVD_THRESHOLD_2_10_V       2.1000 V
2036:.\Generated_Source\PSoC4/CyLib.c ****     *    CY_LVD_THRESHOLD_2_20_V       2.2000 V
2037:.\Generated_Source\PSoC4/CyLib.c ****     *    CY_LVD_THRESHOLD_2_30_V       2.3000 V
2038:.\Generated_Source\PSoC4/CyLib.c ****     *    CY_LVD_THRESHOLD_2_40_V       2.4000 V
2039:.\Generated_Source\PSoC4/CyLib.c ****     *    CY_LVD_THRESHOLD_2_50_V       2.5000 V
2040:.\Generated_Source\PSoC4/CyLib.c ****     *    CY_LVD_THRESHOLD_2_60_V       2.6000 V
2041:.\Generated_Source\PSoC4/CyLib.c ****     *    CY_LVD_THRESHOLD_2_70_V       2.7000 V
2042:.\Generated_Source\PSoC4/CyLib.c ****     *    CY_LVD_THRESHOLD_2_80_V       2.8000 V
2043:.\Generated_Source\PSoC4/CyLib.c ****     *    CY_LVD_THRESHOLD_2_90_V       2.9000 V
2044:.\Generated_Source\PSoC4/CyLib.c ****     *    CY_LVD_THRESHOLD_3_00_V       3.0000 V
2045:.\Generated_Source\PSoC4/CyLib.c ****     *    CY_LVD_THRESHOLD_3_20_V       3.2000 V
2046:.\Generated_Source\PSoC4/CyLib.c ****     *    CY_LVD_THRESHOLD_4_50_V       4.5000 V
2047:.\Generated_Source\PSoC4/CyLib.c ****     *
2048:.\Generated_Source\PSoC4/CyLib.c ****     * Return:
2049:.\Generated_Source\PSoC4/CyLib.c ****     *  None
2050:.\Generated_Source\PSoC4/CyLib.c ****     *
2051:.\Generated_Source\PSoC4/CyLib.c ****     *******************************************************************************/
2052:.\Generated_Source\PSoC4/CyLib.c ****     void CySysLvdEnable(uint32 threshold)
2053:.\Generated_Source\PSoC4/CyLib.c ****     {
 2139              		.loc 1 2053 0
 2140              		.cfi_startproc
