ARM GAS  C:\DOCUME~1\Owner\LOCALS~1\Temp\cc3gLjSb.s 			page 1


   1              		.cpu cortex-m0
   2              		.fpu softvfp
   3              		.eabi_attribute 20, 1
   4              		.eabi_attribute 21, 1
   5              		.eabi_attribute 23, 3
   6              		.eabi_attribute 24, 1
   7              		.eabi_attribute 25, 1
   8              		.eabi_attribute 26, 1
   9              		.eabi_attribute 30, 6
  10              		.eabi_attribute 34, 0
  11              		.eabi_attribute 18, 4
  12              		.code	16
  13              		.file	"CyLib.c"
  14              		.text
  15              	.Ltext0:
  16              		.cfi_sections	.debug_frame
  17              		.global	cydelayFreqHz
  18              		.data
  19              		.align	2
  20              		.type	cydelayFreqHz, %object
  21              		.size	cydelayFreqHz, 4
  22              	cydelayFreqHz:
  23 0000 00366E01 		.word	24000000
  24              		.global	cydelayFreqKhz
  25              		.align	2
  26              		.type	cydelayFreqKhz, %object
  27              		.size	cydelayFreqKhz, 4
  28              	cydelayFreqKhz:
  29 0004 C05D0000 		.word	24000
  30              		.global	cydelayFreqMhz
  31              		.type	cydelayFreqMhz, %object
  32              		.size	cydelayFreqMhz, 1
  33              	cydelayFreqMhz:
  34 0008 18       		.byte	24
  35              		.global	cydelay32kMs
  36 0009 000000   		.align	2
  37              		.type	cydelay32kMs, %object
  38              		.size	cydelay32kMs, 4
  39              	cydelay32kMs:
  40 000c 0000E02E 		.word	786432000
  41              		.global	lfclkPosedgeWdtCounter0Enabled
  42              		.bss
  43              		.align	2
  44              		.type	lfclkPosedgeWdtCounter0Enabled, %object
  45              		.size	lfclkPosedgeWdtCounter0Enabled, 4
  46              	lfclkPosedgeWdtCounter0Enabled:
  47 0000 00000000 		.space	4
  48              		.global	lfclkPosedgeEnabledWdtCounter
  49              		.align	2
  50              		.type	lfclkPosedgeEnabledWdtCounter, %object
  51              		.size	lfclkPosedgeEnabledWdtCounter, 4
  52              	lfclkPosedgeEnabledWdtCounter:
  53 0004 00000000 		.space	4
  54              		.global	lfclkPosedgeWdtCounter0Mode
  55              		.align	2
  56              		.type	lfclkPosedgeWdtCounter0Mode, %object
  57              		.size	lfclkPosedgeWdtCounter0Mode, 4
ARM GAS  C:\DOCUME~1\Owner\LOCALS~1\Temp\cc3gLjSb.s 			page 2


  58              	lfclkPosedgeWdtCounter0Mode:
  59 0008 00000000 		.space	4
  60              		.align	2
  61              	CySysTickCallbacks:
  62 000c 00000000 		.space	20
  62      00000000 
  62      00000000 
  62      00000000 
  62      00000000 
  63              		.global	CySysTickInitVar
  64              		.align	2
  65              		.type	CySysTickInitVar, %object
  66              		.size	CySysTickInitVar, 4
  67              	CySysTickInitVar:
  68 0020 00000000 		.space	4
  69              		.global	cyImoFreqMhz2Reg
  70              		.section	.rodata
  71              		.align	2
  72              		.type	cyImoFreqMhz2Reg, %object
  73              		.size	cyImoFreqMhz2Reg, 46
  74              	cyImoFreqMhz2Reg:
  75 0000 03       		.byte	3
  76 0001 04       		.byte	4
  77 0002 05       		.byte	5
  78 0003 06       		.byte	6
  79 0004 07       		.byte	7
  80 0005 08       		.byte	8
  81 0006 09       		.byte	9
  82 0007 0A       		.byte	10
  83 0008 0B       		.byte	11
  84 0009 0C       		.byte	12
  85 000a 0E       		.byte	14
  86 000b 0F       		.byte	15
  87 000c 10       		.byte	16
  88 000d 11       		.byte	17
  89 000e 12       		.byte	18
  90 000f 13       		.byte	19
  91 0010 14       		.byte	20
  92 0011 15       		.byte	21
  93 0012 16       		.byte	22
  94 0013 17       		.byte	23
  95 0014 18       		.byte	24
  96 0015 19       		.byte	25
  97 0016 1B       		.byte	27
  98 0017 1C       		.byte	28
  99 0018 1D       		.byte	29
 100 0019 1E       		.byte	30
 101 001a 1F       		.byte	31
 102 001b 20       		.byte	32
 103 001c 21       		.byte	33
 104 001d 22       		.byte	34
 105 001e 23       		.byte	35
 106 001f 25       		.byte	37
 107 0020 26       		.byte	38
 108 0021 27       		.byte	39
 109 0022 28       		.byte	40
 110 0023 29       		.byte	41
ARM GAS  C:\DOCUME~1\Owner\LOCALS~1\Temp\cc3gLjSb.s 			page 3


 111 0024 2A       		.byte	42
 112 0025 2B       		.byte	43
 113 0026 2E       		.byte	46
 114 0027 2F       		.byte	47
 115 0028 30       		.byte	48
 116 0029 31       		.byte	49
 117 002a 32       		.byte	50
 118 002b 33       		.byte	51
 119 002c 34       		.byte	52
 120 002d 35       		.byte	53
 121 002e 0000     		.section	.text.CySysClkImoStart,"ax",%progbits
 122              		.align	2
 123              		.global	CySysClkImoStart
 124              		.code	16
 125              		.thumb_func
 126              		.type	CySysClkImoStart, %function
 127              	CySysClkImoStart:
 128              	.LFB0:
 129              		.file 1 ".\\Generated_Source\\PSoC4\\CyLib.c"
   1:.\Generated_Source\PSoC4/CyLib.c **** /*******************************************************************************
   2:.\Generated_Source\PSoC4/CyLib.c **** * File Name: CyLib.c
   3:.\Generated_Source\PSoC4/CyLib.c **** * Version 4.20
   4:.\Generated_Source\PSoC4/CyLib.c **** *
   5:.\Generated_Source\PSoC4/CyLib.c **** *  Description:
   6:.\Generated_Source\PSoC4/CyLib.c **** *   Provides a system API for the clocking, interrupts, and watchdog timer.
   7:.\Generated_Source\PSoC4/CyLib.c **** *
   8:.\Generated_Source\PSoC4/CyLib.c **** *  Note:
   9:.\Generated_Source\PSoC4/CyLib.c **** *   Documentation of the API's in this file is located in the
  10:.\Generated_Source\PSoC4/CyLib.c **** *   System Reference Guide provided with PSoC Creator.
  11:.\Generated_Source\PSoC4/CyLib.c **** *
  12:.\Generated_Source\PSoC4/CyLib.c **** ********************************************************************************
  13:.\Generated_Source\PSoC4/CyLib.c **** * Copyright 2010-2014, Cypress Semiconductor Corporation.  All rights reserved.
  14:.\Generated_Source\PSoC4/CyLib.c **** * You may use this file only in accordance with the license, terms, conditions,
  15:.\Generated_Source\PSoC4/CyLib.c **** * disclaimers, and limitations in the end user license agreement accompanying
  16:.\Generated_Source\PSoC4/CyLib.c **** * the software package with which this file was provided.
  17:.\Generated_Source\PSoC4/CyLib.c **** *******************************************************************************/
  18:.\Generated_Source\PSoC4/CyLib.c **** 
  19:.\Generated_Source\PSoC4/CyLib.c **** #include "CyLib.h"
  20:.\Generated_Source\PSoC4/CyLib.c **** 
  21:.\Generated_Source\PSoC4/CyLib.c **** 
  22:.\Generated_Source\PSoC4/CyLib.c **** /* Do not use these definitions directly in your application */
  23:.\Generated_Source\PSoC4/CyLib.c **** uint32 cydelayFreqHz  = CYDEV_BCLK__SYSCLK__HZ;
  24:.\Generated_Source\PSoC4/CyLib.c **** uint32 cydelayFreqKhz = (CYDEV_BCLK__SYSCLK__HZ + CY_DELAY_1K_MINUS_1_THRESHOLD) / CY_DELAY_1K_THRE
  25:.\Generated_Source\PSoC4/CyLib.c **** uint8  cydelayFreqMhz = (uint8)((CYDEV_BCLK__SYSCLK__HZ + CY_DELAY_1M_MINUS_1_THRESHOLD) / CY_DELAY
  26:.\Generated_Source\PSoC4/CyLib.c **** uint32 cydelay32kMs   = CY_DELAY_MS_OVERFLOW * ((CYDEV_BCLK__SYSCLK__HZ + CY_DELAY_1K_MINUS_1_THRES
  27:.\Generated_Source\PSoC4/CyLib.c ****                         CY_DELAY_1K_THRESHOLD);
  28:.\Generated_Source\PSoC4/CyLib.c **** 
  29:.\Generated_Source\PSoC4/CyLib.c **** #if (CY_IP_WCO)
  30:.\Generated_Source\PSoC4/CyLib.c ****     static uint32 CySysClkGetLfclkSource(void);
  31:.\Generated_Source\PSoC4/CyLib.c **** #endif /* (CY_IP_WCO) */
  32:.\Generated_Source\PSoC4/CyLib.c **** 
  33:.\Generated_Source\PSoC4/CyLib.c **** #if(CY_IP_SRSSV2)
  34:.\Generated_Source\PSoC4/CyLib.c ****     /* CySysClkLfclkPosedgeCatch() / CySysClkLfclkPosedgeRestore() */
  35:.\Generated_Source\PSoC4/CyLib.c ****     uint32 lfclkPosedgeWdtCounter0Enabled = 0u;
  36:.\Generated_Source\PSoC4/CyLib.c ****     uint32 lfclkPosedgeEnabledWdtCounter  = 0u;
  37:.\Generated_Source\PSoC4/CyLib.c ****     uint32 lfclkPosedgeWdtCounter0Mode    = CY_SYS_WDT_MODE_NONE;
  38:.\Generated_Source\PSoC4/CyLib.c **** 
ARM GAS  C:\DOCUME~1\Owner\LOCALS~1\Temp\cc3gLjSb.s 			page 4


  39:.\Generated_Source\PSoC4/CyLib.c ****     static void CySysClkLfclkPosedgeCatch(void);
  40:.\Generated_Source\PSoC4/CyLib.c ****     static void CySysClkLfclkPosedgeRestore(void);
  41:.\Generated_Source\PSoC4/CyLib.c **** 
  42:.\Generated_Source\PSoC4/CyLib.c ****     static uint32 CySysWdtLocked(void);
  43:.\Generated_Source\PSoC4/CyLib.c ****     static uint32 CySysClkIloEnabled(void);
  44:.\Generated_Source\PSoC4/CyLib.c ****     #if (CY_IP_WCO)
  45:.\Generated_Source\PSoC4/CyLib.c ****         static uint32 CySysClkWcoEnabled(void);
  46:.\Generated_Source\PSoC4/CyLib.c ****     #endif /* (CY_IP_WCO) */
  47:.\Generated_Source\PSoC4/CyLib.c **** #endif /* (CY_IP_SRSSV2) */
  48:.\Generated_Source\PSoC4/CyLib.c **** 
  49:.\Generated_Source\PSoC4/CyLib.c **** 
  50:.\Generated_Source\PSoC4/CyLib.c **** static cySysTickCallback CySysTickCallbacks[CY_SYS_SYST_NUM_OF_CALLBACKS];
  51:.\Generated_Source\PSoC4/CyLib.c **** static void CySysTickServiceCallbacks(void);
  52:.\Generated_Source\PSoC4/CyLib.c **** uint32 CySysTickInitVar = 0u;
  53:.\Generated_Source\PSoC4/CyLib.c **** 
  54:.\Generated_Source\PSoC4/CyLib.c **** 
  55:.\Generated_Source\PSoC4/CyLib.c **** #if(CY_IP_SRSSV2)
  56:.\Generated_Source\PSoC4/CyLib.c ****         /* Conversion between CySysClkWriteImoFreq() parameter and register's value */
  57:.\Generated_Source\PSoC4/CyLib.c ****         const uint8 cyImoFreqMhz2Reg[CY_SYS_CLK_IMO_FREQ_TABLE_SIZE] = {
  58:.\Generated_Source\PSoC4/CyLib.c ****             /*  3 MHz */ 0x03u,  /*  4 MHz */ 0x04u,  /*  5 MHz */ 0x05u,  /*  6 MHz */ 0x06u,
  59:.\Generated_Source\PSoC4/CyLib.c ****             /*  7 MHz */ 0x07u,  /*  8 MHz */ 0x08u,  /*  9 MHz */ 0x09u,  /* 10 MHz */ 0x0Au,
  60:.\Generated_Source\PSoC4/CyLib.c ****             /* 11 MHz */ 0x0Bu,  /* 12 MHz */ 0x0Cu,  /* 13 MHz */ 0x0Eu,  /* 14 MHz */ 0x0Fu,
  61:.\Generated_Source\PSoC4/CyLib.c ****             /* 15 MHz */ 0x10u,  /* 16 MHz */ 0x11u,  /* 17 MHz */ 0x12u,  /* 18 MHz */ 0x13u,
  62:.\Generated_Source\PSoC4/CyLib.c ****             /* 19 MHz */ 0x14u,  /* 20 MHz */ 0x15u,  /* 21 MHz */ 0x16u,  /* 22 MHz */ 0x17u,
  63:.\Generated_Source\PSoC4/CyLib.c ****             /* 23 MHz */ 0x18u,  /* 24 MHz */ 0x19u,  /* 25 MHz */ 0x1Bu,  /* 26 MHz */ 0x1Cu,
  64:.\Generated_Source\PSoC4/CyLib.c ****             /* 27 MHz */ 0x1Du,  /* 28 MHz */ 0x1Eu,  /* 29 MHz */ 0x1Fu,  /* 30 MHz */ 0x20u,
  65:.\Generated_Source\PSoC4/CyLib.c ****             /* 31 MHz */ 0x21u,  /* 32 MHz */ 0x22u,  /* 33 MHz */ 0x23u,  /* 34 MHz */ 0x25u,
  66:.\Generated_Source\PSoC4/CyLib.c ****             /* 35 MHz */ 0x26u,  /* 36 MHz */ 0x27u,  /* 37 MHz */ 0x28u,  /* 38 MHz */ 0x29u,
  67:.\Generated_Source\PSoC4/CyLib.c ****             /* 39 MHz */ 0x2Au,  /* 40 MHz */ 0x2Bu,  /* 41 MHz */ 0x2Eu,  /* 42 MHz */ 0x2Fu,
  68:.\Generated_Source\PSoC4/CyLib.c ****             /* 43 MHz */ 0x30u,  /* 44 MHz */ 0x31u,  /* 45 MHz */ 0x32u,  /* 46 MHz */ 0x33u,
  69:.\Generated_Source\PSoC4/CyLib.c ****             /* 47 MHz */ 0x34u,  /* 48 MHz */ 0x35u };
  70:.\Generated_Source\PSoC4/CyLib.c **** #endif /* (CY_IP_SRSSV2) */
  71:.\Generated_Source\PSoC4/CyLib.c **** 
  72:.\Generated_Source\PSoC4/CyLib.c **** 
  73:.\Generated_Source\PSoC4/CyLib.c **** /*******************************************************************************
  74:.\Generated_Source\PSoC4/CyLib.c **** * Function Name: CySysClkImoStart
  75:.\Generated_Source\PSoC4/CyLib.c **** ********************************************************************************
  76:.\Generated_Source\PSoC4/CyLib.c **** *
  77:.\Generated_Source\PSoC4/CyLib.c **** * Summary:
  78:.\Generated_Source\PSoC4/CyLib.c **** *  Enables the IMO.
  79:.\Generated_Source\PSoC4/CyLib.c **** *
  80:.\Generated_Source\PSoC4/CyLib.c **** * Parameters:
  81:.\Generated_Source\PSoC4/CyLib.c **** *  None
  82:.\Generated_Source\PSoC4/CyLib.c **** *
  83:.\Generated_Source\PSoC4/CyLib.c **** * Return:
  84:.\Generated_Source\PSoC4/CyLib.c **** *  None
  85:.\Generated_Source\PSoC4/CyLib.c **** *
  86:.\Generated_Source\PSoC4/CyLib.c **** *******************************************************************************/
  87:.\Generated_Source\PSoC4/CyLib.c **** void CySysClkImoStart(void)
  88:.\Generated_Source\PSoC4/CyLib.c **** {
 130              		.loc 1 88 0
 131              		.cfi_startproc
 132 0000 80B5     		push	{r7, lr}
 133              		.cfi_def_cfa_offset 8
 134              		.cfi_offset 7, -8
 135              		.cfi_offset 14, -4
 136 0002 00AF     		add	r7, sp, #0
ARM GAS  C:\DOCUME~1\Owner\LOCALS~1\Temp\cc3gLjSb.s 			page 5


 137              		.cfi_def_cfa_register 7
  89:.\Generated_Source\PSoC4/CyLib.c ****     CY_SYS_CLK_IMO_CONFIG_REG |= CY_SYS_CLK_IMO_CONFIG_ENABLE;
 138              		.loc 1 89 0
 139 0004 044B     		ldr	r3, .L2
 140 0006 044A     		ldr	r2, .L2
 141 0008 1268     		ldr	r2, [r2]
 142 000a 8021     		mov	r1, #128
 143 000c 0906     		lsl	r1, r1, #24
 144 000e 0A43     		orr	r2, r1
 145 0010 1A60     		str	r2, [r3]
  90:.\Generated_Source\PSoC4/CyLib.c **** }
 146              		.loc 1 90 0
 147 0012 BD46     		mov	sp, r7
 148              		@ sp needed
 149 0014 80BD     		pop	{r7, pc}
 150              	.L3:
 151 0016 C046     		.align	2
 152              	.L2:
 153 0018 08010B40 		.word	1074462984
 154              		.cfi_endproc
 155              	.LFE0:
 156              		.size	CySysClkImoStart, .-CySysClkImoStart
 157              		.section	.text.CySysClkImoStop,"ax",%progbits
 158              		.align	2
 159              		.global	CySysClkImoStop
 160              		.code	16
 161              		.thumb_func
 162              		.type	CySysClkImoStop, %function
 163              	CySysClkImoStop:
 164              	.LFB1:
  91:.\Generated_Source\PSoC4/CyLib.c **** 
  92:.\Generated_Source\PSoC4/CyLib.c **** 
  93:.\Generated_Source\PSoC4/CyLib.c **** /*******************************************************************************
  94:.\Generated_Source\PSoC4/CyLib.c **** * Function Name: CySysClkImoStop
  95:.\Generated_Source\PSoC4/CyLib.c **** ********************************************************************************
  96:.\Generated_Source\PSoC4/CyLib.c **** *
  97:.\Generated_Source\PSoC4/CyLib.c **** * Summary:
  98:.\Generated_Source\PSoC4/CyLib.c **** *  Disables the IMO.
  99:.\Generated_Source\PSoC4/CyLib.c **** *
 100:.\Generated_Source\PSoC4/CyLib.c **** * Parameters:
 101:.\Generated_Source\PSoC4/CyLib.c **** *  None
 102:.\Generated_Source\PSoC4/CyLib.c **** *
 103:.\Generated_Source\PSoC4/CyLib.c **** * Return:
 104:.\Generated_Source\PSoC4/CyLib.c **** *  None
 105:.\Generated_Source\PSoC4/CyLib.c **** *
 106:.\Generated_Source\PSoC4/CyLib.c **** *******************************************************************************/
 107:.\Generated_Source\PSoC4/CyLib.c **** void CySysClkImoStop(void)
 108:.\Generated_Source\PSoC4/CyLib.c **** {
 165              		.loc 1 108 0
 166              		.cfi_startproc
 167 0000 80B5     		push	{r7, lr}
 168              		.cfi_def_cfa_offset 8
 169              		.cfi_offset 7, -8
 170              		.cfi_offset 14, -4
 171 0002 00AF     		add	r7, sp, #0
 172              		.cfi_def_cfa_register 7
 109:.\Generated_Source\PSoC4/CyLib.c ****     CY_SYS_CLK_IMO_CONFIG_REG &= ( uint32 ) ( ~( uint32 )CY_SYS_CLK_IMO_CONFIG_ENABLE);
ARM GAS  C:\DOCUME~1\Owner\LOCALS~1\Temp\cc3gLjSb.s 			page 6


 173              		.loc 1 109 0
 174 0004 034B     		ldr	r3, .L5
 175 0006 034A     		ldr	r2, .L5
 176 0008 1268     		ldr	r2, [r2]
 177 000a 5200     		lsl	r2, r2, #1
 178 000c 5208     		lsr	r2, r2, #1
 179 000e 1A60     		str	r2, [r3]
 110:.\Generated_Source\PSoC4/CyLib.c **** }
 180              		.loc 1 110 0
 181 0010 BD46     		mov	sp, r7
 182              		@ sp needed
 183 0012 80BD     		pop	{r7, pc}
 184              	.L6:
 185              		.align	2
 186              	.L5:
 187 0014 08010B40 		.word	1074462984
 188              		.cfi_endproc
 189              	.LFE1:
 190              		.size	CySysClkImoStop, .-CySysClkImoStop
 191              		.section	.text.CySysClkIloStart,"ax",%progbits
 192              		.align	2
 193              		.global	CySysClkIloStart
 194              		.code	16
 195              		.thumb_func
 196              		.type	CySysClkIloStart, %function
 197              	CySysClkIloStart:
 198              	.LFB2:
 111:.\Generated_Source\PSoC4/CyLib.c **** 
 112:.\Generated_Source\PSoC4/CyLib.c **** 
 113:.\Generated_Source\PSoC4/CyLib.c **** /*******************************************************************************
 114:.\Generated_Source\PSoC4/CyLib.c **** * Function Name: CySysClkIloStart
 115:.\Generated_Source\PSoC4/CyLib.c **** ********************************************************************************
 116:.\Generated_Source\PSoC4/CyLib.c **** *
 117:.\Generated_Source\PSoC4/CyLib.c **** * Summary:
 118:.\Generated_Source\PSoC4/CyLib.c **** *  Enables the ILO. Refer to the device datasheet for the ILO startup time.
 119:.\Generated_Source\PSoC4/CyLib.c **** *
 120:.\Generated_Source\PSoC4/CyLib.c **** * Parameters:
 121:.\Generated_Source\PSoC4/CyLib.c **** *  None
 122:.\Generated_Source\PSoC4/CyLib.c **** *
 123:.\Generated_Source\PSoC4/CyLib.c **** * Return:
 124:.\Generated_Source\PSoC4/CyLib.c **** *  None
 125:.\Generated_Source\PSoC4/CyLib.c **** *
 126:.\Generated_Source\PSoC4/CyLib.c **** *******************************************************************************/
 127:.\Generated_Source\PSoC4/CyLib.c **** void CySysClkIloStart(void)
 128:.\Generated_Source\PSoC4/CyLib.c **** {
 199              		.loc 1 128 0
 200              		.cfi_startproc
 201 0000 80B5     		push	{r7, lr}
 202              		.cfi_def_cfa_offset 8
 203              		.cfi_offset 7, -8
 204              		.cfi_offset 14, -4
 205 0002 00AF     		add	r7, sp, #0
 206              		.cfi_def_cfa_register 7
 129:.\Generated_Source\PSoC4/CyLib.c ****     CY_SYS_CLK_ILO_CONFIG_REG |= CY_SYS_CLK_ILO_CONFIG_ENABLE;
 207              		.loc 1 129 0
 208 0004 044B     		ldr	r3, .L8
 209 0006 044A     		ldr	r2, .L8
ARM GAS  C:\DOCUME~1\Owner\LOCALS~1\Temp\cc3gLjSb.s 			page 7


 210 0008 1268     		ldr	r2, [r2]
 211 000a 8021     		mov	r1, #128
 212 000c 0906     		lsl	r1, r1, #24
 213 000e 0A43     		orr	r2, r1
 214 0010 1A60     		str	r2, [r3]
 130:.\Generated_Source\PSoC4/CyLib.c **** }
 215              		.loc 1 130 0
 216 0012 BD46     		mov	sp, r7
 217              		@ sp needed
 218 0014 80BD     		pop	{r7, pc}
 219              	.L9:
 220 0016 C046     		.align	2
 221              	.L8:
 222 0018 04010B40 		.word	1074462980
 223              		.cfi_endproc
 224              	.LFE2:
 225              		.size	CySysClkIloStart, .-CySysClkIloStart
 226              		.section	.text.CySysClkIloStop,"ax",%progbits
 227              		.align	2
 228              		.global	CySysClkIloStop
 229              		.code	16
 230              		.thumb_func
 231              		.type	CySysClkIloStop, %function
 232              	CySysClkIloStop:
 233              	.LFB3:
 131:.\Generated_Source\PSoC4/CyLib.c **** 
 132:.\Generated_Source\PSoC4/CyLib.c **** 
 133:.\Generated_Source\PSoC4/CyLib.c **** /*******************************************************************************
 134:.\Generated_Source\PSoC4/CyLib.c **** * Function Name: CySysClkIloStop
 135:.\Generated_Source\PSoC4/CyLib.c **** ********************************************************************************
 136:.\Generated_Source\PSoC4/CyLib.c **** *
 137:.\Generated_Source\PSoC4/CyLib.c **** * Summary:
 138:.\Generated_Source\PSoC4/CyLib.c **** *  Disables the ILO.
 139:.\Generated_Source\PSoC4/CyLib.c **** *
 140:.\Generated_Source\PSoC4/CyLib.c **** * Parameters:
 141:.\Generated_Source\PSoC4/CyLib.c **** *  None
 142:.\Generated_Source\PSoC4/CyLib.c **** *
 143:.\Generated_Source\PSoC4/CyLib.c **** * Return:
 144:.\Generated_Source\PSoC4/CyLib.c **** *  None
 145:.\Generated_Source\PSoC4/CyLib.c **** *
 146:.\Generated_Source\PSoC4/CyLib.c **** * Side Effects:
 147:.\Generated_Source\PSoC4/CyLib.c **** *  This function will have no effect if the WDT is locked (CySysWdtLock() is
 148:.\Generated_Source\PSoC4/CyLib.c **** *  called). Call CySysWdtUnlock() to unlock the WDT and be able to stop ILO.
 149:.\Generated_Source\PSoC4/CyLib.c **** *
 150:.\Generated_Source\PSoC4/CyLib.c **** *  PSoC 4100 / PSoC 4200: Note that ILO is required for WDT's operation.
 151:.\Generated_Source\PSoC4/CyLib.c **** *  The ILO is required for the WDT operation.
 152:.\Generated_Source\PSoC4/CyLib.c **** *
 153:.\Generated_Source\PSoC4/CyLib.c **** *  PSoC 4100-BL / PSoC 4200-BL:
 154:.\Generated_Source\PSoC4/CyLib.c **** *  Stopping the ILO will affect the peripheral clocked by the LFCLK, if the
 155:.\Generated_Source\PSoC4/CyLib.c **** *  LFCLK is configured to be sourced by the ILO.
 156:.\Generated_Source\PSoC4/CyLib.c **** *
 157:.\Generated_Source\PSoC4/CyLib.c **** *******************************************************************************/
 158:.\Generated_Source\PSoC4/CyLib.c **** void CySysClkIloStop(void)
 159:.\Generated_Source\PSoC4/CyLib.c **** {
 234              		.loc 1 159 0
 235              		.cfi_startproc
 236 0000 90B5     		push	{r4, r7, lr}
ARM GAS  C:\DOCUME~1\Owner\LOCALS~1\Temp\cc3gLjSb.s 			page 8


 237              		.cfi_def_cfa_offset 12
 238              		.cfi_offset 4, -12
 239              		.cfi_offset 7, -8
 240              		.cfi_offset 14, -4
 241 0002 83B0     		sub	sp, sp, #12
 242              		.cfi_def_cfa_offset 24
 243 0004 00AF     		add	r7, sp, #0
 244              		.cfi_def_cfa_register 7
 160:.\Generated_Source\PSoC4/CyLib.c ****     #if(CY_IP_SRSSV2)
 161:.\Generated_Source\PSoC4/CyLib.c ****         uint8  interruptState;
 162:.\Generated_Source\PSoC4/CyLib.c **** 
 163:.\Generated_Source\PSoC4/CyLib.c ****         /* Do nothing if WDT is locked or ILO is disabled */
 164:.\Generated_Source\PSoC4/CyLib.c ****         if (0u == CySysWdtLocked())
 245              		.loc 1 164 0
 246 0006 FFF7FEFF 		bl	CySysWdtLocked
 247 000a 031C     		mov	r3, r0
 248 000c 002B     		cmp	r3, #0
 249 000e 18D1     		bne	.L10
 165:.\Generated_Source\PSoC4/CyLib.c ****         {
 166:.\Generated_Source\PSoC4/CyLib.c ****             if (0u != CySysClkIloEnabled())
 250              		.loc 1 166 0
 251 0010 FFF7FEFF 		bl	CySysClkIloEnabled
 252 0014 031C     		mov	r3, r0
 253 0016 002B     		cmp	r3, #0
 254 0018 13D0     		beq	.L10
 167:.\Generated_Source\PSoC4/CyLib.c ****             {
 168:.\Generated_Source\PSoC4/CyLib.c **** 
 169:.\Generated_Source\PSoC4/CyLib.c ****             #if (CY_IP_WCO)
 170:.\Generated_Source\PSoC4/CyLib.c ****                 if (CY_SYS_CLK_LFCLK_SRC_ILO == CySysClkGetLfclkSource())
 171:.\Generated_Source\PSoC4/CyLib.c ****                 {
 172:.\Generated_Source\PSoC4/CyLib.c ****             #endif /* (CY_IP_WCO) */
 173:.\Generated_Source\PSoC4/CyLib.c **** 
 174:.\Generated_Source\PSoC4/CyLib.c ****                 interruptState = CyEnterCriticalSection();
 255              		.loc 1 174 0
 256 001a FC1D     		add	r4, r7, #7
 257 001c FFF7FEFF 		bl	CyEnterCriticalSection
 258 0020 031C     		mov	r3, r0
 259 0022 2370     		strb	r3, [r4]
 175:.\Generated_Source\PSoC4/CyLib.c ****                 CySysClkLfclkPosedgeCatch();
 260              		.loc 1 175 0
 261 0024 FFF7FEFF 		bl	CySysClkLfclkPosedgeCatch
 176:.\Generated_Source\PSoC4/CyLib.c ****                 CY_SYS_CLK_ILO_CONFIG_REG &= ( uint32 ) ( ~( uint32 )CY_SYS_CLK_ILO_CONFIG_ENABLE);
 262              		.loc 1 176 0
 263 0028 074B     		ldr	r3, .L12
 264 002a 074A     		ldr	r2, .L12
 265 002c 1268     		ldr	r2, [r2]
 266 002e 5200     		lsl	r2, r2, #1
 267 0030 5208     		lsr	r2, r2, #1
 268 0032 1A60     		str	r2, [r3]
 177:.\Generated_Source\PSoC4/CyLib.c ****                 CySysClkLfclkPosedgeRestore();
 269              		.loc 1 177 0
 270 0034 FFF7FEFF 		bl	CySysClkLfclkPosedgeRestore
 178:.\Generated_Source\PSoC4/CyLib.c ****                 CyExitCriticalSection(interruptState);
 271              		.loc 1 178 0
 272 0038 FB1D     		add	r3, r7, #7
 273 003a 1B78     		ldrb	r3, [r3]
 274 003c 181C     		mov	r0, r3
ARM GAS  C:\DOCUME~1\Owner\LOCALS~1\Temp\cc3gLjSb.s 			page 9


 275 003e FFF7FEFF 		bl	CyExitCriticalSection
 276              	.L10:
 179:.\Generated_Source\PSoC4/CyLib.c **** 
 180:.\Generated_Source\PSoC4/CyLib.c ****             #if (CY_IP_WCO)
 181:.\Generated_Source\PSoC4/CyLib.c ****                 }
 182:.\Generated_Source\PSoC4/CyLib.c ****                 else /* Safe to disable - shortened pulse does not impact peripheral */
 183:.\Generated_Source\PSoC4/CyLib.c ****                 {
 184:.\Generated_Source\PSoC4/CyLib.c ****                     CY_SYS_CLK_ILO_CONFIG_REG &= ( uint32 ) ( ~( uint32 )CY_SYS_CLK_ILO_CONFIG_ENAB
 185:.\Generated_Source\PSoC4/CyLib.c ****                 }
 186:.\Generated_Source\PSoC4/CyLib.c ****             #endif /* (CY_IP_WCO) */
 187:.\Generated_Source\PSoC4/CyLib.c **** 
 188:.\Generated_Source\PSoC4/CyLib.c ****             }
 189:.\Generated_Source\PSoC4/CyLib.c ****         }
 190:.\Generated_Source\PSoC4/CyLib.c ****     #else
 191:.\Generated_Source\PSoC4/CyLib.c ****         CY_SYS_CLK_ILO_CONFIG_REG &= ( uint32 ) ( ~( uint32 )CY_SYS_CLK_ILO_CONFIG_ENABLE);
 192:.\Generated_Source\PSoC4/CyLib.c ****     #endif /* (CY_IP_SRSSV2) */
 193:.\Generated_Source\PSoC4/CyLib.c **** }
 277              		.loc 1 193 0
 278 0042 BD46     		mov	sp, r7
 279 0044 03B0     		add	sp, sp, #12
 280              		@ sp needed
 281 0046 90BD     		pop	{r4, r7, pc}
 282              	.L13:
 283              		.align	2
 284              	.L12:
 285 0048 04010B40 		.word	1074462980
 286              		.cfi_endproc
 287              	.LFE3:
 288              		.size	CySysClkIloStop, .-CySysClkIloStop
 289              		.section	.text.CySysClkIloEnabled,"ax",%progbits
 290              		.align	2
 291              		.code	16
 292              		.thumb_func
 293              		.type	CySysClkIloEnabled, %function
 294              	CySysClkIloEnabled:
 295              	.LFB4:
 194:.\Generated_Source\PSoC4/CyLib.c **** 
 195:.\Generated_Source\PSoC4/CyLib.c **** #if(CY_IP_SRSSV2)
 196:.\Generated_Source\PSoC4/CyLib.c ****     /*******************************************************************************
 197:.\Generated_Source\PSoC4/CyLib.c ****     * Function Name: CySysClkIloEnabled
 198:.\Generated_Source\PSoC4/CyLib.c ****     ********************************************************************************
 199:.\Generated_Source\PSoC4/CyLib.c ****     *
 200:.\Generated_Source\PSoC4/CyLib.c ****     * Summary:
 201:.\Generated_Source\PSoC4/CyLib.c ****     *  Reports ILO enable state.
 202:.\Generated_Source\PSoC4/CyLib.c ****     *
 203:.\Generated_Source\PSoC4/CyLib.c ****     * Parameters:
 204:.\Generated_Source\PSoC4/CyLib.c ****     *  None
 205:.\Generated_Source\PSoC4/CyLib.c ****     *
 206:.\Generated_Source\PSoC4/CyLib.c ****     * Return:
 207:.\Generated_Source\PSoC4/CyLib.c ****     *  1 if ILO is enabled, and 0 if ILO is disabled.
 208:.\Generated_Source\PSoC4/CyLib.c ****     *
 209:.\Generated_Source\PSoC4/CyLib.c ****     *******************************************************************************/
 210:.\Generated_Source\PSoC4/CyLib.c ****     static uint32 CySysClkIloEnabled(void)
 211:.\Generated_Source\PSoC4/CyLib.c ****     {
 296              		.loc 1 211 0
 297              		.cfi_startproc
 298 0000 80B5     		push	{r7, lr}
ARM GAS  C:\DOCUME~1\Owner\LOCALS~1\Temp\cc3gLjSb.s 			page 10


 299              		.cfi_def_cfa_offset 8
 300              		.cfi_offset 7, -8
 301              		.cfi_offset 14, -4
 302 0002 00AF     		add	r7, sp, #0
 303              		.cfi_def_cfa_register 7
 212:.\Generated_Source\PSoC4/CyLib.c ****         /* Prohibits writing to WDT registers and ILO/WCO registers when not equal 0 */
 213:.\Generated_Source\PSoC4/CyLib.c ****         return ((0u != (CY_SYS_CLK_ILO_CONFIG_REG & (uint32)(CY_SYS_CLK_ILO_CONFIG_ENABLE))) ?
 304              		.loc 1 213 0
 305 0004 044B     		ldr	r3, .L18
 306 0006 1B68     		ldr	r3, [r3]
 214:.\Generated_Source\PSoC4/CyLib.c ****             (uint32) 1u :
 307              		.loc 1 214 0
 308 0008 002B     		cmp	r3, #0
 309 000a 01DA     		bge	.L15
 310              		.loc 1 214 0 is_stmt 0 discriminator 1
 311 000c 0123     		mov	r3, #1
 312 000e 00E0     		b	.L16
 313              	.L15:
 314              		.loc 1 214 0 discriminator 2
 315 0010 0023     		mov	r3, #0
 316              	.L16:
 215:.\Generated_Source\PSoC4/CyLib.c ****             (uint32) 0u);
 216:.\Generated_Source\PSoC4/CyLib.c ****     }
 317              		.loc 1 216 0 is_stmt 1
 318 0012 181C     		mov	r0, r3
 319 0014 BD46     		mov	sp, r7
 320              		@ sp needed
 321 0016 80BD     		pop	{r7, pc}
 322              	.L19:
 323              		.align	2
 324              	.L18:
 325 0018 04010B40 		.word	1074462980
 326              		.cfi_endproc
 327              	.LFE4:
 328              		.size	CySysClkIloEnabled, .-CySysClkIloEnabled
 329              		.section	.text.CySysClkWriteHfclkDirect,"ax",%progbits
 330              		.align	2
 331              		.global	CySysClkWriteHfclkDirect
 332              		.code	16
 333              		.thumb_func
 334              		.type	CySysClkWriteHfclkDirect, %function
 335              	CySysClkWriteHfclkDirect:
 336              	.LFB5:
 217:.\Generated_Source\PSoC4/CyLib.c **** #endif /* (CY_IP_SRSSV2) */
 218:.\Generated_Source\PSoC4/CyLib.c **** 
 219:.\Generated_Source\PSoC4/CyLib.c **** 
 220:.\Generated_Source\PSoC4/CyLib.c **** /*******************************************************************************
 221:.\Generated_Source\PSoC4/CyLib.c **** * Function Name: CySysClkGetLfclkSource
 222:.\Generated_Source\PSoC4/CyLib.c **** ********************************************************************************
 223:.\Generated_Source\PSoC4/CyLib.c **** *
 224:.\Generated_Source\PSoC4/CyLib.c **** * Summary:
 225:.\Generated_Source\PSoC4/CyLib.c **** *  Gets the clock source for the LFCLK clock.
 226:.\Generated_Source\PSoC4/CyLib.c **** *  The function is applicable only for the PSoC 4100-BL and PSoC 4200-BL.
 227:.\Generated_Source\PSoC4/CyLib.c **** *
 228:.\Generated_Source\PSoC4/CyLib.c **** * Parameters:
 229:.\Generated_Source\PSoC4/CyLib.c **** *  None
 230:.\Generated_Source\PSoC4/CyLib.c **** *
ARM GAS  C:\DOCUME~1\Owner\LOCALS~1\Temp\cc3gLjSb.s 			page 11


 231:.\Generated_Source\PSoC4/CyLib.c **** * Return:
 232:.\Generated_Source\PSoC4/CyLib.c **** *  The LFCLK source:
 233:.\Generated_Source\PSoC4/CyLib.c **** *   CY_SYS_CLK_LFCLK_SRC_ILO    Internal Low Frequency (32 kHz) Oscillator (ILO)
 234:.\Generated_Source\PSoC4/CyLib.c **** *   CY_SYS_CLK_LFCLK_SRC_WCO    Low Frequency Watch Crystal Oscillator (WCO)
 235:.\Generated_Source\PSoC4/CyLib.c **** *
 236:.\Generated_Source\PSoC4/CyLib.c **** *******************************************************************************/
 237:.\Generated_Source\PSoC4/CyLib.c **** #if (CY_IP_WCO)
 238:.\Generated_Source\PSoC4/CyLib.c ****     static uint32 CySysClkGetLfclkSource(void)
 239:.\Generated_Source\PSoC4/CyLib.c ****     {
 240:.\Generated_Source\PSoC4/CyLib.c ****         uint32 lfclkSource;
 241:.\Generated_Source\PSoC4/CyLib.c ****         lfclkSource = CY_SYS_WDT_CONFIG_REG & CY_SYS_CLK_LFCLK_SEL_MASK;
 242:.\Generated_Source\PSoC4/CyLib.c ****         return (lfclkSource);
 243:.\Generated_Source\PSoC4/CyLib.c ****     }
 244:.\Generated_Source\PSoC4/CyLib.c **** #endif /* (CY_IP_WCO) */
 245:.\Generated_Source\PSoC4/CyLib.c **** 
 246:.\Generated_Source\PSoC4/CyLib.c **** 
 247:.\Generated_Source\PSoC4/CyLib.c **** /*******************************************************************************
 248:.\Generated_Source\PSoC4/CyLib.c **** * Function Name: CySysClkSetLfclkSource
 249:.\Generated_Source\PSoC4/CyLib.c **** ********************************************************************************
 250:.\Generated_Source\PSoC4/CyLib.c **** *
 251:.\Generated_Source\PSoC4/CyLib.c **** * Summary:
 252:.\Generated_Source\PSoC4/CyLib.c **** *  Sets the clock source for the LFCLK clock.
 253:.\Generated_Source\PSoC4/CyLib.c **** *
 254:.\Generated_Source\PSoC4/CyLib.c **** *  The switch between LFCLK sources must be done between positive edges of
 255:.\Generated_Source\PSoC4/CyLib.c **** *  the LFCLK, because the glitch risk is around LFCLK positive edge. To ensure
 256:.\Generated_Source\PSoC4/CyLib.c **** *  that the switch can be done safely, the WDT counter value is read until it
 257:.\Generated_Source\PSoC4/CyLib.c **** *  changes.
 258:.\Generated_Source\PSoC4/CyLib.c **** *
 259:.\Generated_Source\PSoC4/CyLib.c **** *  That means that the positive edge just finished and the switch is performed.
 260:.\Generated_Source\PSoC4/CyLib.c **** *  The enabled WDT counter is used for that purpose. If no counters are enabled,
 261:.\Generated_Source\PSoC4/CyLib.c **** *  the counter 0 is enabled. And after LFCLK source is switched, the counter 0
 262:.\Generated_Source\PSoC4/CyLib.c **** *  configuration is restored back.
 263:.\Generated_Source\PSoC4/CyLib.c **** *
 264:.\Generated_Source\PSoC4/CyLib.c **** *  The function is applicable only for the PSoC 4100-BL and PSoC 4200-BL.
 265:.\Generated_Source\PSoC4/CyLib.c **** *
 266:.\Generated_Source\PSoC4/CyLib.c **** * Parameters:
 267:.\Generated_Source\PSoC4/CyLib.c **** *  source: One of the available LFCLK sources.
 268:.\Generated_Source\PSoC4/CyLib.c **** *   CY_SYS_CLK_LFCLK_SRC_ILO    Internal Low Frequency (32 kHz) Oscillator (ILO)
 269:.\Generated_Source\PSoC4/CyLib.c **** *   CY_SYS_CLK_LFCLK_SRC_WCO    Low Frequency Watch Crystal Oscillator (WCO)
 270:.\Generated_Source\PSoC4/CyLib.c **** *
 271:.\Generated_Source\PSoC4/CyLib.c **** * Return:
 272:.\Generated_Source\PSoC4/CyLib.c **** *  None
 273:.\Generated_Source\PSoC4/CyLib.c **** *
 274:.\Generated_Source\PSoC4/CyLib.c **** * Side Effects:
 275:.\Generated_Source\PSoC4/CyLib.c **** *  This function will have no effect if the WDT is locked (CySysWdtLock() is
 276:.\Generated_Source\PSoC4/CyLib.c **** *  called). Call CySysWdtUnlock() to unlock the WDT.
 277:.\Generated_Source\PSoC4/CyLib.c **** *
 278:.\Generated_Source\PSoC4/CyLib.c **** *  The current source and the new source must both be running and stable before
 279:.\Generated_Source\PSoC4/CyLib.c **** *  calling this function.
 280:.\Generated_Source\PSoC4/CyLib.c **** *
 281:.\Generated_Source\PSoC4/CyLib.c **** *  Changing the LFCLK clock source may change the LFCLK clock frequency and
 282:.\Generated_Source\PSoC4/CyLib.c **** *  affect the functionality that uses this clock. For example, watchdog timer
 283:.\Generated_Source\PSoC4/CyLib.c **** *  (WDT) is clocked by LFCLK.
 284:.\Generated_Source\PSoC4/CyLib.c **** *
 285:.\Generated_Source\PSoC4/CyLib.c **** *******************************************************************************/
 286:.\Generated_Source\PSoC4/CyLib.c **** #if (CY_IP_WCO)
 287:.\Generated_Source\PSoC4/CyLib.c ****     void CySysClkSetLfclkSource(uint32 source)
ARM GAS  C:\DOCUME~1\Owner\LOCALS~1\Temp\cc3gLjSb.s 			page 12


 288:.\Generated_Source\PSoC4/CyLib.c ****     {
 289:.\Generated_Source\PSoC4/CyLib.c ****         uint8  interruptState;
 290:.\Generated_Source\PSoC4/CyLib.c **** 
 291:.\Generated_Source\PSoC4/CyLib.c ****         if (CySysClkGetLfclkSource() != source)
 292:.\Generated_Source\PSoC4/CyLib.c ****         {
 293:.\Generated_Source\PSoC4/CyLib.c ****             interruptState = CyEnterCriticalSection();
 294:.\Generated_Source\PSoC4/CyLib.c **** 
 295:.\Generated_Source\PSoC4/CyLib.c ****             CySysClkLfclkPosedgeCatch();
 296:.\Generated_Source\PSoC4/CyLib.c **** 
 297:.\Generated_Source\PSoC4/CyLib.c ****             CY_SYS_WDT_CONFIG_REG = (CY_SYS_WDT_CONFIG_REG & (uint32)(~CY_SYS_CLK_LFCLK_SEL_MASK)) 
 298:.\Generated_Source\PSoC4/CyLib.c ****                                     (source & CY_SYS_CLK_LFCLK_SEL_MASK);
 299:.\Generated_Source\PSoC4/CyLib.c **** 
 300:.\Generated_Source\PSoC4/CyLib.c ****             CySysClkLfclkPosedgeRestore();
 301:.\Generated_Source\PSoC4/CyLib.c **** 
 302:.\Generated_Source\PSoC4/CyLib.c ****             CyExitCriticalSection(interruptState);
 303:.\Generated_Source\PSoC4/CyLib.c ****         }
 304:.\Generated_Source\PSoC4/CyLib.c ****     }
 305:.\Generated_Source\PSoC4/CyLib.c **** #endif /* (CY_IP_WCO) */
 306:.\Generated_Source\PSoC4/CyLib.c **** 
 307:.\Generated_Source\PSoC4/CyLib.c **** 
 308:.\Generated_Source\PSoC4/CyLib.c **** /*******************************************************************************
 309:.\Generated_Source\PSoC4/CyLib.c **** * Function Name: CySysClkWriteHfclkDirect
 310:.\Generated_Source\PSoC4/CyLib.c **** ********************************************************************************
 311:.\Generated_Source\PSoC4/CyLib.c **** *
 312:.\Generated_Source\PSoC4/CyLib.c **** * Summary:
 313:.\Generated_Source\PSoC4/CyLib.c **** *  Selects the direct source for the HFCLK.
 314:.\Generated_Source\PSoC4/CyLib.c **** *
 315:.\Generated_Source\PSoC4/CyLib.c **** * Parameters:
 316:.\Generated_Source\PSoC4/CyLib.c **** *  clkSelect: One of the available HFCLK direct sources:
 317:.\Generated_Source\PSoC4/CyLib.c **** *   Define                    Source
 318:.\Generated_Source\PSoC4/CyLib.c **** *    CY_SYS_CLK_HFCLK_IMO      IMO
 319:.\Generated_Source\PSoC4/CyLib.c **** *    CY_SYS_CLK_HFCLK_EXTCLK   External clock pin
 320:.\Generated_Source\PSoC4/CyLib.c **** *    CY_SYS_CLK_HFCLK_ECO      External crystal oscillator
 321:.\Generated_Source\PSoC4/CyLib.c **** *                                           (applicable only for PSoC 4200-BL)
 322:.\Generated_Source\PSoC4/CyLib.c **** *
 323:.\Generated_Source\PSoC4/CyLib.c **** * Return:
 324:.\Generated_Source\PSoC4/CyLib.c **** *  None
 325:.\Generated_Source\PSoC4/CyLib.c **** *
 326:.\Generated_Source\PSoC4/CyLib.c **** * Side Effects:
 327:.\Generated_Source\PSoC4/CyLib.c **** *  The new source must be running and stable before calling this function.
 328:.\Generated_Source\PSoC4/CyLib.c **** *
 329:.\Generated_Source\PSoC4/CyLib.c **** *  PSoC 4000:
 330:.\Generated_Source\PSoC4/CyLib.c **** *  The SYSCLK has a maximum speed of 16 MHz, so HFCLK and SYSCLK dividers should
 331:.\Generated_Source\PSoC4/CyLib.c **** *  be selected in a way to not to exceed 16 MHz for the System clock.
 332:.\Generated_Source\PSoC4/CyLib.c **** *
 333:.\Generated_Source\PSoC4/CyLib.c **** *  If the SYSCLK clock frequency increases during device operation, call
 334:.\Generated_Source\PSoC4/CyLib.c **** *  CySysFlashSetWaitCycles() with the appropriate parameter to adjust the number
 335:.\Generated_Source\PSoC4/CyLib.c **** *  of clock cycles the cache will wait before sampling data comes back from Flash.
 336:.\Generated_Source\PSoC4/CyLib.c **** *  If the SYSCLK clock frequency decreases, you can call
 337:.\Generated_Source\PSoC4/CyLib.c **** *  CySysFlashSetWaitCycles() to improve the CPU performance. See
 338:.\Generated_Source\PSoC4/CyLib.c **** *  CySysFlashSetWaitCycles() description for more information.
 339:.\Generated_Source\PSoC4/CyLib.c **** *
 340:.\Generated_Source\PSoC4/CyLib.c **** *******************************************************************************/
 341:.\Generated_Source\PSoC4/CyLib.c **** void CySysClkWriteHfclkDirect(uint32 clkSelect)
 342:.\Generated_Source\PSoC4/CyLib.c **** {
 337              		.loc 1 342 0
 338              		.cfi_startproc
ARM GAS  C:\DOCUME~1\Owner\LOCALS~1\Temp\cc3gLjSb.s 			page 13


 339 0000 90B5     		push	{r4, r7, lr}
 340              		.cfi_def_cfa_offset 12
 341              		.cfi_offset 4, -12
 342              		.cfi_offset 7, -8
 343              		.cfi_offset 14, -4
 344 0002 85B0     		sub	sp, sp, #20
 345              		.cfi_def_cfa_offset 32
 346 0004 00AF     		add	r7, sp, #0
 347              		.cfi_def_cfa_register 7
 348 0006 7860     		str	r0, [r7, #4]
 343:.\Generated_Source\PSoC4/CyLib.c ****     uint8  interruptState;
 344:.\Generated_Source\PSoC4/CyLib.c **** 
 345:.\Generated_Source\PSoC4/CyLib.c ****     interruptState = CyEnterCriticalSection();
 349              		.loc 1 345 0
 350 0008 3C1C     		mov	r4, r7
 351 000a 0F34     		add	r4, r4, #15
 352 000c FFF7FEFF 		bl	CyEnterCriticalSection
 353 0010 031C     		mov	r3, r0
 354 0012 2370     		strb	r3, [r4]
 346:.\Generated_Source\PSoC4/CyLib.c **** 
 347:.\Generated_Source\PSoC4/CyLib.c ****     CY_SYS_CLK_SELECT_REG = ((CY_SYS_CLK_SELECT_REG & (( uint32 ) ~(( uint32 )CY_SYS_CLK_SELECT_DIR
 355              		.loc 1 347 0
 356 0014 0A4B     		ldr	r3, .L21
 357 0016 0A4A     		ldr	r2, .L21
 358 0018 1268     		ldr	r2, [r2]
 359 001a 0721     		mov	r1, #7
 360 001c 101C     		mov	r0, r2
 361 001e 8843     		bic	r0, r1
 362 0020 011C     		mov	r1, r0
 348:.\Generated_Source\PSoC4/CyLib.c ****                         (( uint32 ) (clkSelect & ( uint32 )CY_SYS_CLK_SELECT_DIRECT_SEL_PARAM_MASK)
 363              		.loc 1 348 0
 364 0022 7868     		ldr	r0, [r7, #4]
 365 0024 0122     		mov	r2, #1
 366 0026 0240     		and	r2, r0
 347:.\Generated_Source\PSoC4/CyLib.c ****     CY_SYS_CLK_SELECT_REG = ((CY_SYS_CLK_SELECT_REG & (( uint32 ) ~(( uint32 )CY_SYS_CLK_SELECT_DIR
 367              		.loc 1 347 0
 368 0028 0A43     		orr	r2, r1
 369 002a 1A60     		str	r2, [r3]
 349:.\Generated_Source\PSoC4/CyLib.c **** 
 350:.\Generated_Source\PSoC4/CyLib.c ****     CyExitCriticalSection(interruptState);
 370              		.loc 1 350 0
 371 002c 3B1C     		mov	r3, r7
 372 002e 0F33     		add	r3, r3, #15
 373 0030 1B78     		ldrb	r3, [r3]
 374 0032 181C     		mov	r0, r3
 375 0034 FFF7FEFF 		bl	CyExitCriticalSection
 351:.\Generated_Source\PSoC4/CyLib.c **** }
 376              		.loc 1 351 0
 377 0038 BD46     		mov	sp, r7
 378 003a 05B0     		add	sp, sp, #20
 379              		@ sp needed
 380 003c 90BD     		pop	{r4, r7, pc}
 381              	.L22:
 382 003e C046     		.align	2
 383              	.L21:
 384 0040 00010B40 		.word	1074462976
 385              		.cfi_endproc
ARM GAS  C:\DOCUME~1\Owner\LOCALS~1\Temp\cc3gLjSb.s 			page 14


 386              	.LFE5:
 387              		.size	CySysClkWriteHfclkDirect, .-CySysClkWriteHfclkDirect
 388              		.section	.text.CySysClkWriteSysclkDiv,"ax",%progbits
 389              		.align	2
 390              		.global	CySysClkWriteSysclkDiv
 391              		.code	16
 392              		.thumb_func
 393              		.type	CySysClkWriteSysclkDiv, %function
 394              	CySysClkWriteSysclkDiv:
 395              	.LFB6:
 352:.\Generated_Source\PSoC4/CyLib.c **** 
 353:.\Generated_Source\PSoC4/CyLib.c **** 
 354:.\Generated_Source\PSoC4/CyLib.c **** /*******************************************************************************
 355:.\Generated_Source\PSoC4/CyLib.c **** * Function Name: CySysClkWriteSysclkDiv
 356:.\Generated_Source\PSoC4/CyLib.c **** ********************************************************************************
 357:.\Generated_Source\PSoC4/CyLib.c **** *
 358:.\Generated_Source\PSoC4/CyLib.c **** * Summary:
 359:.\Generated_Source\PSoC4/CyLib.c **** *  Selects the prescaler divide amount for SYSCLK from HFCLK.
 360:.\Generated_Source\PSoC4/CyLib.c **** *
 361:.\Generated_Source\PSoC4/CyLib.c **** * Parameters:
 362:.\Generated_Source\PSoC4/CyLib.c **** *  divider: Power of 2 prescaler selection
 363:.\Generated_Source\PSoC4/CyLib.c **** *
 364:.\Generated_Source\PSoC4/CyLib.c **** *   Define                        Description
 365:.\Generated_Source\PSoC4/CyLib.c **** *   CY_SYS_CLK_SYSCLK_DIV1        SYSCLK = HFCLK / 1
 366:.\Generated_Source\PSoC4/CyLib.c **** *   CY_SYS_CLK_SYSCLK_DIV2        SYSCLK = HFCLK / 2
 367:.\Generated_Source\PSoC4/CyLib.c **** *   CY_SYS_CLK_SYSCLK_DIV4        SYSCLK = HFCLK / 4
 368:.\Generated_Source\PSoC4/CyLib.c **** *   CY_SYS_CLK_SYSCLK_DIV8        SYSCLK = HFCLK / 8
 369:.\Generated_Source\PSoC4/CyLib.c **** *   CY_SYS_CLK_SYSCLK_DIV16       SYSCLK = HFCLK / 16  (N/A for 4000 Family)
 370:.\Generated_Source\PSoC4/CyLib.c **** *   CY_SYS_CLK_SYSCLK_DIV32       SYSCLK = HFCLK / 32  (N/A for 4000 Family)
 371:.\Generated_Source\PSoC4/CyLib.c **** *   CY_SYS_CLK_SYSCLK_DIV64       SYSCLK = HFCLK / 64  (N/A for 4000 Family)
 372:.\Generated_Source\PSoC4/CyLib.c **** *   CY_SYS_CLK_SYSCLK_DIV128      SYSCLK = HFCLK / 128 (N/A for 4000 Family)
 373:.\Generated_Source\PSoC4/CyLib.c **** *
 374:.\Generated_Source\PSoC4/CyLib.c **** * Return:
 375:.\Generated_Source\PSoC4/CyLib.c **** *  None
 376:.\Generated_Source\PSoC4/CyLib.c **** *
 377:.\Generated_Source\PSoC4/CyLib.c **** * Side Effects:
 378:.\Generated_Source\PSoC4/CyLib.c **** *  4000 Family:
 379:.\Generated_Source\PSoC4/CyLib.c **** *  The SYS_CLK has the speed of 16 MHz, so dividers HF_CLK and SYS_CLK
 380:.\Generated_Source\PSoC4/CyLib.c **** *  dividers should be selected in a way, not to exceed 16 MHz for SYS_CLK.
 381:.\Generated_Source\PSoC4/CyLib.c **** *
 382:.\Generated_Source\PSoC4/CyLib.c **** *  If the SYSCLK clock frequency increases during the device operation, call
 383:.\Generated_Source\PSoC4/CyLib.c **** *  CySysFlashSetWaitCycles() with the appropriate parameter to adjust the number
 384:.\Generated_Source\PSoC4/CyLib.c **** *  of clock cycles the cache will wait before sampling data comes back from Flash.
 385:.\Generated_Source\PSoC4/CyLib.c **** *  If the SYSCLK clock frequency decreases, you can call
 386:.\Generated_Source\PSoC4/CyLib.c **** *  CySysFlashSetWaitCycles() to improve the CPU performance. See
 387:.\Generated_Source\PSoC4/CyLib.c **** *  CySysFlashSetWaitCycles() description for more information.
 388:.\Generated_Source\PSoC4/CyLib.c **** *
 389:.\Generated_Source\PSoC4/CyLib.c **** *******************************************************************************/
 390:.\Generated_Source\PSoC4/CyLib.c **** void CySysClkWriteSysclkDiv(uint32 divider)
 391:.\Generated_Source\PSoC4/CyLib.c **** {
 396              		.loc 1 391 0
 397              		.cfi_startproc
 398 0000 90B5     		push	{r4, r7, lr}
 399              		.cfi_def_cfa_offset 12
 400              		.cfi_offset 4, -12
 401              		.cfi_offset 7, -8
 402              		.cfi_offset 14, -4
ARM GAS  C:\DOCUME~1\Owner\LOCALS~1\Temp\cc3gLjSb.s 			page 15


 403 0002 85B0     		sub	sp, sp, #20
 404              		.cfi_def_cfa_offset 32
 405 0004 00AF     		add	r7, sp, #0
 406              		.cfi_def_cfa_register 7
 407 0006 7860     		str	r0, [r7, #4]
 392:.\Generated_Source\PSoC4/CyLib.c ****     uint8  interruptState;
 393:.\Generated_Source\PSoC4/CyLib.c **** 
 394:.\Generated_Source\PSoC4/CyLib.c ****     interruptState = CyEnterCriticalSection();
 408              		.loc 1 394 0
 409 0008 3C1C     		mov	r4, r7
 410 000a 0F34     		add	r4, r4, #15
 411 000c FFF7FEFF 		bl	CyEnterCriticalSection
 412 0010 031C     		mov	r3, r0
 413 0012 2370     		strb	r3, [r4]
 395:.\Generated_Source\PSoC4/CyLib.c **** 
 396:.\Generated_Source\PSoC4/CyLib.c ****     CY_SYS_CLK_SELECT_REG = ((uint32)(((uint32)divider & CY_SYS_CLK_SELECT_SYSCLK_DIV_MASK) <<
 414              		.loc 1 396 0
 415 0014 094B     		ldr	r3, .L24
 416 0016 7968     		ldr	r1, [r7, #4]
 417 0018 0722     		mov	r2, #7
 418 001a 0A40     		and	r2, r1
 419 001c D104     		lsl	r1, r2, #19
 397:.\Generated_Source\PSoC4/CyLib.c ****                                     CY_SYS_CLK_SELECT_SYSCLK_DIV_SHIFT)) |
 398:.\Generated_Source\PSoC4/CyLib.c ****                             (CY_SYS_CLK_SELECT_REG & ((uint32)(~(uint32)(CY_SYS_CLK_SELECT_SYSCLK_D
 420              		.loc 1 398 0
 421 001e 074A     		ldr	r2, .L24
 422 0020 1068     		ldr	r0, [r2]
 423 0022 074A     		ldr	r2, .L24+4
 424 0024 0240     		and	r2, r0
 397:.\Generated_Source\PSoC4/CyLib.c ****                                     CY_SYS_CLK_SELECT_SYSCLK_DIV_SHIFT)) |
 425              		.loc 1 397 0
 426 0026 0A43     		orr	r2, r1
 396:.\Generated_Source\PSoC4/CyLib.c ****     CY_SYS_CLK_SELECT_REG = ((uint32)(((uint32)divider & CY_SYS_CLK_SELECT_SYSCLK_DIV_MASK) <<
 427              		.loc 1 396 0
 428 0028 1A60     		str	r2, [r3]
 399:.\Generated_Source\PSoC4/CyLib.c ****                                     CY_SYS_CLK_SELECT_SYSCLK_DIV_SHIFT))));
 400:.\Generated_Source\PSoC4/CyLib.c **** 
 401:.\Generated_Source\PSoC4/CyLib.c ****     CyExitCriticalSection(interruptState);
 429              		.loc 1 401 0
 430 002a 3B1C     		mov	r3, r7
 431 002c 0F33     		add	r3, r3, #15
 432 002e 1B78     		ldrb	r3, [r3]
 433 0030 181C     		mov	r0, r3
 434 0032 FFF7FEFF 		bl	CyExitCriticalSection
 402:.\Generated_Source\PSoC4/CyLib.c **** }
 435              		.loc 1 402 0
 436 0036 BD46     		mov	sp, r7
 437 0038 05B0     		add	sp, sp, #20
 438              		@ sp needed
 439 003a 90BD     		pop	{r4, r7, pc}
 440              	.L25:
 441              		.align	2
 442              	.L24:
 443 003c 00010B40 		.word	1074462976
 444 0040 FFFFC7FF 		.word	-3670017
 445              		.cfi_endproc
 446              	.LFE6:
ARM GAS  C:\DOCUME~1\Owner\LOCALS~1\Temp\cc3gLjSb.s 			page 16


 447              		.size	CySysClkWriteSysclkDiv, .-CySysClkWriteSysclkDiv
 448              		.section	.text.CySysClkWriteImoFreq,"ax",%progbits
 449              		.align	2
 450              		.global	CySysClkWriteImoFreq
 451              		.code	16
 452              		.thumb_func
 453              		.type	CySysClkWriteImoFreq, %function
 454              	CySysClkWriteImoFreq:
 455              	.LFB7:
 403:.\Generated_Source\PSoC4/CyLib.c **** 
 404:.\Generated_Source\PSoC4/CyLib.c **** 
 405:.\Generated_Source\PSoC4/CyLib.c **** #if(CY_IP_SRSSV2)
 406:.\Generated_Source\PSoC4/CyLib.c **** 
 407:.\Generated_Source\PSoC4/CyLib.c ****     /*******************************************************************************
 408:.\Generated_Source\PSoC4/CyLib.c ****     * Function Name: CySysClkWriteImoFreq
 409:.\Generated_Source\PSoC4/CyLib.c ****     ********************************************************************************
 410:.\Generated_Source\PSoC4/CyLib.c ****     *
 411:.\Generated_Source\PSoC4/CyLib.c ****     * Summary:
 412:.\Generated_Source\PSoC4/CyLib.c ****     *  Sets the frequency of the IMO.
 413:.\Generated_Source\PSoC4/CyLib.c ****     *
 414:.\Generated_Source\PSoC4/CyLib.c ****     * Parameters:
 415:.\Generated_Source\PSoC4/CyLib.c ****     *  freq: Valid range [3-48].  Frequency for operation of the IMO.
 416:.\Generated_Source\PSoC4/CyLib.c ****     *  Note: Invalid frequency will be ignored.
 417:.\Generated_Source\PSoC4/CyLib.c ****     *
 418:.\Generated_Source\PSoC4/CyLib.c ****     * Return:
 419:.\Generated_Source\PSoC4/CyLib.c ****     *  None
 420:.\Generated_Source\PSoC4/CyLib.c ****     *
 421:.\Generated_Source\PSoC4/CyLib.c ****     * Side Effects:
 422:.\Generated_Source\PSoC4/CyLib.c ****     *  If the SYSCLK clock frequency increases during the device operation, call
 423:.\Generated_Source\PSoC4/CyLib.c ****     *  CySysFlashSetWaitCycles() with the appropriate parameter to adjust the number
 424:.\Generated_Source\PSoC4/CyLib.c ****     *  of clock cycles the cache will wait before sampling data comes back from Flash.
 425:.\Generated_Source\PSoC4/CyLib.c ****     *  If the SYSCLK clock frequency decreases, you can call
 426:.\Generated_Source\PSoC4/CyLib.c ****     *  CySysFlashSetWaitCycles() to improve the CPU performance.
 427:.\Generated_Source\PSoC4/CyLib.c ****     *  See CySysFlashSetWaitCycles() description for more information.
 428:.\Generated_Source\PSoC4/CyLib.c ****     *
 429:.\Generated_Source\PSoC4/CyLib.c ****     *******************************************************************************/
 430:.\Generated_Source\PSoC4/CyLib.c ****     void CySysClkWriteImoFreq(uint32 freq)
 431:.\Generated_Source\PSoC4/CyLib.c ****     {
 456              		.loc 1 431 0
 457              		.cfi_startproc
 458 0000 90B5     		push	{r4, r7, lr}
 459              		.cfi_def_cfa_offset 12
 460              		.cfi_offset 4, -12
 461              		.cfi_offset 7, -8
 462              		.cfi_offset 14, -4
 463 0002 85B0     		sub	sp, sp, #20
 464              		.cfi_def_cfa_offset 32
 465 0004 00AF     		add	r7, sp, #0
 466              		.cfi_def_cfa_register 7
 467 0006 7860     		str	r0, [r7, #4]
 432:.\Generated_Source\PSoC4/CyLib.c ****         uint8  bgTrim4;
 433:.\Generated_Source\PSoC4/CyLib.c ****         uint8  bgTrim5;
 434:.\Generated_Source\PSoC4/CyLib.c ****         uint8  interruptState;
 435:.\Generated_Source\PSoC4/CyLib.c ****         uint8  newImoTrim2Value;
 436:.\Generated_Source\PSoC4/CyLib.c ****         uint8  currentImoTrim2Value;
 437:.\Generated_Source\PSoC4/CyLib.c **** 
 438:.\Generated_Source\PSoC4/CyLib.c **** 
ARM GAS  C:\DOCUME~1\Owner\LOCALS~1\Temp\cc3gLjSb.s 			page 17


 439:.\Generated_Source\PSoC4/CyLib.c ****         if ((freq >= CY_SYS_CLK_IMO_MIN_FREQ_MHZ) && (freq <= CY_SYS_CLK_IMO_MAX_FREQ_MHZ))
 468              		.loc 1 439 0
 469 0008 7B68     		ldr	r3, [r7, #4]
 470 000a 022B     		cmp	r3, #2
 471 000c 00D8     		bhi	.LCB305
 472 000e BAE0     		b	.L27	@long jump
 473              	.LCB305:
 474              		.loc 1 439 0 is_stmt 0 discriminator 1
 475 0010 7B68     		ldr	r3, [r7, #4]
 476 0012 302B     		cmp	r3, #48
 477 0014 00D9     		bls	.LCB308
 478 0016 B6E0     		b	.L27	@long jump
 479              	.LCB308:
 440:.\Generated_Source\PSoC4/CyLib.c ****         {
 441:.\Generated_Source\PSoC4/CyLib.c ****             if(freq <= CY_SFLASH_IMO_MAXF0_REG)
 480              		.loc 1 441 0 is_stmt 1
 481 0018 5E4B     		ldr	r3, .L38
 482 001a 1B78     		ldrb	r3, [r3]
 483 001c DBB2     		uxtb	r3, r3
 484 001e 1A1C     		mov	r2, r3
 485 0020 7B68     		ldr	r3, [r7, #4]
 486 0022 9A42     		cmp	r2, r3
 487 0024 0AD3     		bcc	.L28
 442:.\Generated_Source\PSoC4/CyLib.c ****             {
 443:.\Generated_Source\PSoC4/CyLib.c ****                 bgTrim4 = CY_SFLASH_IMO_ABS0_REG;
 488              		.loc 1 443 0
 489 0026 5C4A     		ldr	r2, .L38+4
 490 0028 3B1C     		mov	r3, r7
 491 002a 0F33     		add	r3, r3, #15
 492 002c 1278     		ldrb	r2, [r2]
 493 002e 1A70     		strb	r2, [r3]
 444:.\Generated_Source\PSoC4/CyLib.c ****                 bgTrim5 = CY_SFLASH_IMO_TMPCO0_REG;
 494              		.loc 1 444 0
 495 0030 5A4A     		ldr	r2, .L38+8
 496 0032 3B1C     		mov	r3, r7
 497 0034 0E33     		add	r3, r3, #14
 498 0036 1278     		ldrb	r2, [r2]
 499 0038 1A70     		strb	r2, [r3]
 500 003a 3FE0     		b	.L29
 501              	.L28:
 445:.\Generated_Source\PSoC4/CyLib.c ****             }
 446:.\Generated_Source\PSoC4/CyLib.c ****             else if(freq <= CY_SFLASH_IMO_MAXF1_REG)
 502              		.loc 1 446 0
 503 003c 584B     		ldr	r3, .L38+12
 504 003e 1B78     		ldrb	r3, [r3]
 505 0040 DBB2     		uxtb	r3, r3
 506 0042 1A1C     		mov	r2, r3
 507 0044 7B68     		ldr	r3, [r7, #4]
 508 0046 9A42     		cmp	r2, r3
 509 0048 0AD3     		bcc	.L30
 447:.\Generated_Source\PSoC4/CyLib.c ****             {
 448:.\Generated_Source\PSoC4/CyLib.c ****                 bgTrim4 = CY_SFLASH_IMO_ABS1_REG;
 510              		.loc 1 448 0
 511 004a 564A     		ldr	r2, .L38+16
 512 004c 3B1C     		mov	r3, r7
 513 004e 0F33     		add	r3, r3, #15
 514 0050 1278     		ldrb	r2, [r2]
ARM GAS  C:\DOCUME~1\Owner\LOCALS~1\Temp\cc3gLjSb.s 			page 18


 515 0052 1A70     		strb	r2, [r3]
 449:.\Generated_Source\PSoC4/CyLib.c ****                 bgTrim5 = CY_SFLASH_IMO_TMPCO1_REG;
 516              		.loc 1 449 0
 517 0054 544A     		ldr	r2, .L38+20
 518 0056 3B1C     		mov	r3, r7
 519 0058 0E33     		add	r3, r3, #14
 520 005a 1278     		ldrb	r2, [r2]
 521 005c 1A70     		strb	r2, [r3]
 522 005e 2DE0     		b	.L29
 523              	.L30:
 450:.\Generated_Source\PSoC4/CyLib.c ****             }
 451:.\Generated_Source\PSoC4/CyLib.c ****             else if(freq <= CY_SFLASH_IMO_MAXF2_REG)
 524              		.loc 1 451 0
 525 0060 524B     		ldr	r3, .L38+24
 526 0062 1B78     		ldrb	r3, [r3]
 527 0064 DBB2     		uxtb	r3, r3
 528 0066 1A1C     		mov	r2, r3
 529 0068 7B68     		ldr	r3, [r7, #4]
 530 006a 9A42     		cmp	r2, r3
 531 006c 0AD3     		bcc	.L31
 452:.\Generated_Source\PSoC4/CyLib.c ****             {
 453:.\Generated_Source\PSoC4/CyLib.c ****                 bgTrim4 = CY_SFLASH_IMO_ABS2_REG;
 532              		.loc 1 453 0
 533 006e 504A     		ldr	r2, .L38+28
 534 0070 3B1C     		mov	r3, r7
 535 0072 0F33     		add	r3, r3, #15
 536 0074 1278     		ldrb	r2, [r2]
 537 0076 1A70     		strb	r2, [r3]
 454:.\Generated_Source\PSoC4/CyLib.c ****                 bgTrim5 = CY_SFLASH_IMO_TMPCO2_REG;
 538              		.loc 1 454 0
 539 0078 4E4A     		ldr	r2, .L38+32
 540 007a 3B1C     		mov	r3, r7
 541 007c 0E33     		add	r3, r3, #14
 542 007e 1278     		ldrb	r2, [r2]
 543 0080 1A70     		strb	r2, [r3]
 544 0082 1BE0     		b	.L29
 545              	.L31:
 455:.\Generated_Source\PSoC4/CyLib.c ****             }
 456:.\Generated_Source\PSoC4/CyLib.c ****             else if(freq <= CY_SFLASH_IMO_MAXF3_REG)
 546              		.loc 1 456 0
 547 0084 4C4B     		ldr	r3, .L38+36
 548 0086 1B78     		ldrb	r3, [r3]
 549 0088 DBB2     		uxtb	r3, r3
 550 008a 1A1C     		mov	r2, r3
 551 008c 7B68     		ldr	r3, [r7, #4]
 552 008e 9A42     		cmp	r2, r3
 553 0090 0AD3     		bcc	.L32
 457:.\Generated_Source\PSoC4/CyLib.c ****             {
 458:.\Generated_Source\PSoC4/CyLib.c ****                 bgTrim4 = CY_SFLASH_IMO_ABS3_REG;
 554              		.loc 1 458 0
 555 0092 4A4A     		ldr	r2, .L38+40
 556 0094 3B1C     		mov	r3, r7
 557 0096 0F33     		add	r3, r3, #15
 558 0098 1278     		ldrb	r2, [r2]
 559 009a 1A70     		strb	r2, [r3]
 459:.\Generated_Source\PSoC4/CyLib.c ****                 bgTrim5 = CY_SFLASH_IMO_TMPCO3_REG;
 560              		.loc 1 459 0
ARM GAS  C:\DOCUME~1\Owner\LOCALS~1\Temp\cc3gLjSb.s 			page 19


 561 009c 484A     		ldr	r2, .L38+44
 562 009e 3B1C     		mov	r3, r7
 563 00a0 0E33     		add	r3, r3, #14
 564 00a2 1278     		ldrb	r2, [r2]
 565 00a4 1A70     		strb	r2, [r3]
 566 00a6 09E0     		b	.L29
 567              	.L32:
 460:.\Generated_Source\PSoC4/CyLib.c ****             }
 461:.\Generated_Source\PSoC4/CyLib.c ****             else
 462:.\Generated_Source\PSoC4/CyLib.c ****             {
 463:.\Generated_Source\PSoC4/CyLib.c ****                 bgTrim4 = CY_SFLASH_IMO_ABS4_REG;
 568              		.loc 1 463 0
 569 00a8 464A     		ldr	r2, .L38+48
 570 00aa 3B1C     		mov	r3, r7
 571 00ac 0F33     		add	r3, r3, #15
 572 00ae 1278     		ldrb	r2, [r2]
 573 00b0 1A70     		strb	r2, [r3]
 464:.\Generated_Source\PSoC4/CyLib.c ****                 bgTrim5 = CY_SFLASH_IMO_TMPCO4_REG;
 574              		.loc 1 464 0
 575 00b2 454A     		ldr	r2, .L38+52
 576 00b4 3B1C     		mov	r3, r7
 577 00b6 0E33     		add	r3, r3, #14
 578 00b8 1278     		ldrb	r2, [r2]
 579 00ba 1A70     		strb	r2, [r3]
 580              	.L29:
 465:.\Generated_Source\PSoC4/CyLib.c ****             }
 466:.\Generated_Source\PSoC4/CyLib.c **** 
 467:.\Generated_Source\PSoC4/CyLib.c ****             /* Get IMO_TRIM2 value for the new frequency */
 468:.\Generated_Source\PSoC4/CyLib.c ****             newImoTrim2Value = cyImoFreqMhz2Reg[freq - CY_SYS_CLK_IMO_FREQ_TABLE_OFFSET];
 581              		.loc 1 468 0
 582 00bc 7B68     		ldr	r3, [r7, #4]
 583 00be DA1E     		sub	r2, r3, #3
 584 00c0 3B1C     		mov	r3, r7
 585 00c2 0C33     		add	r3, r3, #12
 586 00c4 4149     		ldr	r1, .L38+56
 587 00c6 8A5C     		ldrb	r2, [r1, r2]
 588 00c8 1A70     		strb	r2, [r3]
 469:.\Generated_Source\PSoC4/CyLib.c **** 
 470:.\Generated_Source\PSoC4/CyLib.c **** 
 471:.\Generated_Source\PSoC4/CyLib.c ****             interruptState = CyEnterCriticalSection();
 589              		.loc 1 471 0
 590 00ca 3C1C     		mov	r4, r7
 591 00cc 0B34     		add	r4, r4, #11
 592 00ce FFF7FEFF 		bl	CyEnterCriticalSection
 593 00d2 031C     		mov	r3, r0
 594 00d4 2370     		strb	r3, [r4]
 472:.\Generated_Source\PSoC4/CyLib.c **** 
 473:.\Generated_Source\PSoC4/CyLib.c ****             /***************************************************************************
 474:.\Generated_Source\PSoC4/CyLib.c ****             * The IMO can have a different trim per frequency. To avoid possible corner
 475:.\Generated_Source\PSoC4/CyLib.c ****             * cases where a trim change can exceed the maximum frequency, the trim must
 476:.\Generated_Source\PSoC4/CyLib.c ****             * be applied at a frequency that is low enough.
 477:.\Generated_Source\PSoC4/CyLib.c ****             *
 478:.\Generated_Source\PSoC4/CyLib.c ****             * Comparing IMO_TRIM2 values for the current and new frequencies, since
 479:.\Generated_Source\PSoC4/CyLib.c ****             * IMO_TRIM2 value as a function of IMO frequency is a strictly increasing
 480:.\Generated_Source\PSoC4/CyLib.c ****             * function and is time-invariant.
 481:.\Generated_Source\PSoC4/CyLib.c ****             ***************************************************************************/
 482:.\Generated_Source\PSoC4/CyLib.c ****             if ((newImoTrim2Value >= CY_SYS_CLK_IMO_BOUNDARY_FREQ_TRIM2) && (freq >= CY_SYS_CLK_IMO
ARM GAS  C:\DOCUME~1\Owner\LOCALS~1\Temp\cc3gLjSb.s 			page 20


 595              		.loc 1 482 0
 596 00d6 3B1C     		mov	r3, r7
 597 00d8 0C33     		add	r3, r3, #12
 598 00da 1B78     		ldrb	r3, [r3]
 599 00dc 2F2B     		cmp	r3, #47
 600 00de 0DD9     		bls	.L33
 601              		.loc 1 482 0 is_stmt 0 discriminator 1
 602 00e0 7B68     		ldr	r3, [r7, #4]
 603 00e2 2A2B     		cmp	r3, #42
 604 00e4 0AD9     		bls	.L33
 483:.\Generated_Source\PSoC4/CyLib.c ****             {
 484:.\Generated_Source\PSoC4/CyLib.c ****                 /* Set boundary IMO frequency: safe for IMO above 48 MHZ trimming */
 485:.\Generated_Source\PSoC4/CyLib.c ****                 CY_SYS_CLK_IMO_TRIM2_REG = (uint32) cyImoFreqMhz2Reg[CY_SYS_CLK_IMO_TEMP_FREQ_MHZ -
 605              		.loc 1 485 0 is_stmt 1
 606 00e6 3A4B     		ldr	r3, .L38+60
 607 00e8 1922     		mov	r2, #25
 608 00ea 1A60     		str	r2, [r3]
 486:.\Generated_Source\PSoC4/CyLib.c ****                                                                      CY_SYS_CLK_IMO_FREQ_TABLE_OFFS
 487:.\Generated_Source\PSoC4/CyLib.c **** 
 488:.\Generated_Source\PSoC4/CyLib.c ****                 CyDelayCycles(CY_SYS_CLK_IMO_FREQ_TIMEOUT_CYCLES);
 609              		.loc 1 488 0
 610 00ec 0520     		mov	r0, #5
 611 00ee FFF7FEFF 		bl	CyDelayCycles
 489:.\Generated_Source\PSoC4/CyLib.c **** 
 490:.\Generated_Source\PSoC4/CyLib.c ****                 currentImoTrim2Value = CY_SYS_CLK_IMO_TEMP_FREQ_TRIM2;
 612              		.loc 1 490 0
 613 00f2 3B1C     		mov	r3, r7
 614 00f4 0D33     		add	r3, r3, #13
 615 00f6 1922     		mov	r2, #25
 616 00f8 1A70     		strb	r2, [r3]
 617 00fa 07E0     		b	.L34
 618              	.L33:
 491:.\Generated_Source\PSoC4/CyLib.c ****             }
 492:.\Generated_Source\PSoC4/CyLib.c ****             else
 493:.\Generated_Source\PSoC4/CyLib.c ****             {
 494:.\Generated_Source\PSoC4/CyLib.c ****                 currentImoTrim2Value = (uint8) (CY_SYS_CLK_IMO_TRIM2_REG & CY_SYS_CLK_IMO_FREQ_BITS
 619              		.loc 1 494 0
 620 00fc 344B     		ldr	r3, .L38+60
 621 00fe 1B68     		ldr	r3, [r3]
 622 0100 D9B2     		uxtb	r1, r3
 623 0102 3B1C     		mov	r3, r7
 624 0104 0D33     		add	r3, r3, #13
 625 0106 3F22     		mov	r2, #63
 626 0108 0A40     		and	r2, r1
 627 010a 1A70     		strb	r2, [r3]
 628              	.L34:
 495:.\Generated_Source\PSoC4/CyLib.c ****             }
 496:.\Generated_Source\PSoC4/CyLib.c **** 
 497:.\Generated_Source\PSoC4/CyLib.c **** 
 498:.\Generated_Source\PSoC4/CyLib.c ****             /***************************************************************************
 499:.\Generated_Source\PSoC4/CyLib.c ****             * A trim change needs to be allowed to settle (within 5us) before the Freq
 500:.\Generated_Source\PSoC4/CyLib.c ****             * can be changed to a new frequency.
 501:.\Generated_Source\PSoC4/CyLib.c ****             *
 502:.\Generated_Source\PSoC4/CyLib.c ****             * Comparing IMO_TRIM2 values for the current and new frequencies, since
 503:.\Generated_Source\PSoC4/CyLib.c ****             * IMO_TRIM2 value as a function of IMO frequency is a strictly increasing
 504:.\Generated_Source\PSoC4/CyLib.c ****             * function and is time-invariant.
 505:.\Generated_Source\PSoC4/CyLib.c ****             ***************************************************************************/
ARM GAS  C:\DOCUME~1\Owner\LOCALS~1\Temp\cc3gLjSb.s 			page 21


 506:.\Generated_Source\PSoC4/CyLib.c ****             if (newImoTrim2Value < currentImoTrim2Value)
 629              		.loc 1 506 0
 630 010c 3A1C     		mov	r2, r7
 631 010e 0C32     		add	r2, r2, #12
 632 0110 3B1C     		mov	r3, r7
 633 0112 0D33     		add	r3, r3, #13
 634 0114 1278     		ldrb	r2, [r2]
 635 0116 1B78     		ldrb	r3, [r3]
 636 0118 9A42     		cmp	r2, r3
 637 011a 08D2     		bcs	.L35
 507:.\Generated_Source\PSoC4/CyLib.c ****             {
 508:.\Generated_Source\PSoC4/CyLib.c ****                 /* Set new IMO frequency */
 509:.\Generated_Source\PSoC4/CyLib.c ****                 CY_SYS_CLK_IMO_TRIM2_REG = cyImoFreqMhz2Reg[freq - CY_SYS_CLK_IMO_FREQ_TABLE_OFFSET
 638              		.loc 1 509 0
 639 011c 2C4B     		ldr	r3, .L38+60
 640 011e 7A68     		ldr	r2, [r7, #4]
 641 0120 033A     		sub	r2, r2, #3
 642 0122 2A49     		ldr	r1, .L38+56
 643 0124 8A5C     		ldrb	r2, [r1, r2]
 644 0126 1A60     		str	r2, [r3]
 510:.\Generated_Source\PSoC4/CyLib.c ****                 CyDelayCycles(CY_SYS_CLK_IMO_FREQ_TIMEOUT_CYCLES);
 645              		.loc 1 510 0
 646 0128 0520     		mov	r0, #5
 647 012a FFF7FEFF 		bl	CyDelayCycles
 648              	.L35:
 511:.\Generated_Source\PSoC4/CyLib.c ****             }
 512:.\Generated_Source\PSoC4/CyLib.c **** 
 513:.\Generated_Source\PSoC4/CyLib.c ****             /* Set trims for the new IMO frequency */
 514:.\Generated_Source\PSoC4/CyLib.c ****             CY_SYS_CLK_IMO_TRIM1_REG = (uint32) CY_SFLASH_IMO_TRIM_REG(freq - CY_SYS_CLK_IMO_FREQ_T
 649              		.loc 1 514 0
 650 012e 294B     		ldr	r3, .L38+64
 651 0130 7A68     		ldr	r2, [r7, #4]
 652 0132 2549     		ldr	r1, .L38+52
 653 0134 5218     		add	r2, r2, r1
 654 0136 1278     		ldrb	r2, [r2]
 655 0138 D2B2     		uxtb	r2, r2
 656 013a 1A60     		str	r2, [r3]
 515:.\Generated_Source\PSoC4/CyLib.c ****             CY_PWR_BG_TRIM4_REG  = bgTrim4;
 657              		.loc 1 515 0
 658 013c 264B     		ldr	r3, .L38+68
 659 013e 3A1C     		mov	r2, r7
 660 0140 0F32     		add	r2, r2, #15
 661 0142 1278     		ldrb	r2, [r2]
 662 0144 1A60     		str	r2, [r3]
 516:.\Generated_Source\PSoC4/CyLib.c ****             CY_PWR_BG_TRIM5_REG  = bgTrim5;
 663              		.loc 1 516 0
 664 0146 254B     		ldr	r3, .L38+72
 665 0148 3A1C     		mov	r2, r7
 666 014a 0E32     		add	r2, r2, #14
 667 014c 1278     		ldrb	r2, [r2]
 668 014e 1A60     		str	r2, [r3]
 517:.\Generated_Source\PSoC4/CyLib.c ****             CyDelayUs(CY_SYS_CLK_IMO_TRIM_TIMEOUT_US);
 669              		.loc 1 517 0
 670 0150 0520     		mov	r0, #5
 671 0152 FFF7FEFF 		bl	CyDelayUs
 518:.\Generated_Source\PSoC4/CyLib.c **** 
 519:.\Generated_Source\PSoC4/CyLib.c ****             if (newImoTrim2Value > currentImoTrim2Value)
ARM GAS  C:\DOCUME~1\Owner\LOCALS~1\Temp\cc3gLjSb.s 			page 22


 672              		.loc 1 519 0
 673 0156 3A1C     		mov	r2, r7
 674 0158 0C32     		add	r2, r2, #12
 675 015a 3B1C     		mov	r3, r7
 676 015c 0D33     		add	r3, r3, #13
 677 015e 1278     		ldrb	r2, [r2]
 678 0160 1B78     		ldrb	r3, [r3]
 679 0162 9A42     		cmp	r2, r3
 680 0164 08D9     		bls	.L36
 520:.\Generated_Source\PSoC4/CyLib.c ****             {
 521:.\Generated_Source\PSoC4/CyLib.c ****                 /* Set new IMO frequency */
 522:.\Generated_Source\PSoC4/CyLib.c ****                 CY_SYS_CLK_IMO_TRIM2_REG = cyImoFreqMhz2Reg[freq - CY_SYS_CLK_IMO_FREQ_TABLE_OFFSET
 681              		.loc 1 522 0
 682 0166 1A4B     		ldr	r3, .L38+60
 683 0168 7A68     		ldr	r2, [r7, #4]
 684 016a 033A     		sub	r2, r2, #3
 685 016c 1749     		ldr	r1, .L38+56
 686 016e 8A5C     		ldrb	r2, [r1, r2]
 687 0170 1A60     		str	r2, [r3]
 523:.\Generated_Source\PSoC4/CyLib.c ****                 CyDelayCycles(CY_SYS_CLK_IMO_FREQ_TIMEOUT_CYCLES);
 688              		.loc 1 523 0
 689 0172 0520     		mov	r0, #5
 690 0174 FFF7FEFF 		bl	CyDelayCycles
 691              	.L36:
 524:.\Generated_Source\PSoC4/CyLib.c ****             }
 525:.\Generated_Source\PSoC4/CyLib.c **** 
 526:.\Generated_Source\PSoC4/CyLib.c ****             CyExitCriticalSection(interruptState);
 692              		.loc 1 526 0
 693 0178 3B1C     		mov	r3, r7
 694 017a 0B33     		add	r3, r3, #11
 695 017c 1B78     		ldrb	r3, [r3]
 696 017e 181C     		mov	r0, r3
 697 0180 FFF7FEFF 		bl	CyExitCriticalSection
 698 0184 02E0     		b	.L26
 699              	.L27:
 527:.\Generated_Source\PSoC4/CyLib.c ****         }
 528:.\Generated_Source\PSoC4/CyLib.c ****         else
 529:.\Generated_Source\PSoC4/CyLib.c ****         {
 530:.\Generated_Source\PSoC4/CyLib.c ****             /* Halt CPU in debug mode if new frequency is invalid */
 531:.\Generated_Source\PSoC4/CyLib.c ****             CYASSERT(0u != 0u);
 700              		.loc 1 531 0 discriminator 1
 701 0186 0020     		mov	r0, #0
 702 0188 FFF7FEFF 		bl	CyHalt
 703              	.L26:
 532:.\Generated_Source\PSoC4/CyLib.c ****         }
 533:.\Generated_Source\PSoC4/CyLib.c ****     }
 704              		.loc 1 533 0
 705 018c BD46     		mov	sp, r7
 706 018e 05B0     		add	sp, sp, #20
 707              		@ sp needed
 708 0190 90BD     		pop	{r4, r7, pc}
 709              	.L39:
 710 0192 C046     		.align	2
 711              	.L38:
 712 0194 C0F1FF0F 		.word	268431808
 713 0198 C1F1FF0F 		.word	268431809
 714 019c C2F1FF0F 		.word	268431810
ARM GAS  C:\DOCUME~1\Owner\LOCALS~1\Temp\cc3gLjSb.s 			page 23


 715 01a0 C3F1FF0F 		.word	268431811
 716 01a4 C4F1FF0F 		.word	268431812
 717 01a8 C5F1FF0F 		.word	268431813
 718 01ac C6F1FF0F 		.word	268431814
 719 01b0 C7F1FF0F 		.word	268431815
 720 01b4 C8F1FF0F 		.word	268431816
 721 01b8 C9F1FF0F 		.word	268431817
 722 01bc CAF1FF0F 		.word	268431818
 723 01c0 CBF1FF0F 		.word	268431819
 724 01c4 CCF1FF0F 		.word	268431820
 725 01c8 CDF1FF0F 		.word	268431821
 726 01cc 00000000 		.word	cyImoFreqMhz2Reg
 727 01d0 2CFF0B40 		.word	1074528044
 728 01d4 28FF0B40 		.word	1074528040
 729 01d8 1CFF0B40 		.word	1074528028
 730 01dc 20FF0B40 		.word	1074528032
 731              		.cfi_endproc
 732              	.LFE7:
 733              		.size	CySysClkWriteImoFreq, .-CySysClkWriteImoFreq
 734              		.section	.text.CySysWdtLock,"ax",%progbits
 735              		.align	2
 736              		.global	CySysWdtLock
 737              		.code	16
 738              		.thumb_func
 739              		.type	CySysWdtLock, %function
 740              	CySysWdtLock:
 741              	.LFB8:
 534:.\Generated_Source\PSoC4/CyLib.c **** 
 535:.\Generated_Source\PSoC4/CyLib.c **** 
 536:.\Generated_Source\PSoC4/CyLib.c **** #else
 537:.\Generated_Source\PSoC4/CyLib.c **** 
 538:.\Generated_Source\PSoC4/CyLib.c **** 
 539:.\Generated_Source\PSoC4/CyLib.c ****     /*******************************************************************************
 540:.\Generated_Source\PSoC4/CyLib.c ****     * Function Name: CySysClkWriteHfclkDiv
 541:.\Generated_Source\PSoC4/CyLib.c ****     ********************************************************************************
 542:.\Generated_Source\PSoC4/CyLib.c ****     *
 543:.\Generated_Source\PSoC4/CyLib.c ****     * Summary:
 544:.\Generated_Source\PSoC4/CyLib.c ****     *  Selects HF clk predivider value.
 545:.\Generated_Source\PSoC4/CyLib.c ****     *
 546:.\Generated_Source\PSoC4/CyLib.c ****     * Parameters:
 547:.\Generated_Source\PSoC4/CyLib.c ****     *  divider: HF clock divider value
 548:.\Generated_Source\PSoC4/CyLib.c ****     *   Define                        Description
 549:.\Generated_Source\PSoC4/CyLib.c ****     *   CY_SYS_CLK_HFCLK_DIV_NODIV    Transparent mode (w/o dividing)
 550:.\Generated_Source\PSoC4/CyLib.c ****     *   CY_SYS_CLK_HFCLK_DIV_2        Divide selected clock source by 2
 551:.\Generated_Source\PSoC4/CyLib.c ****     *   CY_SYS_CLK_HFCLK_DIV_4        Divide selected clock source by 4
 552:.\Generated_Source\PSoC4/CyLib.c ****     *   CY_SYS_CLK_HFCLK_DIV_8        Divide selected clock source by 8
 553:.\Generated_Source\PSoC4/CyLib.c ****     *
 554:.\Generated_Source\PSoC4/CyLib.c ****     * Return:
 555:.\Generated_Source\PSoC4/CyLib.c ****     *  None
 556:.\Generated_Source\PSoC4/CyLib.c ****     *
 557:.\Generated_Source\PSoC4/CyLib.c ****     * Side Effects:
 558:.\Generated_Source\PSoC4/CyLib.c ****     *  If the SYSCLK clock frequency increases during the device operation, call
 559:.\Generated_Source\PSoC4/CyLib.c ****     *  CySysFlashSetWaitCycles() with the appropriate parameter to adjust the number
 560:.\Generated_Source\PSoC4/CyLib.c ****     *  of clock cycles the cache will wait before sampling data comes back from Flash.
 561:.\Generated_Source\PSoC4/CyLib.c ****     *  If the SYSCLK clock frequency decreases, you can call
 562:.\Generated_Source\PSoC4/CyLib.c ****     *  CySysFlashSetWaitCycles() to improve the CPU performance. See
 563:.\Generated_Source\PSoC4/CyLib.c ****     *  CySysFlashSetWaitCycles() description for more information.
ARM GAS  C:\DOCUME~1\Owner\LOCALS~1\Temp\cc3gLjSb.s 			page 24


 564:.\Generated_Source\PSoC4/CyLib.c ****     *
 565:.\Generated_Source\PSoC4/CyLib.c **** 
 566:.\Generated_Source\PSoC4/CyLib.c ****     *
 567:.\Generated_Source\PSoC4/CyLib.c ****     *******************************************************************************/
 568:.\Generated_Source\PSoC4/CyLib.c ****     void CySysClkWriteHfclkDiv(uint32 divider)
 569:.\Generated_Source\PSoC4/CyLib.c ****     {
 570:.\Generated_Source\PSoC4/CyLib.c ****         uint8  interruptState;
 571:.\Generated_Source\PSoC4/CyLib.c **** 
 572:.\Generated_Source\PSoC4/CyLib.c ****         interruptState = CyEnterCriticalSection();
 573:.\Generated_Source\PSoC4/CyLib.c **** 
 574:.\Generated_Source\PSoC4/CyLib.c ****         CY_SYS_CLK_SELECT_REG = ((CY_SYS_CLK_SELECT_REG & ((uint32) (~(CY_SYS_CLK_SELECT_HFCLK_DIV_
 575:.\Generated_Source\PSoC4/CyLib.c ****                                         CY_SYS_CLK_SELECT_HFCLK_DIV_SHIFT)))) |
 576:.\Generated_Source\PSoC4/CyLib.c ****                     ((uint32)((divider & CY_SYS_CLK_SELECT_HFCLK_DIV_MASK) << CY_SYS_CLK_SELECT_HFC
 577:.\Generated_Source\PSoC4/CyLib.c **** 
 578:.\Generated_Source\PSoC4/CyLib.c ****         CyExitCriticalSection(interruptState);
 579:.\Generated_Source\PSoC4/CyLib.c ****     }
 580:.\Generated_Source\PSoC4/CyLib.c **** 
 581:.\Generated_Source\PSoC4/CyLib.c **** 
 582:.\Generated_Source\PSoC4/CyLib.c ****     /*******************************************************************************
 583:.\Generated_Source\PSoC4/CyLib.c ****     * Function Name: CySysClkWriteImoFreq
 584:.\Generated_Source\PSoC4/CyLib.c ****     ********************************************************************************
 585:.\Generated_Source\PSoC4/CyLib.c ****     *
 586:.\Generated_Source\PSoC4/CyLib.c ****     * Summary:
 587:.\Generated_Source\PSoC4/CyLib.c ****     *  Sets the frequency of the IMO.
 588:.\Generated_Source\PSoC4/CyLib.c ****     *
 589:.\Generated_Source\PSoC4/CyLib.c ****     * Parameters:
 590:.\Generated_Source\PSoC4/CyLib.c ****     *  freq: Valid values are 24, 32 and 48 MHz.
 591:.\Generated_Source\PSoC4/CyLib.c ****     *
 592:.\Generated_Source\PSoC4/CyLib.c ****     *  Note: The CPU is halted if new frequency is invalid and project is
 593:.\Generated_Source\PSoC4/CyLib.c ****     *  compiled in debug mode.
 594:.\Generated_Source\PSoC4/CyLib.c ****     *
 595:.\Generated_Source\PSoC4/CyLib.c ****     * Return:
 596:.\Generated_Source\PSoC4/CyLib.c ****     *  None
 597:.\Generated_Source\PSoC4/CyLib.c ****     *
 598:.\Generated_Source\PSoC4/CyLib.c ****     * Side Effects:
 599:.\Generated_Source\PSoC4/CyLib.c ****     *  If the SYSCLK clock frequency increases during the device operation, call
 600:.\Generated_Source\PSoC4/CyLib.c ****     *  CySysFlashSetWaitCycles() with the appropriate parameter to adjust the number
 601:.\Generated_Source\PSoC4/CyLib.c ****     *  of clock cycles the cache will wait before sampling data comes back from Flash.
 602:.\Generated_Source\PSoC4/CyLib.c ****     *  If the SYSCLK clock frequency decreases, you can call
 603:.\Generated_Source\PSoC4/CyLib.c ****     *  CySysFlashSetWaitCycles() to improve the CPU performance. See
 604:.\Generated_Source\PSoC4/CyLib.c ****     *  CySysFlashSetWaitCycles() description for more information.
 605:.\Generated_Source\PSoC4/CyLib.c ****     *
 606:.\Generated_Source\PSoC4/CyLib.c ****     *  The System Clock (SYSCLK) has maximum speed of 16 MHz, so HFCLK and SYSCLK
 607:.\Generated_Source\PSoC4/CyLib.c ****     *  dividers should be selected in a way, to not to exceed 16 MHz for the System
 608:.\Generated_Source\PSoC4/CyLib.c ****     *  clock.
 609:.\Generated_Source\PSoC4/CyLib.c ****     *
 610:.\Generated_Source\PSoC4/CyLib.c ****     *******************************************************************************/
 611:.\Generated_Source\PSoC4/CyLib.c ****     void CySysClkWriteImoFreq(uint32 freq)
 612:.\Generated_Source\PSoC4/CyLib.c ****     {
 613:.\Generated_Source\PSoC4/CyLib.c ****         uint8  interruptState;
 614:.\Generated_Source\PSoC4/CyLib.c **** 
 615:.\Generated_Source\PSoC4/CyLib.c ****         if ((freq == 24u) || (freq == 32u) || (freq == 48u))
 616:.\Generated_Source\PSoC4/CyLib.c ****         {
 617:.\Generated_Source\PSoC4/CyLib.c ****             interruptState = CyEnterCriticalSection();
 618:.\Generated_Source\PSoC4/CyLib.c **** 
 619:.\Generated_Source\PSoC4/CyLib.c ****             /* Set IMO to 24 MHz - CLK_IMO_SELECT.FREQ = 0 */
 620:.\Generated_Source\PSoC4/CyLib.c ****             CY_SYS_CLK_IMO_SELECT_REG &= ((uint32) ~CY_SYS_CLK_IMO_SELECT_FREQ_MASK);
ARM GAS  C:\DOCUME~1\Owner\LOCALS~1\Temp\cc3gLjSb.s 			page 25


 621:.\Generated_Source\PSoC4/CyLib.c **** 
 622:.\Generated_Source\PSoC4/CyLib.c ****             /* Apply coarse trim */
 623:.\Generated_Source\PSoC4/CyLib.c ****             CY_SYS_CLK_IMO_TRIM1_REG = (CY_SYS_CLK_IMO_TRIM1_REG & ((uint32) ~CY_SYS_CLK_IMO_TRIM1_
 624:.\Generated_Source\PSoC4/CyLib.c ****                 (CY_SFLASH_IMO_TRIM_REG(freq - CY_SYS_CLK_IMO_MIN_FREQ_MHZ) & CY_SYS_CLK_IMO_TRIM1_
 625:.\Generated_Source\PSoC4/CyLib.c **** 
 626:.\Generated_Source\PSoC4/CyLib.c ****             /* Zero out fine trim */
 627:.\Generated_Source\PSoC4/CyLib.c ****             CY_SYS_CLK_IMO_TRIM2_REG = CY_SYS_CLK_IMO_TRIM2_REG & ((uint32) ~CY_SYS_CLK_IMO_TRIM2_F
 628:.\Generated_Source\PSoC4/CyLib.c **** 
 629:.\Generated_Source\PSoC4/CyLib.c ****             /* Apply TC trim */
 630:.\Generated_Source\PSoC4/CyLib.c ****             CY_SYS_CLK_IMO_TRIM3_REG = (CY_SYS_CLK_IMO_TRIM3_REG & ((uint32) ~CY_SYS_CLK_IMO_TRIM3_
 631:.\Generated_Source\PSoC4/CyLib.c ****                 (CY_SFLASH_IMO_TCTRIM_REG(freq - CY_SYS_CLK_IMO_MIN_FREQ_MHZ) & CY_SYS_CLK_IMO_TRIM
 632:.\Generated_Source\PSoC4/CyLib.c **** 
 633:.\Generated_Source\PSoC4/CyLib.c ****             CyDelayCycles(CY_SYS_CLK_IMO_TRIM_DELAY_US);
 634:.\Generated_Source\PSoC4/CyLib.c **** 
 635:.\Generated_Source\PSoC4/CyLib.c ****             if (freq > CY_SYS_CLK_IMO_MIN_FREQ_MHZ)
 636:.\Generated_Source\PSoC4/CyLib.c ****             {
 637:.\Generated_Source\PSoC4/CyLib.c ****                 /* Select nearby intermediate frequency */
 638:.\Generated_Source\PSoC4/CyLib.c ****                 CY_SYS_CLK_IMO_SELECT_REG = (CY_SYS_CLK_IMO_SELECT_REG & ((uint32) ~CY_SYS_CLK_IMO_
 639:.\Generated_Source\PSoC4/CyLib.c ****                     (((freq - 4u - CY_SYS_CLK_IMO_MIN_FREQ_MHZ) >> 2u) & CY_SYS_CLK_IMO_SELECT_FREQ
 640:.\Generated_Source\PSoC4/CyLib.c **** 
 641:.\Generated_Source\PSoC4/CyLib.c ****                 CyDelayCycles(CY_SYS_CLK_IMO_TRIM_DELAY_US);
 642:.\Generated_Source\PSoC4/CyLib.c **** 
 643:.\Generated_Source\PSoC4/CyLib.c ****                 /* Make small step to final frequency */
 644:.\Generated_Source\PSoC4/CyLib.c ****                 /* Select nearby intermediate frequency */
 645:.\Generated_Source\PSoC4/CyLib.c ****                 CY_SYS_CLK_IMO_SELECT_REG = (CY_SYS_CLK_IMO_SELECT_REG & ((uint32) ~CY_SYS_CLK_IMO_
 646:.\Generated_Source\PSoC4/CyLib.c ****                     (((freq - CY_SYS_CLK_IMO_MIN_FREQ_MHZ) >> 2u) & CY_SYS_CLK_IMO_SELECT_FREQ_MASK
 647:.\Generated_Source\PSoC4/CyLib.c ****             }
 648:.\Generated_Source\PSoC4/CyLib.c **** 
 649:.\Generated_Source\PSoC4/CyLib.c ****             CyExitCriticalSection(interruptState);
 650:.\Generated_Source\PSoC4/CyLib.c ****         }
 651:.\Generated_Source\PSoC4/CyLib.c ****         else
 652:.\Generated_Source\PSoC4/CyLib.c ****         {
 653:.\Generated_Source\PSoC4/CyLib.c ****             /* Halt CPU in debug mode if new frequency is invalid */
 654:.\Generated_Source\PSoC4/CyLib.c ****             CYASSERT(0u != 0u);
 655:.\Generated_Source\PSoC4/CyLib.c ****         }
 656:.\Generated_Source\PSoC4/CyLib.c ****     }
 657:.\Generated_Source\PSoC4/CyLib.c **** 
 658:.\Generated_Source\PSoC4/CyLib.c **** #endif /* (CY_IP_SRSSV2) */
 659:.\Generated_Source\PSoC4/CyLib.c **** 
 660:.\Generated_Source\PSoC4/CyLib.c **** 
 661:.\Generated_Source\PSoC4/CyLib.c **** #if (CY_PSOC4_4100BL || CY_PSOC4_4200BL)
 662:.\Generated_Source\PSoC4/CyLib.c **** 
 663:.\Generated_Source\PSoC4/CyLib.c ****     /*******************************************************************************
 664:.\Generated_Source\PSoC4/CyLib.c ****     * Function Name: CySysClkEcoStart
 665:.\Generated_Source\PSoC4/CyLib.c ****     ********************************************************************************
 666:.\Generated_Source\PSoC4/CyLib.c ****     *
 667:.\Generated_Source\PSoC4/CyLib.c ****     * Summary:
 668:.\Generated_Source\PSoC4/CyLib.c ****     *  Starts the External Crystal Oscillator (ECO). Refer to the device datasheet
 669:.\Generated_Source\PSoC4/CyLib.c ****     *  for the ECO startup time.
 670:.\Generated_Source\PSoC4/CyLib.c ****     *
 671:.\Generated_Source\PSoC4/CyLib.c ****     *  The timeout interval is measured based on the system frequency defined by
 672:.\Generated_Source\PSoC4/CyLib.c ****     *  PSoC Creator at build time. If System clock frequency is changed in
 673:.\Generated_Source\PSoC4/CyLib.c ****     *  runtime, the CyDelayFreq() with the appropriate parameter should be called.
 674:.\Generated_Source\PSoC4/CyLib.c ****     *
 675:.\Generated_Source\PSoC4/CyLib.c ****     * Parameters:
 676:.\Generated_Source\PSoC4/CyLib.c ****     *  timeoutUs: Timeout in microseconds. If zero is specified, the function
 677:.\Generated_Source\PSoC4/CyLib.c ****     *             starts the crystal and returns CYRET_SUCCESS. If non-zero
ARM GAS  C:\DOCUME~1\Owner\LOCALS~1\Temp\cc3gLjSb.s 			page 26


 678:.\Generated_Source\PSoC4/CyLib.c ****     *             value is passed, the CYRET_SUCCESS is returned once crystal
 679:.\Generated_Source\PSoC4/CyLib.c ****     *             is oscillating and amplitude reached 60% and it does not mean
 680:.\Generated_Source\PSoC4/CyLib.c ****     *             24 MHz crystal is within 50 ppm. If it is not oscillating or
 681:.\Generated_Source\PSoC4/CyLib.c ****     *             amplitude didn't reach 60% after specified amount of time, the
 682:.\Generated_Source\PSoC4/CyLib.c ****     *             CYRET_TIMEOUT is returned.
 683:.\Generated_Source\PSoC4/CyLib.c ****     *
 684:.\Generated_Source\PSoC4/CyLib.c ****     * Return:
 685:.\Generated_Source\PSoC4/CyLib.c ****     *   CYRET_SUCCESS - Completed successfully. The ECO is oscillating and amplitude
 686:.\Generated_Source\PSoC4/CyLib.c ****     *                   reached 60% and it does not mean 24 MHz crystal is within
 687:.\Generated_Source\PSoC4/CyLib.c ****     *                   50 ppm.
 688:.\Generated_Source\PSoC4/CyLib.c ****     *   CYRET_TIMEOUT - Timeout occurred.
 689:.\Generated_Source\PSoC4/CyLib.c ****     *
 690:.\Generated_Source\PSoC4/CyLib.c ****     *******************************************************************************/
 691:.\Generated_Source\PSoC4/CyLib.c ****     cystatus CySysClkEcoStart(uint32 timeoutUs)
 692:.\Generated_Source\PSoC4/CyLib.c ****     {
 693:.\Generated_Source\PSoC4/CyLib.c ****         cystatus status = CYRET_SUCCESS;
 694:.\Generated_Source\PSoC4/CyLib.c **** 
 695:.\Generated_Source\PSoC4/CyLib.c ****         /* Enable the RF oscillator band gap */
 696:.\Generated_Source\PSoC4/CyLib.c ****         CY_SYS_XTAL_BLESS_RF_CONFIG_REG |= CY_SYS_XTAL_BLESS_RF_CONFIG_RF_ENABLE;
 697:.\Generated_Source\PSoC4/CyLib.c **** 
 698:.\Generated_Source\PSoC4/CyLib.c ****         /* Update trimming register */
 699:.\Generated_Source\PSoC4/CyLib.c ****         CY_SYS_XTAL_BLERD_BB_XO_REG = CY_SYS_XTAL_BLERD_BB_XO_TRIM;
 700:.\Generated_Source\PSoC4/CyLib.c **** 
 701:.\Generated_Source\PSoC4/CyLib.c ****         /* Enable the Crystal */
 702:.\Generated_Source\PSoC4/CyLib.c ****         CY_SYS_XTAL_BLERD_DBUS_REG |= CY_SYS_XTAL_BLERD_DBUS_XTAL_ENABLE;
 703:.\Generated_Source\PSoC4/CyLib.c **** 
 704:.\Generated_Source\PSoC4/CyLib.c ****         if(timeoutUs > 0u)
 705:.\Generated_Source\PSoC4/CyLib.c ****         {
 706:.\Generated_Source\PSoC4/CyLib.c ****             status = CYRET_TIMEOUT;
 707:.\Generated_Source\PSoC4/CyLib.c **** 
 708:.\Generated_Source\PSoC4/CyLib.c ****             for( ; timeoutUs > 0u; timeoutUs--)
 709:.\Generated_Source\PSoC4/CyLib.c ****             {
 710:.\Generated_Source\PSoC4/CyLib.c ****                 CyDelayUs(1u);
 711:.\Generated_Source\PSoC4/CyLib.c **** 
 712:.\Generated_Source\PSoC4/CyLib.c ****                 if(0u != CySysClkEcoReadStatus())
 713:.\Generated_Source\PSoC4/CyLib.c ****                 {
 714:.\Generated_Source\PSoC4/CyLib.c ****                     status = CYRET_SUCCESS;
 715:.\Generated_Source\PSoC4/CyLib.c ****                     break;
 716:.\Generated_Source\PSoC4/CyLib.c ****                 }
 717:.\Generated_Source\PSoC4/CyLib.c ****             }
 718:.\Generated_Source\PSoC4/CyLib.c **** 
 719:.\Generated_Source\PSoC4/CyLib.c ****         }
 720:.\Generated_Source\PSoC4/CyLib.c **** 
 721:.\Generated_Source\PSoC4/CyLib.c ****         return(status);
 722:.\Generated_Source\PSoC4/CyLib.c ****     }
 723:.\Generated_Source\PSoC4/CyLib.c **** 
 724:.\Generated_Source\PSoC4/CyLib.c **** 
 725:.\Generated_Source\PSoC4/CyLib.c ****     /*******************************************************************************
 726:.\Generated_Source\PSoC4/CyLib.c ****     * Function Name: CySysClkEcoStop
 727:.\Generated_Source\PSoC4/CyLib.c ****     ********************************************************************************
 728:.\Generated_Source\PSoC4/CyLib.c ****     *
 729:.\Generated_Source\PSoC4/CyLib.c ****     * Summary:
 730:.\Generated_Source\PSoC4/CyLib.c ****     *  Stops the megahertz crystal.
 731:.\Generated_Source\PSoC4/CyLib.c ****     *
 732:.\Generated_Source\PSoC4/CyLib.c ****     * Parameters:
 733:.\Generated_Source\PSoC4/CyLib.c ****     *  None
 734:.\Generated_Source\PSoC4/CyLib.c ****     *
ARM GAS  C:\DOCUME~1\Owner\LOCALS~1\Temp\cc3gLjSb.s 			page 27


 735:.\Generated_Source\PSoC4/CyLib.c ****     * Return:
 736:.\Generated_Source\PSoC4/CyLib.c ****     *  None
 737:.\Generated_Source\PSoC4/CyLib.c ****     *
 738:.\Generated_Source\PSoC4/CyLib.c ****     *******************************************************************************/
 739:.\Generated_Source\PSoC4/CyLib.c ****     void CySysClkEcoStop(void)
 740:.\Generated_Source\PSoC4/CyLib.c ****     {
 741:.\Generated_Source\PSoC4/CyLib.c ****         /* Disable the RF oscillator band gap */
 742:.\Generated_Source\PSoC4/CyLib.c ****         CY_SYS_XTAL_BLESS_RF_CONFIG_REG &= (uint32) ~CY_SYS_XTAL_BLESS_RF_CONFIG_RF_ENABLE;
 743:.\Generated_Source\PSoC4/CyLib.c **** 
 744:.\Generated_Source\PSoC4/CyLib.c ****         /* Disable the Crystal */
 745:.\Generated_Source\PSoC4/CyLib.c ****         CY_SYS_XTAL_BLERD_DBUS_REG &= (uint32) ~CY_SYS_XTAL_BLERD_DBUS_XTAL_ENABLE;
 746:.\Generated_Source\PSoC4/CyLib.c ****     }
 747:.\Generated_Source\PSoC4/CyLib.c **** 
 748:.\Generated_Source\PSoC4/CyLib.c **** 
 749:.\Generated_Source\PSoC4/CyLib.c ****     /*******************************************************************************
 750:.\Generated_Source\PSoC4/CyLib.c ****     * Function Name: CySysClkEcoReadStatus
 751:.\Generated_Source\PSoC4/CyLib.c ****     ********************************************************************************
 752:.\Generated_Source\PSoC4/CyLib.c ****     *
 753:.\Generated_Source\PSoC4/CyLib.c ****     * Summary:
 754:.\Generated_Source\PSoC4/CyLib.c ****     *  Read status bit (50 ppm reached) for the megahertz crystal.
 755:.\Generated_Source\PSoC4/CyLib.c ****     *
 756:.\Generated_Source\PSoC4/CyLib.c ****     * Parameters:
 757:.\Generated_Source\PSoC4/CyLib.c ****     *  None
 758:.\Generated_Source\PSoC4/CyLib.c ****     *
 759:.\Generated_Source\PSoC4/CyLib.c ****     * Return:
 760:.\Generated_Source\PSoC4/CyLib.c ****     *  Non-zero indicates that XTAL output reached 50 ppm.
 761:.\Generated_Source\PSoC4/CyLib.c ****     *
 762:.\Generated_Source\PSoC4/CyLib.c ****     *******************************************************************************/
 763:.\Generated_Source\PSoC4/CyLib.c ****     uint32 CySysClkEcoReadStatus(void)
 764:.\Generated_Source\PSoC4/CyLib.c ****     {
 765:.\Generated_Source\PSoC4/CyLib.c ****         return (CY_SYS_XTAL_BLERD_FSM_REG & CY_SYS_XTAL_BLERD_FSM_XO_AMP_DETECT);
 766:.\Generated_Source\PSoC4/CyLib.c ****     }
 767:.\Generated_Source\PSoC4/CyLib.c **** 
 768:.\Generated_Source\PSoC4/CyLib.c **** 
 769:.\Generated_Source\PSoC4/CyLib.c ****     /*******************************************************************************
 770:.\Generated_Source\PSoC4/CyLib.c ****     * Function Name: CySysClkWriteEcoDiv
 771:.\Generated_Source\PSoC4/CyLib.c ****     ********************************************************************************
 772:.\Generated_Source\PSoC4/CyLib.c ****     *
 773:.\Generated_Source\PSoC4/CyLib.c ****     * Summary:
 774:.\Generated_Source\PSoC4/CyLib.c ****     *  Selects value for the ECO divider.
 775:.\Generated_Source\PSoC4/CyLib.c ****     *
 776:.\Generated_Source\PSoC4/CyLib.c ****     * Parameters:
 777:.\Generated_Source\PSoC4/CyLib.c ****     *  divider: Power of 2 divider selection.
 778:.\Generated_Source\PSoC4/CyLib.c ****     *
 779:.\Generated_Source\PSoC4/CyLib.c ****     *   Define                        Description
 780:.\Generated_Source\PSoC4/CyLib.c ****     *   CY_SYS_CLK_ECO_DIV1             HFCLK = ECO / 1
 781:.\Generated_Source\PSoC4/CyLib.c ****     *   CY_SYS_CLK_ECO_DIV2             HFCLK = ECO / 2
 782:.\Generated_Source\PSoC4/CyLib.c ****     *   CY_SYS_CLK_ECO_DIV4             HFCLK = ECO / 4
 783:.\Generated_Source\PSoC4/CyLib.c ****     *   CY_SYS_CLK_ECO_DIV8             HFCLK = ECO / 8
 784:.\Generated_Source\PSoC4/CyLib.c ****     *
 785:.\Generated_Source\PSoC4/CyLib.c ****     * Return:
 786:.\Generated_Source\PSoC4/CyLib.c ****     *  None
 787:.\Generated_Source\PSoC4/CyLib.c ****     *
 788:.\Generated_Source\PSoC4/CyLib.c ****     * Side Effects:
 789:.\Generated_Source\PSoC4/CyLib.c ****     *  If the SYSCLK clock frequency increases during the device operation, call
 790:.\Generated_Source\PSoC4/CyLib.c ****     *  CySysFlashSetWaitCycles() with the appropriate parameter to adjust the number
 791:.\Generated_Source\PSoC4/CyLib.c ****     *  of clock cycles the cache will wait before sampling data comes back from Flash.
ARM GAS  C:\DOCUME~1\Owner\LOCALS~1\Temp\cc3gLjSb.s 			page 28


 792:.\Generated_Source\PSoC4/CyLib.c ****     *  If the SYSCLK clock frequency decreases, you can call
 793:.\Generated_Source\PSoC4/CyLib.c ****     *  CySysFlashSetWaitCycles() to improve the CPU performance. See
 794:.\Generated_Source\PSoC4/CyLib.c ****     *  CySysFlashSetWaitCycles() description for more information.
 795:.\Generated_Source\PSoC4/CyLib.c ****     *
 796:.\Generated_Source\PSoC4/CyLib.c ****     *******************************************************************************/
 797:.\Generated_Source\PSoC4/CyLib.c ****     void CySysClkWriteEcoDiv(uint32 divider)
 798:.\Generated_Source\PSoC4/CyLib.c ****     {
 799:.\Generated_Source\PSoC4/CyLib.c ****         uint8  interruptState;
 800:.\Generated_Source\PSoC4/CyLib.c **** 
 801:.\Generated_Source\PSoC4/CyLib.c ****         interruptState = CyEnterCriticalSection();
 802:.\Generated_Source\PSoC4/CyLib.c **** 
 803:.\Generated_Source\PSoC4/CyLib.c ****         CY_SYS_CLK_XTAL_CLK_DIV_CONFIG_REG =  (divider & CY_SYS_CLK_XTAL_CLK_DIV_MASK) |
 804:.\Generated_Source\PSoC4/CyLib.c ****                                               (CY_SYS_CLK_XTAL_CLK_DIV_CONFIG_REG & ((uint32) ~CY_S
 805:.\Generated_Source\PSoC4/CyLib.c **** 
 806:.\Generated_Source\PSoC4/CyLib.c ****         CyExitCriticalSection(interruptState);
 807:.\Generated_Source\PSoC4/CyLib.c ****     }
 808:.\Generated_Source\PSoC4/CyLib.c **** #endif /* (CY_PSOC4_4100BL || CY_PSOC4_4200BL) */
 809:.\Generated_Source\PSoC4/CyLib.c **** 
 810:.\Generated_Source\PSoC4/CyLib.c **** 
 811:.\Generated_Source\PSoC4/CyLib.c **** #if (CY_IP_WCO)
 812:.\Generated_Source\PSoC4/CyLib.c ****     /*******************************************************************************
 813:.\Generated_Source\PSoC4/CyLib.c ****     * Function Name: CySysClkWcoStart
 814:.\Generated_Source\PSoC4/CyLib.c ****     ********************************************************************************
 815:.\Generated_Source\PSoC4/CyLib.c ****     *
 816:.\Generated_Source\PSoC4/CyLib.c ****     * Summary:
 817:.\Generated_Source\PSoC4/CyLib.c ****     *  Enables the Watch Crystal Oscillator (WCO). The WCO is used as a source for
 818:.\Generated_Source\PSoC4/CyLib.c ****     *  LFCLK.  Similar to ILO, WCO is also available in all modes except Hibernate
 819:.\Generated_Source\PSoC4/CyLib.c ****     *  and Stop modes.
 820:.\Generated_Source\PSoC4/CyLib.c ****     *
 821:.\Generated_Source\PSoC4/CyLib.c ****     *  The WCO is always enabled in High Power Mode (HPM). Refer to the device
 822:.\Generated_Source\PSoC4/CyLib.c ****     *  datasheet for the  WCO startup time. Once WCO becomes stable it can be
 823:.\Generated_Source\PSoC4/CyLib.c ****     *  switched to the Low Power Mode (LPM). Note that oscillator can be unstable
 824:.\Generated_Source\PSoC4/CyLib.c ****     *  during switch and hence its output should not be used at the moment.
 825:.\Generated_Source\PSoC4/CyLib.c ****     *
 826:.\Generated_Source\PSoC4/CyLib.c ****     *  The CySysClkWcoSetPowerMode() function configures WCO power mode.
 827:.\Generated_Source\PSoC4/CyLib.c ****     *
 828:.\Generated_Source\PSoC4/CyLib.c ****     * Parameters:
 829:.\Generated_Source\PSoC4/CyLib.c ****     *  None
 830:.\Generated_Source\PSoC4/CyLib.c ****     *
 831:.\Generated_Source\PSoC4/CyLib.c ****     * Return:
 832:.\Generated_Source\PSoC4/CyLib.c ****     *  None
 833:.\Generated_Source\PSoC4/CyLib.c ****     *
 834:.\Generated_Source\PSoC4/CyLib.c ****     *******************************************************************************/
 835:.\Generated_Source\PSoC4/CyLib.c ****     void CySysClkWcoStart(void)
 836:.\Generated_Source\PSoC4/CyLib.c ****     {
 837:.\Generated_Source\PSoC4/CyLib.c ****         CySysClkWcoSetHighPowerMode();
 838:.\Generated_Source\PSoC4/CyLib.c ****         CY_SYS_CLK_WCO_CONFIG_REG |= CY_SYS_CLK_WCO_CONFIG_LPM_ENABLE;
 839:.\Generated_Source\PSoC4/CyLib.c ****     }
 840:.\Generated_Source\PSoC4/CyLib.c **** 
 841:.\Generated_Source\PSoC4/CyLib.c **** 
 842:.\Generated_Source\PSoC4/CyLib.c ****     /*******************************************************************************
 843:.\Generated_Source\PSoC4/CyLib.c ****     * Function Name: CySysClkWcoStop
 844:.\Generated_Source\PSoC4/CyLib.c ****     ********************************************************************************
 845:.\Generated_Source\PSoC4/CyLib.c ****     *
 846:.\Generated_Source\PSoC4/CyLib.c ****     * Summary:
 847:.\Generated_Source\PSoC4/CyLib.c ****     *  Disables the 32KHz Crystal Oscillator.
 848:.\Generated_Source\PSoC4/CyLib.c ****     *
ARM GAS  C:\DOCUME~1\Owner\LOCALS~1\Temp\cc3gLjSb.s 			page 29


 849:.\Generated_Source\PSoC4/CyLib.c ****     * Parameters:
 850:.\Generated_Source\PSoC4/CyLib.c ****     *  None
 851:.\Generated_Source\PSoC4/CyLib.c ****     *
 852:.\Generated_Source\PSoC4/CyLib.c ****     * Return:
 853:.\Generated_Source\PSoC4/CyLib.c ****     *  None
 854:.\Generated_Source\PSoC4/CyLib.c ****     *
 855:.\Generated_Source\PSoC4/CyLib.c ****     *******************************************************************************/
 856:.\Generated_Source\PSoC4/CyLib.c ****     void  CySysClkWcoStop(void)
 857:.\Generated_Source\PSoC4/CyLib.c ****     {
 858:.\Generated_Source\PSoC4/CyLib.c ****         uint8  interruptState;
 859:.\Generated_Source\PSoC4/CyLib.c **** 
 860:.\Generated_Source\PSoC4/CyLib.c ****         if (0u != CySysClkWcoEnabled())
 861:.\Generated_Source\PSoC4/CyLib.c ****         {
 862:.\Generated_Source\PSoC4/CyLib.c **** 
 863:.\Generated_Source\PSoC4/CyLib.c ****             if (CY_SYS_CLK_LFCLK_SRC_WCO == CySysClkGetLfclkSource())
 864:.\Generated_Source\PSoC4/CyLib.c ****             {
 865:.\Generated_Source\PSoC4/CyLib.c ****                 interruptState = CyEnterCriticalSection();
 866:.\Generated_Source\PSoC4/CyLib.c ****                 CySysClkLfclkPosedgeCatch();
 867:.\Generated_Source\PSoC4/CyLib.c ****                 CY_SYS_CLK_WCO_CONFIG_REG &= (uint32) ~CY_SYS_CLK_WCO_CONFIG_LPM_ENABLE;
 868:.\Generated_Source\PSoC4/CyLib.c ****                 CySysClkLfclkPosedgeRestore();
 869:.\Generated_Source\PSoC4/CyLib.c ****                 CyExitCriticalSection(interruptState);
 870:.\Generated_Source\PSoC4/CyLib.c ****             }
 871:.\Generated_Source\PSoC4/CyLib.c ****             else /* Safe to disable - shortened pulse does not impact peripheral */
 872:.\Generated_Source\PSoC4/CyLib.c ****             {
 873:.\Generated_Source\PSoC4/CyLib.c ****                 CY_SYS_CLK_WCO_CONFIG_REG &= (uint32) ~CY_SYS_CLK_WCO_CONFIG_LPM_ENABLE;
 874:.\Generated_Source\PSoC4/CyLib.c ****             }
 875:.\Generated_Source\PSoC4/CyLib.c ****         } /* Otherwise do nothing. WCO configuration cannot be changed. */
 876:.\Generated_Source\PSoC4/CyLib.c ****     }
 877:.\Generated_Source\PSoC4/CyLib.c **** 
 878:.\Generated_Source\PSoC4/CyLib.c **** 
 879:.\Generated_Source\PSoC4/CyLib.c ****     /*******************************************************************************
 880:.\Generated_Source\PSoC4/CyLib.c ****     * Function Name: CySysClkWcoEnabled
 881:.\Generated_Source\PSoC4/CyLib.c ****     ********************************************************************************
 882:.\Generated_Source\PSoC4/CyLib.c ****     *
 883:.\Generated_Source\PSoC4/CyLib.c ****     * Summary:
 884:.\Generated_Source\PSoC4/CyLib.c ****     *  Reports WCO enable state.
 885:.\Generated_Source\PSoC4/CyLib.c ****     *
 886:.\Generated_Source\PSoC4/CyLib.c ****     * Parameters:
 887:.\Generated_Source\PSoC4/CyLib.c ****     *  None
 888:.\Generated_Source\PSoC4/CyLib.c ****     *
 889:.\Generated_Source\PSoC4/CyLib.c ****     * Return:
 890:.\Generated_Source\PSoC4/CyLib.c ****     *  1 if WCO is enabled, and 0 if WCO is disabled.
 891:.\Generated_Source\PSoC4/CyLib.c ****     *
 892:.\Generated_Source\PSoC4/CyLib.c ****     *******************************************************************************/
 893:.\Generated_Source\PSoC4/CyLib.c ****     static uint32 CySysClkWcoEnabled(void)
 894:.\Generated_Source\PSoC4/CyLib.c ****     {
 895:.\Generated_Source\PSoC4/CyLib.c ****         return ((0u != (CY_SYS_CLK_WCO_CONFIG_REG & (uint32)(CY_SYS_CLK_WCO_CONFIG_LPM_ENABLE))) ?
 896:.\Generated_Source\PSoC4/CyLib.c ****                 (uint32) 1u :
 897:.\Generated_Source\PSoC4/CyLib.c ****                 (uint32) 0u);
 898:.\Generated_Source\PSoC4/CyLib.c ****     }
 899:.\Generated_Source\PSoC4/CyLib.c **** 
 900:.\Generated_Source\PSoC4/CyLib.c **** 
 901:.\Generated_Source\PSoC4/CyLib.c ****     /*******************************************************************************
 902:.\Generated_Source\PSoC4/CyLib.c ****     * Function Name: CySysClkWcoSetPowerMode
 903:.\Generated_Source\PSoC4/CyLib.c ****     ********************************************************************************
 904:.\Generated_Source\PSoC4/CyLib.c ****     *
 905:.\Generated_Source\PSoC4/CyLib.c ****     * Summary:
ARM GAS  C:\DOCUME~1\Owner\LOCALS~1\Temp\cc3gLjSb.s 			page 30


 906:.\Generated_Source\PSoC4/CyLib.c ****     *  Sets the power mode for the 32 KHz WCO.
 907:.\Generated_Source\PSoC4/CyLib.c ****     *
 908:.\Generated_Source\PSoC4/CyLib.c ****     * Parameters:
 909:.\Generated_Source\PSoC4/CyLib.c ****     *  uint32 mode:
 910:.\Generated_Source\PSoC4/CyLib.c ****     *   CY_SYS_CLK_WCO_HPM  - High power mode
 911:.\Generated_Source\PSoC4/CyLib.c ****     *   CY_SYS_CLK_WCO_LPM  - Low power mode
 912:.\Generated_Source\PSoC4/CyLib.c ****     *
 913:.\Generated_Source\PSoC4/CyLib.c ****     * Return:
 914:.\Generated_Source\PSoC4/CyLib.c ****     *  Previous power mode. The same as parameters.
 915:.\Generated_Source\PSoC4/CyLib.c ****     *
 916:.\Generated_Source\PSoC4/CyLib.c ****     *******************************************************************************/
 917:.\Generated_Source\PSoC4/CyLib.c ****     uint32 CySysClkWcoSetPowerMode(uint32 mode)
 918:.\Generated_Source\PSoC4/CyLib.c ****     {
 919:.\Generated_Source\PSoC4/CyLib.c ****         uint32 status;
 920:.\Generated_Source\PSoC4/CyLib.c **** 
 921:.\Generated_Source\PSoC4/CyLib.c ****         status = CY_SYS_CLK_WCO_CONFIG_REG & CY_SYS_CLK_WCO_LPM;
 922:.\Generated_Source\PSoC4/CyLib.c **** 
 923:.\Generated_Source\PSoC4/CyLib.c ****         switch(mode)
 924:.\Generated_Source\PSoC4/CyLib.c ****         {
 925:.\Generated_Source\PSoC4/CyLib.c ****         case CY_SYS_CLK_WCO_HPM:
 926:.\Generated_Source\PSoC4/CyLib.c ****                 CySysClkWcoSetHighPowerMode();
 927:.\Generated_Source\PSoC4/CyLib.c ****             break;
 928:.\Generated_Source\PSoC4/CyLib.c **** 
 929:.\Generated_Source\PSoC4/CyLib.c ****         case CY_SYS_CLK_WCO_LPM:
 930:.\Generated_Source\PSoC4/CyLib.c ****                 CySysClkWcoSetLowPowerMode();
 931:.\Generated_Source\PSoC4/CyLib.c ****             break;
 932:.\Generated_Source\PSoC4/CyLib.c **** 
 933:.\Generated_Source\PSoC4/CyLib.c ****         default:
 934:.\Generated_Source\PSoC4/CyLib.c ****             CYASSERT(0u != 0u);
 935:.\Generated_Source\PSoC4/CyLib.c ****             break;
 936:.\Generated_Source\PSoC4/CyLib.c ****         }
 937:.\Generated_Source\PSoC4/CyLib.c **** 
 938:.\Generated_Source\PSoC4/CyLib.c ****         return (status);
 939:.\Generated_Source\PSoC4/CyLib.c ****     }
 940:.\Generated_Source\PSoC4/CyLib.c **** 
 941:.\Generated_Source\PSoC4/CyLib.c **** #endif  /* (CY_IP_WCO) */
 942:.\Generated_Source\PSoC4/CyLib.c **** 
 943:.\Generated_Source\PSoC4/CyLib.c **** 
 944:.\Generated_Source\PSoC4/CyLib.c **** #if(CY_IP_SRSSV2)
 945:.\Generated_Source\PSoC4/CyLib.c **** 
 946:.\Generated_Source\PSoC4/CyLib.c **** 
 947:.\Generated_Source\PSoC4/CyLib.c ****     /*******************************************************************************
 948:.\Generated_Source\PSoC4/CyLib.c ****     * Function Name: CySysWdtLock
 949:.\Generated_Source\PSoC4/CyLib.c ****     ********************************************************************************
 950:.\Generated_Source\PSoC4/CyLib.c ****     *
 951:.\Generated_Source\PSoC4/CyLib.c ****     * Summary:
 952:.\Generated_Source\PSoC4/CyLib.c ****     *  Locks out configuration changes to the Watchdog timer registers and ILO
 953:.\Generated_Source\PSoC4/CyLib.c ****     *  configuration register.
 954:.\Generated_Source\PSoC4/CyLib.c ****     *
 955:.\Generated_Source\PSoC4/CyLib.c ****     * Parameters:
 956:.\Generated_Source\PSoC4/CyLib.c ****     *  None
 957:.\Generated_Source\PSoC4/CyLib.c ****     *
 958:.\Generated_Source\PSoC4/CyLib.c ****     * Return:
 959:.\Generated_Source\PSoC4/CyLib.c ****     *  None
 960:.\Generated_Source\PSoC4/CyLib.c ****     *
 961:.\Generated_Source\PSoC4/CyLib.c ****     * Side effects:
 962:.\Generated_Source\PSoC4/CyLib.c ****     *  After this function was called, ILO clock can't be disabled until
ARM GAS  C:\DOCUME~1\Owner\LOCALS~1\Temp\cc3gLjSb.s 			page 31


 963:.\Generated_Source\PSoC4/CyLib.c ****     *  CySysWdtUnlock() is called.
 964:.\Generated_Source\PSoC4/CyLib.c ****     *
 965:.\Generated_Source\PSoC4/CyLib.c ****     *******************************************************************************/
 966:.\Generated_Source\PSoC4/CyLib.c ****     void CySysWdtLock(void)
 967:.\Generated_Source\PSoC4/CyLib.c ****     {
 742              		.loc 1 967 0
 743              		.cfi_startproc
 744 0000 90B5     		push	{r4, r7, lr}
 745              		.cfi_def_cfa_offset 12
 746              		.cfi_offset 4, -12
 747              		.cfi_offset 7, -8
 748              		.cfi_offset 14, -4
 749 0002 83B0     		sub	sp, sp, #12
 750              		.cfi_def_cfa_offset 24
 751 0004 00AF     		add	r7, sp, #0
 752              		.cfi_def_cfa_register 7
 968:.\Generated_Source\PSoC4/CyLib.c ****         uint8 interruptState;
 969:.\Generated_Source\PSoC4/CyLib.c ****         interruptState = CyEnterCriticalSection();
 753              		.loc 1 969 0
 754 0006 FC1D     		add	r4, r7, #7
 755 0008 FFF7FEFF 		bl	CyEnterCriticalSection
 756 000c 031C     		mov	r3, r0
 757 000e 2370     		strb	r3, [r4]
 970:.\Generated_Source\PSoC4/CyLib.c **** 
 971:.\Generated_Source\PSoC4/CyLib.c ****         CY_SYS_CLK_SELECT_REG = (CY_SYS_CLK_SELECT_REG & (uint32)(~CY_SYS_WDT_CLK_LOCK_BITS_MASK)) 
 758              		.loc 1 971 0
 759 0010 074B     		ldr	r3, .L41
 760 0012 074A     		ldr	r2, .L41
 761 0014 1268     		ldr	r2, [r2]
 762 0016 C021     		mov	r1, #192
 763 0018 0902     		lsl	r1, r1, #8
 764 001a 0A43     		orr	r2, r1
 765 001c 1A60     		str	r2, [r3]
 972:.\Generated_Source\PSoC4/CyLib.c ****                  CY_SYS_WDT_CLK_LOCK_BITS_MASK;
 973:.\Generated_Source\PSoC4/CyLib.c **** 
 974:.\Generated_Source\PSoC4/CyLib.c ****         CyExitCriticalSection(interruptState);
 766              		.loc 1 974 0
 767 001e FB1D     		add	r3, r7, #7
 768 0020 1B78     		ldrb	r3, [r3]
 769 0022 181C     		mov	r0, r3
 770 0024 FFF7FEFF 		bl	CyExitCriticalSection
 975:.\Generated_Source\PSoC4/CyLib.c ****     }
 771              		.loc 1 975 0
 772 0028 BD46     		mov	sp, r7
 773 002a 03B0     		add	sp, sp, #12
 774              		@ sp needed
 775 002c 90BD     		pop	{r4, r7, pc}
 776              	.L42:
 777 002e C046     		.align	2
 778              	.L41:
 779 0030 00010B40 		.word	1074462976
 780              		.cfi_endproc
 781              	.LFE8:
 782              		.size	CySysWdtLock, .-CySysWdtLock
 783              		.section	.text.CySysWdtLocked,"ax",%progbits
 784              		.align	2
 785              		.code	16
ARM GAS  C:\DOCUME~1\Owner\LOCALS~1\Temp\cc3gLjSb.s 			page 32


 786              		.thumb_func
 787              		.type	CySysWdtLocked, %function
 788              	CySysWdtLocked:
 789              	.LFB9:
 976:.\Generated_Source\PSoC4/CyLib.c **** 
 977:.\Generated_Source\PSoC4/CyLib.c **** 
 978:.\Generated_Source\PSoC4/CyLib.c ****     /*******************************************************************************
 979:.\Generated_Source\PSoC4/CyLib.c ****     * Function Name: CySysWdtLocked
 980:.\Generated_Source\PSoC4/CyLib.c ****     ********************************************************************************
 981:.\Generated_Source\PSoC4/CyLib.c ****     *
 982:.\Generated_Source\PSoC4/CyLib.c ****     * Summary:
 983:.\Generated_Source\PSoC4/CyLib.c ****     *  Reports WDT lock state.
 984:.\Generated_Source\PSoC4/CyLib.c ****     *
 985:.\Generated_Source\PSoC4/CyLib.c ****     * Parameters:
 986:.\Generated_Source\PSoC4/CyLib.c ****     *  None
 987:.\Generated_Source\PSoC4/CyLib.c ****     *
 988:.\Generated_Source\PSoC4/CyLib.c ****     * Return:
 989:.\Generated_Source\PSoC4/CyLib.c ****     *  1 - WDT is locked, and 0 - WDT is unlocked.
 990:.\Generated_Source\PSoC4/CyLib.c ****     *
 991:.\Generated_Source\PSoC4/CyLib.c ****     *******************************************************************************/
 992:.\Generated_Source\PSoC4/CyLib.c ****     static uint32 CySysWdtLocked(void)
 993:.\Generated_Source\PSoC4/CyLib.c ****     {
 790              		.loc 1 993 0
 791              		.cfi_startproc
 792 0000 80B5     		push	{r7, lr}
 793              		.cfi_def_cfa_offset 8
 794              		.cfi_offset 7, -8
 795              		.cfi_offset 14, -4
 796 0002 00AF     		add	r7, sp, #0
 797              		.cfi_def_cfa_register 7
 994:.\Generated_Source\PSoC4/CyLib.c ****         /* Prohibits writing to WDT registers and ILO/WCO registers when not equal 0 */
 995:.\Generated_Source\PSoC4/CyLib.c ****         return ((0u != (CY_SYS_CLK_SELECT_REG & (uint32)(CY_SYS_WDT_CLK_LOCK_BITS_MASK))) ? (uint32
 798              		.loc 1 995 0
 799 0004 054B     		ldr	r3, .L47
 800 0006 1A68     		ldr	r2, [r3]
 801 0008 C023     		mov	r3, #192
 802 000a 1B02     		lsl	r3, r3, #8
 803 000c 1340     		and	r3, r2
 804 000e 01D0     		beq	.L44
 805              		.loc 1 995 0 is_stmt 0 discriminator 1
 806 0010 0123     		mov	r3, #1
 807 0012 00E0     		b	.L45
 808              	.L44:
 809              		.loc 1 995 0 discriminator 2
 810 0014 0023     		mov	r3, #0
 811              	.L45:
 996:.\Generated_Source\PSoC4/CyLib.c ****     }
 812              		.loc 1 996 0 is_stmt 1 discriminator 3
 813 0016 181C     		mov	r0, r3
 814 0018 BD46     		mov	sp, r7
 815              		@ sp needed
 816 001a 80BD     		pop	{r7, pc}
 817              	.L48:
 818              		.align	2
 819              	.L47:
 820 001c 00010B40 		.word	1074462976
 821              		.cfi_endproc
ARM GAS  C:\DOCUME~1\Owner\LOCALS~1\Temp\cc3gLjSb.s 			page 33


 822              	.LFE9:
 823              		.size	CySysWdtLocked, .-CySysWdtLocked
 824              		.section	.text.CySysWdtUnlock,"ax",%progbits
 825              		.align	2
 826              		.global	CySysWdtUnlock
 827              		.code	16
 828              		.thumb_func
 829              		.type	CySysWdtUnlock, %function
 830              	CySysWdtUnlock:
 831              	.LFB10:
 997:.\Generated_Source\PSoC4/CyLib.c **** 
 998:.\Generated_Source\PSoC4/CyLib.c **** 
 999:.\Generated_Source\PSoC4/CyLib.c ****     /*******************************************************************************
1000:.\Generated_Source\PSoC4/CyLib.c ****     * Function Name: CySysWdtUnlock
1001:.\Generated_Source\PSoC4/CyLib.c ****     ********************************************************************************
1002:.\Generated_Source\PSoC4/CyLib.c ****     *
1003:.\Generated_Source\PSoC4/CyLib.c ****     * Summary:
1004:.\Generated_Source\PSoC4/CyLib.c ****     *  Unlocks the Watchdog Timer configuration register.
1005:.\Generated_Source\PSoC4/CyLib.c ****     *
1006:.\Generated_Source\PSoC4/CyLib.c ****     * Parameters:
1007:.\Generated_Source\PSoC4/CyLib.c ****     *  None
1008:.\Generated_Source\PSoC4/CyLib.c ****     *
1009:.\Generated_Source\PSoC4/CyLib.c ****     * Return:
1010:.\Generated_Source\PSoC4/CyLib.c ****     *  None
1011:.\Generated_Source\PSoC4/CyLib.c ****     *
1012:.\Generated_Source\PSoC4/CyLib.c ****     *******************************************************************************/
1013:.\Generated_Source\PSoC4/CyLib.c ****     void CySysWdtUnlock(void)
1014:.\Generated_Source\PSoC4/CyLib.c ****     {
 832              		.loc 1 1014 0
 833              		.cfi_startproc
 834 0000 90B5     		push	{r4, r7, lr}
 835              		.cfi_def_cfa_offset 12
 836              		.cfi_offset 4, -12
 837              		.cfi_offset 7, -8
 838              		.cfi_offset 14, -4
 839 0002 83B0     		sub	sp, sp, #12
 840              		.cfi_def_cfa_offset 24
 841 0004 00AF     		add	r7, sp, #0
 842              		.cfi_def_cfa_register 7
1015:.\Generated_Source\PSoC4/CyLib.c ****         uint8 interruptState;
1016:.\Generated_Source\PSoC4/CyLib.c ****         interruptState = CyEnterCriticalSection();
 843              		.loc 1 1016 0
 844 0006 FC1D     		add	r4, r7, #7
 845 0008 FFF7FEFF 		bl	CyEnterCriticalSection
 846 000c 031C     		mov	r3, r0
 847 000e 2370     		strb	r3, [r4]
1017:.\Generated_Source\PSoC4/CyLib.c **** 
1018:.\Generated_Source\PSoC4/CyLib.c ****         /* Removing WDT lock requires two writes */
1019:.\Generated_Source\PSoC4/CyLib.c ****         CY_SYS_CLK_SELECT_REG = ((CY_SYS_CLK_SELECT_REG & (uint32)(~CY_SYS_WDT_CLK_LOCK_BITS_MASK))
 848              		.loc 1 1019 0
 849 0010 0C4B     		ldr	r3, .L50
 850 0012 0C4A     		ldr	r2, .L50
 851 0014 1168     		ldr	r1, [r2]
 852 0016 0C4A     		ldr	r2, .L50+4
 853 0018 0A40     		and	r2, r1
 854 001a 8021     		mov	r1, #128
 855 001c C901     		lsl	r1, r1, #7
ARM GAS  C:\DOCUME~1\Owner\LOCALS~1\Temp\cc3gLjSb.s 			page 34


 856 001e 0A43     		orr	r2, r1
 857 0020 1A60     		str	r2, [r3]
1020:.\Generated_Source\PSoC4/CyLib.c ****                 CY_SYS_WDT_CLK_LOCK_BIT0);
1021:.\Generated_Source\PSoC4/CyLib.c **** 
1022:.\Generated_Source\PSoC4/CyLib.c ****         CY_SYS_CLK_SELECT_REG = ((CY_SYS_CLK_SELECT_REG & (uint32)(~CY_SYS_WDT_CLK_LOCK_BITS_MASK))
 858              		.loc 1 1022 0
 859 0022 084B     		ldr	r3, .L50
 860 0024 074A     		ldr	r2, .L50
 861 0026 1168     		ldr	r1, [r2]
 862 0028 074A     		ldr	r2, .L50+4
 863 002a 0A40     		and	r2, r1
 864 002c 8021     		mov	r1, #128
 865 002e 0902     		lsl	r1, r1, #8
 866 0030 0A43     		orr	r2, r1
 867 0032 1A60     		str	r2, [r3]
1023:.\Generated_Source\PSoC4/CyLib.c ****                 CY_SYS_WDT_CLK_LOCK_BIT1);
1024:.\Generated_Source\PSoC4/CyLib.c **** 
1025:.\Generated_Source\PSoC4/CyLib.c ****         CyExitCriticalSection(interruptState);
 868              		.loc 1 1025 0
 869 0034 FB1D     		add	r3, r7, #7
 870 0036 1B78     		ldrb	r3, [r3]
 871 0038 181C     		mov	r0, r3
 872 003a FFF7FEFF 		bl	CyExitCriticalSection
1026:.\Generated_Source\PSoC4/CyLib.c ****     }
 873              		.loc 1 1026 0
 874 003e BD46     		mov	sp, r7
 875 0040 03B0     		add	sp, sp, #12
 876              		@ sp needed
 877 0042 90BD     		pop	{r4, r7, pc}
 878              	.L51:
 879              		.align	2
 880              	.L50:
 881 0044 00010B40 		.word	1074462976
 882 0048 FF3FFFFF 		.word	-49153
 883              		.cfi_endproc
 884              	.LFE10:
 885              		.size	CySysWdtUnlock, .-CySysWdtUnlock
 886              		.section	.text.CySysWdtReadEnabledStatus,"ax",%progbits
 887              		.align	2
 888              		.global	CySysWdtReadEnabledStatus
 889              		.code	16
 890              		.thumb_func
 891              		.type	CySysWdtReadEnabledStatus, %function
 892              	CySysWdtReadEnabledStatus:
 893              	.LFB11:
1027:.\Generated_Source\PSoC4/CyLib.c **** 
1028:.\Generated_Source\PSoC4/CyLib.c **** 
1029:.\Generated_Source\PSoC4/CyLib.c ****     /*******************************************************************************
1030:.\Generated_Source\PSoC4/CyLib.c ****     * Function Name: CySysWdtReadEnabledStatus
1031:.\Generated_Source\PSoC4/CyLib.c ****     ********************************************************************************
1032:.\Generated_Source\PSoC4/CyLib.c ****     *
1033:.\Generated_Source\PSoC4/CyLib.c ****     * Summary:
1034:.\Generated_Source\PSoC4/CyLib.c ****     *  Reads the enabled status of one of the three WDT counters.
1035:.\Generated_Source\PSoC4/CyLib.c ****     *
1036:.\Generated_Source\PSoC4/CyLib.c ****     * Parameters:
1037:.\Generated_Source\PSoC4/CyLib.c ****     *  counterNum: Valid range [0-2].  Number of the WDT counter.
1038:.\Generated_Source\PSoC4/CyLib.c ****     *
ARM GAS  C:\DOCUME~1\Owner\LOCALS~1\Temp\cc3gLjSb.s 			page 35


1039:.\Generated_Source\PSoC4/CyLib.c ****     * Return:
1040:.\Generated_Source\PSoC4/CyLib.c ****     *  Status of WDT counter:
1041:.\Generated_Source\PSoC4/CyLib.c ****     *   0 - counter is disabled
1042:.\Generated_Source\PSoC4/CyLib.c ****     *   1 - counter is enabled
1043:.\Generated_Source\PSoC4/CyLib.c ****     *
1044:.\Generated_Source\PSoC4/CyLib.c ****     * Side Effects:
1045:.\Generated_Source\PSoC4/CyLib.c ****     *  This function returns actual WDT counter status from status register. It may
1046:.\Generated_Source\PSoC4/CyLib.c ****     *  take up to 3 LFCLK cycles since WDT counter was enabled for WDT status
1047:.\Generated_Source\PSoC4/CyLib.c ****     *  register to contain actual data.
1048:.\Generated_Source\PSoC4/CyLib.c ****     *
1049:.\Generated_Source\PSoC4/CyLib.c ****     *******************************************************************************/
1050:.\Generated_Source\PSoC4/CyLib.c ****     uint32 CySysWdtReadEnabledStatus(uint32 counterNum)
1051:.\Generated_Source\PSoC4/CyLib.c ****     {
 894              		.loc 1 1051 0
 895              		.cfi_startproc
 896 0000 80B5     		push	{r7, lr}
 897              		.cfi_def_cfa_offset 8
 898              		.cfi_offset 7, -8
 899              		.cfi_offset 14, -4
 900 0002 82B0     		sub	sp, sp, #8
 901              		.cfi_def_cfa_offset 16
 902 0004 00AF     		add	r7, sp, #0
 903              		.cfi_def_cfa_register 7
 904 0006 7860     		str	r0, [r7, #4]
1052:.\Generated_Source\PSoC4/CyLib.c ****         CYASSERT(counterNum < CY_SYS_WDT_COUNTERS_MAX);
 905              		.loc 1 1052 0
 906 0008 7B68     		ldr	r3, [r7, #4]
 907 000a 022B     		cmp	r3, #2
 908 000c 02D9     		bls	.L53
 909              		.loc 1 1052 0 is_stmt 0 discriminator 1
 910 000e 0020     		mov	r0, #0
 911 0010 FFF7FEFF 		bl	CyHalt
 912              	.L53:
1053:.\Generated_Source\PSoC4/CyLib.c ****         return ((CY_SYS_WDT_CONTROL_REG >> ((CY_SYS_WDT_CNT_SHIFT * counterNum) + CY_SYS_WDT_CNT_ST
 913              		.loc 1 1053 0 is_stmt 1
 914 0014 054B     		ldr	r3, .L55
 915 0016 1A68     		ldr	r2, [r3]
 916 0018 7B68     		ldr	r3, [r7, #4]
 917 001a DB00     		lsl	r3, r3, #3
 918 001c 0133     		add	r3, r3, #1
 919 001e DA40     		lsr	r2, r2, r3
 920 0020 0123     		mov	r3, #1
 921 0022 1340     		and	r3, r2
1054:.\Generated_Source\PSoC4/CyLib.c ****     }
 922              		.loc 1 1054 0
 923 0024 181C     		mov	r0, r3
 924 0026 BD46     		mov	sp, r7
 925 0028 02B0     		add	sp, sp, #8
 926              		@ sp needed
 927 002a 80BD     		pop	{r7, pc}
 928              	.L56:
 929              		.align	2
 930              	.L55:
 931 002c 10020B40 		.word	1074463248
 932              		.cfi_endproc
 933              	.LFE11:
 934              		.size	CySysWdtReadEnabledStatus, .-CySysWdtReadEnabledStatus
ARM GAS  C:\DOCUME~1\Owner\LOCALS~1\Temp\cc3gLjSb.s 			page 36


 935              		.section	.text.CySysWdtWriteMode,"ax",%progbits
 936              		.align	2
 937              		.global	CySysWdtWriteMode
 938              		.code	16
 939              		.thumb_func
 940              		.type	CySysWdtWriteMode, %function
 941              	CySysWdtWriteMode:
 942              	.LFB12:
1055:.\Generated_Source\PSoC4/CyLib.c **** 
1056:.\Generated_Source\PSoC4/CyLib.c **** 
1057:.\Generated_Source\PSoC4/CyLib.c ****     /*******************************************************************************
1058:.\Generated_Source\PSoC4/CyLib.c ****     * Function Name: CySysWdtWriteMode
1059:.\Generated_Source\PSoC4/CyLib.c ****     ********************************************************************************
1060:.\Generated_Source\PSoC4/CyLib.c ****     *
1061:.\Generated_Source\PSoC4/CyLib.c ****     * Summary:
1062:.\Generated_Source\PSoC4/CyLib.c ****     *   Writes the mode of one of the three WDT counters.
1063:.\Generated_Source\PSoC4/CyLib.c ****     *
1064:.\Generated_Source\PSoC4/CyLib.c ****     * Parameters:
1065:.\Generated_Source\PSoC4/CyLib.c ****     *   counterNum: Valid range [0-2].  Number of the WDT counter.
1066:.\Generated_Source\PSoC4/CyLib.c ****     *   mode:       Mode of operation for the counter
1067:.\Generated_Source\PSoC4/CyLib.c ****     *       Define                   Mode
1068:.\Generated_Source\PSoC4/CyLib.c ****     *    CY_SYS_WDT_MODE_NONE       Free running
1069:.\Generated_Source\PSoC4/CyLib.c ****     *    CY_SYS_WDT_MODE_INT        Interrupt generated on match for counter 0
1070:.\Generated_Source\PSoC4/CyLib.c ****     *                               and 1, and on bit toggle for counter 2.
1071:.\Generated_Source\PSoC4/CyLib.c ****     *    CY_SYS_WDT_MODE_RESET      Reset on match (valid for counter 0 and 1
1072:.\Generated_Source\PSoC4/CyLib.c ****     *                               only)
1073:.\Generated_Source\PSoC4/CyLib.c ****     *    CY_SYS_WDT_MODE_INT_RESET  Generate an interrupt.  Generate a reset on
1074:.\Generated_Source\PSoC4/CyLib.c ****     *                                    the 3rd unhandled interrupt.
1075:.\Generated_Source\PSoC4/CyLib.c ****     *                                    (valid for counter 0 and 1 only)
1076:.\Generated_Source\PSoC4/CyLib.c ****     * Return:
1077:.\Generated_Source\PSoC4/CyLib.c ****     *   None
1078:.\Generated_Source\PSoC4/CyLib.c ****     *
1079:.\Generated_Source\PSoC4/CyLib.c ****     * Side Effects:
1080:.\Generated_Source\PSoC4/CyLib.c ****     *   WDT counter counterNum should be disabled to set mode. Otherwise this
1081:.\Generated_Source\PSoC4/CyLib.c ****     *   function call will have no effect. If the specified counter is enabled,
1082:.\Generated_Source\PSoC4/CyLib.c ****     *   call CySysWdtDisable() function with the corresponding parameter to
1083:.\Generated_Source\PSoC4/CyLib.c ****     *   disable specified counter and wait for it to stop.
1084:.\Generated_Source\PSoC4/CyLib.c ****     *
1085:.\Generated_Source\PSoC4/CyLib.c ****     *******************************************************************************/
1086:.\Generated_Source\PSoC4/CyLib.c ****     void CySysWdtWriteMode(uint32 counterNum, uint32 mode)
1087:.\Generated_Source\PSoC4/CyLib.c ****     {
 943              		.loc 1 1087 0
 944              		.cfi_startproc
 945 0000 80B5     		push	{r7, lr}
 946              		.cfi_def_cfa_offset 8
 947              		.cfi_offset 7, -8
 948              		.cfi_offset 14, -4
 949 0002 84B0     		sub	sp, sp, #16
 950              		.cfi_def_cfa_offset 24
 951 0004 00AF     		add	r7, sp, #0
 952              		.cfi_def_cfa_register 7
 953 0006 7860     		str	r0, [r7, #4]
 954 0008 3960     		str	r1, [r7]
1088:.\Generated_Source\PSoC4/CyLib.c ****         uint32 configRegValue;
1089:.\Generated_Source\PSoC4/CyLib.c **** 
1090:.\Generated_Source\PSoC4/CyLib.c ****         CYASSERT(counterNum < CY_SYS_WDT_COUNTERS_MAX);
 955              		.loc 1 1090 0
ARM GAS  C:\DOCUME~1\Owner\LOCALS~1\Temp\cc3gLjSb.s 			page 37


 956 000a 7B68     		ldr	r3, [r7, #4]
 957 000c 022B     		cmp	r3, #2
 958 000e 02D9     		bls	.L58
 959              		.loc 1 1090 0 is_stmt 0 discriminator 1
 960 0010 0020     		mov	r0, #0
 961 0012 FFF7FEFF 		bl	CyHalt
 962              	.L58:
1091:.\Generated_Source\PSoC4/CyLib.c **** 
1092:.\Generated_Source\PSoC4/CyLib.c ****         if(0u == CySysWdtReadEnabledStatus(counterNum))
 963              		.loc 1 1092 0 is_stmt 1
 964 0016 7B68     		ldr	r3, [r7, #4]
 965 0018 181C     		mov	r0, r3
 966 001a FFF7FEFF 		bl	CySysWdtReadEnabledStatus
 967 001e 031C     		mov	r3, r0
 968 0020 002B     		cmp	r3, #0
 969 0022 18D1     		bne	.L57
1093:.\Generated_Source\PSoC4/CyLib.c ****         {
1094:.\Generated_Source\PSoC4/CyLib.c ****             configRegValue = CY_SYS_WDT_CONFIG_REG &
 970              		.loc 1 1094 0
 971 0024 0D4B     		ldr	r3, .L60
 972 0026 1B68     		ldr	r3, [r3]
1095:.\Generated_Source\PSoC4/CyLib.c ****                                 (uint32)~((uint32)(CY_SYS_WDT_MODE_MASK << (counterNum * CY_SYS_WDT
 973              		.loc 1 1095 0
 974 0028 7A68     		ldr	r2, [r7, #4]
 975 002a D200     		lsl	r2, r2, #3
 976 002c 0321     		mov	r1, #3
 977 002e 081C     		mov	r0, r1
 978 0030 9040     		lsl	r0, r0, r2
 979 0032 021C     		mov	r2, r0
 980 0034 D243     		mvn	r2, r2
1094:.\Generated_Source\PSoC4/CyLib.c ****             configRegValue = CY_SYS_WDT_CONFIG_REG &
 981              		.loc 1 1094 0
 982 0036 1340     		and	r3, r2
 983 0038 FB60     		str	r3, [r7, #12]
1096:.\Generated_Source\PSoC4/CyLib.c ****             configRegValue |= (uint32)((mode & CY_SYS_WDT_MODE_MASK) << (counterNum * CY_SYS_WDT_CN
 984              		.loc 1 1096 0
 985 003a 3A68     		ldr	r2, [r7]
 986 003c 0323     		mov	r3, #3
 987 003e 1A40     		and	r2, r3
 988 0040 7B68     		ldr	r3, [r7, #4]
 989 0042 DB00     		lsl	r3, r3, #3
 990 0044 111C     		mov	r1, r2
 991 0046 9940     		lsl	r1, r1, r3
 992 0048 0B1C     		mov	r3, r1
 993 004a FA68     		ldr	r2, [r7, #12]
 994 004c 1343     		orr	r3, r2
 995 004e FB60     		str	r3, [r7, #12]
1097:.\Generated_Source\PSoC4/CyLib.c ****             CY_SYS_WDT_CONFIG_REG = configRegValue;
 996              		.loc 1 1097 0
 997 0050 024B     		ldr	r3, .L60
 998 0052 FA68     		ldr	r2, [r7, #12]
 999 0054 1A60     		str	r2, [r3]
 1000              	.L57:
1098:.\Generated_Source\PSoC4/CyLib.c ****         }
1099:.\Generated_Source\PSoC4/CyLib.c ****     }
 1001              		.loc 1 1099 0
 1002 0056 BD46     		mov	sp, r7
ARM GAS  C:\DOCUME~1\Owner\LOCALS~1\Temp\cc3gLjSb.s 			page 38


 1003 0058 04B0     		add	sp, sp, #16
 1004              		@ sp needed
 1005 005a 80BD     		pop	{r7, pc}
 1006              	.L61:
 1007              		.align	2
 1008              	.L60:
 1009 005c 0C020B40 		.word	1074463244
 1010              		.cfi_endproc
 1011              	.LFE12:
 1012              		.size	CySysWdtWriteMode, .-CySysWdtWriteMode
 1013              		.section	.text.CySysWdtReadMode,"ax",%progbits
 1014              		.align	2
 1015              		.global	CySysWdtReadMode
 1016              		.code	16
 1017              		.thumb_func
 1018              		.type	CySysWdtReadMode, %function
 1019              	CySysWdtReadMode:
 1020              	.LFB13:
1100:.\Generated_Source\PSoC4/CyLib.c **** 
1101:.\Generated_Source\PSoC4/CyLib.c **** 
1102:.\Generated_Source\PSoC4/CyLib.c ****     /*******************************************************************************
1103:.\Generated_Source\PSoC4/CyLib.c ****     * Function Name: CySysWdtReadMode
1104:.\Generated_Source\PSoC4/CyLib.c ****     ********************************************************************************
1105:.\Generated_Source\PSoC4/CyLib.c ****     *
1106:.\Generated_Source\PSoC4/CyLib.c ****     * Summary:
1107:.\Generated_Source\PSoC4/CyLib.c ****     *  Reads the mode of one of the three WDT counters.
1108:.\Generated_Source\PSoC4/CyLib.c ****     *
1109:.\Generated_Source\PSoC4/CyLib.c ****     * Parameters:
1110:.\Generated_Source\PSoC4/CyLib.c ****     *  counterNum: Valid range [0-2].  Number of the WDT counter.
1111:.\Generated_Source\PSoC4/CyLib.c ****     *
1112:.\Generated_Source\PSoC4/CyLib.c ****     * Return:
1113:.\Generated_Source\PSoC4/CyLib.c ****     *  Mode of the counter.  Same enumerated values as mode parameter used in
1114:.\Generated_Source\PSoC4/CyLib.c ****     *  CySysWdtWriteMode().
1115:.\Generated_Source\PSoC4/CyLib.c ****     *
1116:.\Generated_Source\PSoC4/CyLib.c ****     *******************************************************************************/
1117:.\Generated_Source\PSoC4/CyLib.c ****     uint32 CySysWdtReadMode(uint32 counterNum)
1118:.\Generated_Source\PSoC4/CyLib.c ****     {
 1021              		.loc 1 1118 0
 1022              		.cfi_startproc
 1023 0000 80B5     		push	{r7, lr}
 1024              		.cfi_def_cfa_offset 8
 1025              		.cfi_offset 7, -8
 1026              		.cfi_offset 14, -4
 1027 0002 82B0     		sub	sp, sp, #8
 1028              		.cfi_def_cfa_offset 16
 1029 0004 00AF     		add	r7, sp, #0
 1030              		.cfi_def_cfa_register 7
 1031 0006 7860     		str	r0, [r7, #4]
1119:.\Generated_Source\PSoC4/CyLib.c ****         return ((CY_SYS_WDT_CONFIG_REG >> (counterNum * CY_SYS_WDT_CNT_SHIFT)) & CY_SYS_WDT_MODE_MA
 1032              		.loc 1 1119 0
 1033 0008 054B     		ldr	r3, .L64
 1034 000a 1A68     		ldr	r2, [r3]
 1035 000c 7B68     		ldr	r3, [r7, #4]
 1036 000e DB00     		lsl	r3, r3, #3
 1037 0010 DA40     		lsr	r2, r2, r3
 1038 0012 0323     		mov	r3, #3
 1039 0014 1340     		and	r3, r2
ARM GAS  C:\DOCUME~1\Owner\LOCALS~1\Temp\cc3gLjSb.s 			page 39


1120:.\Generated_Source\PSoC4/CyLib.c ****     }
 1040              		.loc 1 1120 0
 1041 0016 181C     		mov	r0, r3
 1042 0018 BD46     		mov	sp, r7
 1043 001a 02B0     		add	sp, sp, #8
 1044              		@ sp needed
 1045 001c 80BD     		pop	{r7, pc}
 1046              	.L65:
 1047 001e C046     		.align	2
 1048              	.L64:
 1049 0020 0C020B40 		.word	1074463244
 1050              		.cfi_endproc
 1051              	.LFE13:
 1052              		.size	CySysWdtReadMode, .-CySysWdtReadMode
 1053              		.section	.text.CySysWdtWriteClearOnMatch,"ax",%progbits
 1054              		.align	2
 1055              		.global	CySysWdtWriteClearOnMatch
 1056              		.code	16
 1057              		.thumb_func
 1058              		.type	CySysWdtWriteClearOnMatch, %function
 1059              	CySysWdtWriteClearOnMatch:
 1060              	.LFB14:
1121:.\Generated_Source\PSoC4/CyLib.c **** 
1122:.\Generated_Source\PSoC4/CyLib.c **** 
1123:.\Generated_Source\PSoC4/CyLib.c ****     /*******************************************************************************
1124:.\Generated_Source\PSoC4/CyLib.c ****     * Function Name: CySysWdtWriteClearOnMatch
1125:.\Generated_Source\PSoC4/CyLib.c ****     ********************************************************************************
1126:.\Generated_Source\PSoC4/CyLib.c ****     *
1127:.\Generated_Source\PSoC4/CyLib.c ****     * Summary:
1128:.\Generated_Source\PSoC4/CyLib.c ****     *  Configures the WDT counter clear on a match setting.  If configured to clear
1129:.\Generated_Source\PSoC4/CyLib.c ****     *  on match, the counter will count from 0 to the MatchValue giving it a
1130:.\Generated_Source\PSoC4/CyLib.c ****     *  period of (MatchValue + 1).
1131:.\Generated_Source\PSoC4/CyLib.c ****     *
1132:.\Generated_Source\PSoC4/CyLib.c ****     * Parameters:
1133:.\Generated_Source\PSoC4/CyLib.c ****     *  counterNum:
1134:.\Generated_Source\PSoC4/CyLib.c ****     *   Valid range [0-1].  Number of the WDT counter.  Match values are not
1135:.\Generated_Source\PSoC4/CyLib.c ****     *   supported by counter 2.
1136:.\Generated_Source\PSoC4/CyLib.c ****     *
1137:.\Generated_Source\PSoC4/CyLib.c ****     * enable:
1138:.\Generated_Source\PSoC4/CyLib.c ****     *   0 to disable, 1 to enable
1139:.\Generated_Source\PSoC4/CyLib.c ****     *
1140:.\Generated_Source\PSoC4/CyLib.c ****     * Return:
1141:.\Generated_Source\PSoC4/CyLib.c ****     *   None
1142:.\Generated_Source\PSoC4/CyLib.c ****     *
1143:.\Generated_Source\PSoC4/CyLib.c ****     * Side Effects:
1144:.\Generated_Source\PSoC4/CyLib.c ****     *   WDT counter counterNum should be disabled. Otherwise this function call will
1145:.\Generated_Source\PSoC4/CyLib.c ****     *   have no effect. If the specified counter is enabled, call CySysWdtDisable()
1146:.\Generated_Source\PSoC4/CyLib.c ****     *   function with the corresponding parameter to disable specified counter and
1147:.\Generated_Source\PSoC4/CyLib.c ****     *   wait for it to stop. This may take up to three LFCLK cycles.
1148:.\Generated_Source\PSoC4/CyLib.c ****     *
1149:.\Generated_Source\PSoC4/CyLib.c ****     *******************************************************************************/
1150:.\Generated_Source\PSoC4/CyLib.c ****     void CySysWdtWriteClearOnMatch(uint32 counterNum, uint32 enable)
1151:.\Generated_Source\PSoC4/CyLib.c ****     {
 1061              		.loc 1 1151 0
 1062              		.cfi_startproc
 1063 0000 80B5     		push	{r7, lr}
 1064              		.cfi_def_cfa_offset 8
ARM GAS  C:\DOCUME~1\Owner\LOCALS~1\Temp\cc3gLjSb.s 			page 40


 1065              		.cfi_offset 7, -8
 1066              		.cfi_offset 14, -4
 1067 0002 84B0     		sub	sp, sp, #16
 1068              		.cfi_def_cfa_offset 24
 1069 0004 00AF     		add	r7, sp, #0
 1070              		.cfi_def_cfa_register 7
 1071 0006 7860     		str	r0, [r7, #4]
 1072 0008 3960     		str	r1, [r7]
1152:.\Generated_Source\PSoC4/CyLib.c ****         uint32 configRegValue;
1153:.\Generated_Source\PSoC4/CyLib.c **** 
1154:.\Generated_Source\PSoC4/CyLib.c ****         CYASSERT((counterNum == CY_SYS_WDT_COUNTER0) ||
 1073              		.loc 1 1154 0
 1074 000a 7B68     		ldr	r3, [r7, #4]
 1075 000c 002B     		cmp	r3, #0
 1076 000e 02D0     		beq	.L67
 1077              		.loc 1 1154 0 is_stmt 0 discriminator 2
 1078 0010 7B68     		ldr	r3, [r7, #4]
 1079 0012 012B     		cmp	r3, #1
 1080 0014 01D1     		bne	.L68
 1081              	.L67:
 1082              		.loc 1 1154 0 discriminator 1
 1083 0016 0123     		mov	r3, #1
 1084 0018 00E0     		b	.L69
 1085              	.L68:
 1086              		.loc 1 1154 0 discriminator 3
 1087 001a 0023     		mov	r3, #0
 1088              	.L69:
 1089              		.loc 1 1154 0 discriminator 4
 1090 001c 002B     		cmp	r3, #0
 1091 001e 02D1     		bne	.L70
 1092              		.loc 1 1154 0 discriminator 1
 1093 0020 0020     		mov	r0, #0
 1094 0022 FFF7FEFF 		bl	CyHalt
 1095              	.L70:
1155:.\Generated_Source\PSoC4/CyLib.c ****                  (counterNum == CY_SYS_WDT_COUNTER1));
1156:.\Generated_Source\PSoC4/CyLib.c **** 
1157:.\Generated_Source\PSoC4/CyLib.c ****         if(0u == CySysWdtReadEnabledStatus(counterNum))
 1096              		.loc 1 1157 0 is_stmt 1
 1097 0026 7B68     		ldr	r3, [r7, #4]
 1098 0028 181C     		mov	r0, r3
 1099 002a FFF7FEFF 		bl	CySysWdtReadEnabledStatus
 1100 002e 031C     		mov	r3, r0
 1101 0030 002B     		cmp	r3, #0
 1102 0032 18D1     		bne	.L66
1158:.\Generated_Source\PSoC4/CyLib.c ****         {
1159:.\Generated_Source\PSoC4/CyLib.c ****             configRegValue = CY_SYS_WDT_CONFIG_REG &
 1103              		.loc 1 1159 0
 1104 0034 0D4B     		ldr	r3, .L72
 1105 0036 1B68     		ldr	r3, [r3]
1160:.\Generated_Source\PSoC4/CyLib.c ****                 (uint32)~((uint32)((uint32)1u << ((counterNum * CY_SYS_WDT_CNT_SHIFT) + CY_SYS_WDT_
 1106              		.loc 1 1160 0
 1107 0038 7A68     		ldr	r2, [r7, #4]
 1108 003a D200     		lsl	r2, r2, #3
 1109 003c 0232     		add	r2, r2, #2
 1110 003e 0121     		mov	r1, #1
 1111 0040 081C     		mov	r0, r1
 1112 0042 9040     		lsl	r0, r0, r2
ARM GAS  C:\DOCUME~1\Owner\LOCALS~1\Temp\cc3gLjSb.s 			page 41


 1113 0044 021C     		mov	r2, r0
 1114 0046 D243     		mvn	r2, r2
1159:.\Generated_Source\PSoC4/CyLib.c ****             configRegValue = CY_SYS_WDT_CONFIG_REG &
 1115              		.loc 1 1159 0
 1116 0048 1340     		and	r3, r2
 1117 004a FB60     		str	r3, [r7, #12]
1161:.\Generated_Source\PSoC4/CyLib.c **** 
1162:.\Generated_Source\PSoC4/CyLib.c ****             configRegValue
1163:.\Generated_Source\PSoC4/CyLib.c ****                 |= (uint32)(enable << ((counterNum * CY_SYS_WDT_CNT_SHIFT) + CY_SYS_WDT_CNT_MATCH_C
 1118              		.loc 1 1163 0
 1119 004c 7B68     		ldr	r3, [r7, #4]
 1120 004e DB00     		lsl	r3, r3, #3
 1121 0050 0233     		add	r3, r3, #2
 1122 0052 3A68     		ldr	r2, [r7]
 1123 0054 111C     		mov	r1, r2
 1124 0056 9940     		lsl	r1, r1, r3
 1125 0058 0B1C     		mov	r3, r1
 1126 005a FA68     		ldr	r2, [r7, #12]
 1127 005c 1343     		orr	r3, r2
 1128 005e FB60     		str	r3, [r7, #12]
1164:.\Generated_Source\PSoC4/CyLib.c **** 
1165:.\Generated_Source\PSoC4/CyLib.c ****             CY_SYS_WDT_CONFIG_REG = configRegValue;
 1129              		.loc 1 1165 0
 1130 0060 024B     		ldr	r3, .L72
 1131 0062 FA68     		ldr	r2, [r7, #12]
 1132 0064 1A60     		str	r2, [r3]
 1133              	.L66:
1166:.\Generated_Source\PSoC4/CyLib.c ****         }
1167:.\Generated_Source\PSoC4/CyLib.c ****     }
 1134              		.loc 1 1167 0
 1135 0066 BD46     		mov	sp, r7
 1136 0068 04B0     		add	sp, sp, #16
 1137              		@ sp needed
 1138 006a 80BD     		pop	{r7, pc}
 1139              	.L73:
 1140              		.align	2
 1141              	.L72:
 1142 006c 0C020B40 		.word	1074463244
 1143              		.cfi_endproc
 1144              	.LFE14:
 1145              		.size	CySysWdtWriteClearOnMatch, .-CySysWdtWriteClearOnMatch
 1146              		.section	.text.CySysWdtReadClearOnMatch,"ax",%progbits
 1147              		.align	2
 1148              		.global	CySysWdtReadClearOnMatch
 1149              		.code	16
 1150              		.thumb_func
 1151              		.type	CySysWdtReadClearOnMatch, %function
 1152              	CySysWdtReadClearOnMatch:
 1153              	.LFB15:
1168:.\Generated_Source\PSoC4/CyLib.c **** 
1169:.\Generated_Source\PSoC4/CyLib.c **** 
1170:.\Generated_Source\PSoC4/CyLib.c ****     /*******************************************************************************
1171:.\Generated_Source\PSoC4/CyLib.c ****     * Function Name: CySysWdtReadClearOnMatch
1172:.\Generated_Source\PSoC4/CyLib.c ****     ********************************************************************************
1173:.\Generated_Source\PSoC4/CyLib.c ****     *
1174:.\Generated_Source\PSoC4/CyLib.c ****     * Summary:
1175:.\Generated_Source\PSoC4/CyLib.c ****     *  Reads the clear on match setting for the specified counter.
ARM GAS  C:\DOCUME~1\Owner\LOCALS~1\Temp\cc3gLjSb.s 			page 42


1176:.\Generated_Source\PSoC4/CyLib.c ****     *
1177:.\Generated_Source\PSoC4/CyLib.c ****     * Parameters:
1178:.\Generated_Source\PSoC4/CyLib.c ****     *   counterNum: Valid range [0-1].  Number of the WDT counter.  Match values are
1179:.\Generated_Source\PSoC4/CyLib.c ****     *               not supported by counter 2.
1180:.\Generated_Source\PSoC4/CyLib.c ****     *
1181:.\Generated_Source\PSoC4/CyLib.c ****     * Return:
1182:.\Generated_Source\PSoC4/CyLib.c ****     *   Clear on Match status: 1 if enabled, 0 if disabled
1183:.\Generated_Source\PSoC4/CyLib.c ****     *
1184:.\Generated_Source\PSoC4/CyLib.c ****     *******************************************************************************/
1185:.\Generated_Source\PSoC4/CyLib.c ****     uint32 CySysWdtReadClearOnMatch(uint32 counterNum)
1186:.\Generated_Source\PSoC4/CyLib.c ****     {
 1154              		.loc 1 1186 0
 1155              		.cfi_startproc
 1156 0000 80B5     		push	{r7, lr}
 1157              		.cfi_def_cfa_offset 8
 1158              		.cfi_offset 7, -8
 1159              		.cfi_offset 14, -4
 1160 0002 82B0     		sub	sp, sp, #8
 1161              		.cfi_def_cfa_offset 16
 1162 0004 00AF     		add	r7, sp, #0
 1163              		.cfi_def_cfa_register 7
 1164 0006 7860     		str	r0, [r7, #4]
1187:.\Generated_Source\PSoC4/CyLib.c ****         CYASSERT((counterNum == CY_SYS_WDT_COUNTER0) ||
 1165              		.loc 1 1187 0
 1166 0008 7B68     		ldr	r3, [r7, #4]
 1167 000a 002B     		cmp	r3, #0
 1168 000c 02D0     		beq	.L75
 1169              		.loc 1 1187 0 is_stmt 0 discriminator 2
 1170 000e 7B68     		ldr	r3, [r7, #4]
 1171 0010 012B     		cmp	r3, #1
 1172 0012 01D1     		bne	.L76
 1173              	.L75:
 1174              		.loc 1 1187 0 discriminator 1
 1175 0014 0123     		mov	r3, #1
 1176 0016 00E0     		b	.L77
 1177              	.L76:
 1178              		.loc 1 1187 0 discriminator 3
 1179 0018 0023     		mov	r3, #0
 1180              	.L77:
 1181              		.loc 1 1187 0 discriminator 4
 1182 001a 002B     		cmp	r3, #0
 1183 001c 02D1     		bne	.L78
 1184              		.loc 1 1187 0 discriminator 1
 1185 001e 0020     		mov	r0, #0
 1186 0020 FFF7FEFF 		bl	CyHalt
 1187              	.L78:
1188:.\Generated_Source\PSoC4/CyLib.c ****                  (counterNum == CY_SYS_WDT_COUNTER1));
1189:.\Generated_Source\PSoC4/CyLib.c **** 
1190:.\Generated_Source\PSoC4/CyLib.c ****         return (uint32)((CY_SYS_WDT_CONFIG_REG >>
 1188              		.loc 1 1190 0 is_stmt 1
 1189 0024 054B     		ldr	r3, .L80
 1190 0026 1A68     		ldr	r2, [r3]
1191:.\Generated_Source\PSoC4/CyLib.c ****                         ((counterNum * CY_SYS_WDT_CNT_SHIFT) + CY_SYS_WDT_CNT_MATCH_CLR_SHIFT)) & 0
 1191              		.loc 1 1191 0
 1192 0028 7B68     		ldr	r3, [r7, #4]
 1193 002a DB00     		lsl	r3, r3, #3
 1194 002c 0233     		add	r3, r3, #2
ARM GAS  C:\DOCUME~1\Owner\LOCALS~1\Temp\cc3gLjSb.s 			page 43


1190:.\Generated_Source\PSoC4/CyLib.c ****         return (uint32)((CY_SYS_WDT_CONFIG_REG >>
 1195              		.loc 1 1190 0
 1196 002e DA40     		lsr	r2, r2, r3
 1197 0030 0123     		mov	r3, #1
 1198 0032 1340     		and	r3, r2
1192:.\Generated_Source\PSoC4/CyLib.c ****     }
 1199              		.loc 1 1192 0
 1200 0034 181C     		mov	r0, r3
 1201 0036 BD46     		mov	sp, r7
 1202 0038 02B0     		add	sp, sp, #8
 1203              		@ sp needed
 1204 003a 80BD     		pop	{r7, pc}
 1205              	.L81:
 1206              		.align	2
 1207              	.L80:
 1208 003c 0C020B40 		.word	1074463244
 1209              		.cfi_endproc
 1210              	.LFE15:
 1211              		.size	CySysWdtReadClearOnMatch, .-CySysWdtReadClearOnMatch
 1212              		.section	.text.CySysWdtEnable,"ax",%progbits
 1213              		.align	2
 1214              		.global	CySysWdtEnable
 1215              		.code	16
 1216              		.thumb_func
 1217              		.type	CySysWdtEnable, %function
 1218              	CySysWdtEnable:
 1219              	.LFB16:
1193:.\Generated_Source\PSoC4/CyLib.c **** 
1194:.\Generated_Source\PSoC4/CyLib.c **** 
1195:.\Generated_Source\PSoC4/CyLib.c ****     /*******************************************************************************
1196:.\Generated_Source\PSoC4/CyLib.c ****     * Function Name: CySysWdtEnable
1197:.\Generated_Source\PSoC4/CyLib.c ****     ********************************************************************************
1198:.\Generated_Source\PSoC4/CyLib.c ****     *
1199:.\Generated_Source\PSoC4/CyLib.c ****     * Summary:
1200:.\Generated_Source\PSoC4/CyLib.c ****     *  Enables the specified WDT counters.  All the counters specified in the mask are
1201:.\Generated_Source\PSoC4/CyLib.c ****     *  enabled.
1202:.\Generated_Source\PSoC4/CyLib.c ****     *
1203:.\Generated_Source\PSoC4/CyLib.c ****     * Parameters:
1204:.\Generated_Source\PSoC4/CyLib.c ****     *  counterMask: Mask of all counters to enable
1205:.\Generated_Source\PSoC4/CyLib.c ****     *       Define                       Counter
1206:.\Generated_Source\PSoC4/CyLib.c ****     *      CY_SYS_WDT_COUNTER0_MASK      0
1207:.\Generated_Source\PSoC4/CyLib.c ****     *      CY_SYS_WDT_COUNTER1_MASK      1
1208:.\Generated_Source\PSoC4/CyLib.c ****     *      CY_SYS_WDT_COUNTER2_MASK      2
1209:.\Generated_Source\PSoC4/CyLib.c ****     *
1210:.\Generated_Source\PSoC4/CyLib.c ****     * Return:
1211:.\Generated_Source\PSoC4/CyLib.c ****     *  None
1212:.\Generated_Source\PSoC4/CyLib.c ****     *
1213:.\Generated_Source\PSoC4/CyLib.c ****     * Side Effects:
1214:.\Generated_Source\PSoC4/CyLib.c ****     *  Enabling or disabling a WDT requires 3 LFCLK cycles to come into effect.
1215:.\Generated_Source\PSoC4/CyLib.c ****     *  Therefore, the WDT enable state must not be changed more than once in
1216:.\Generated_Source\PSoC4/CyLib.c ****     *  that period.
1217:.\Generated_Source\PSoC4/CyLib.c ****     *
1218:.\Generated_Source\PSoC4/CyLib.c ****     *  After WDT is enabled, it is illegal to write WDT configuration (WDT_CONFIG)
1219:.\Generated_Source\PSoC4/CyLib.c ****     *  and control (WDT_CONTROL) registers. That means that all WDT functions that
1220:.\Generated_Source\PSoC4/CyLib.c ****     *  contain 'write' in the name (with the exception of CySysWdtWriteMatch()
1221:.\Generated_Source\PSoC4/CyLib.c ****     *  function) are illegal to call once WDT enabled.
1222:.\Generated_Source\PSoC4/CyLib.c ****     *
ARM GAS  C:\DOCUME~1\Owner\LOCALS~1\Temp\cc3gLjSb.s 			page 44


1223:.\Generated_Source\PSoC4/CyLib.c ****     *  PSoC 4100 / PSoC 4200:
1224:.\Generated_Source\PSoC4/CyLib.c ****     *  This function enables the ILO.
1225:.\Generated_Source\PSoC4/CyLib.c ****     *
1226:.\Generated_Source\PSoC4/CyLib.c ****     *  PSoC 4100-BL / PSoC 4200-BL:
1227:.\Generated_Source\PSoC4/CyLib.c ****     *  The LFLCK should be configured before calling this function. The desired
1228:.\Generated_Source\PSoC4/CyLib.c ****     *  source should be enabled and configured to be the source for the LFCLK.
1229:.\Generated_Source\PSoC4/CyLib.c ****     *
1230:.\Generated_Source\PSoC4/CyLib.c ****     *******************************************************************************/
1231:.\Generated_Source\PSoC4/CyLib.c ****     void CySysWdtEnable(uint32 counterMask)
1232:.\Generated_Source\PSoC4/CyLib.c ****     {
 1220              		.loc 1 1232 0
 1221              		.cfi_startproc
 1222 0000 80B5     		push	{r7, lr}
 1223              		.cfi_def_cfa_offset 8
 1224              		.cfi_offset 7, -8
 1225              		.cfi_offset 14, -4
 1226 0002 82B0     		sub	sp, sp, #8
 1227              		.cfi_def_cfa_offset 16
 1228 0004 00AF     		add	r7, sp, #0
 1229              		.cfi_def_cfa_register 7
 1230 0006 7860     		str	r0, [r7, #4]
1233:.\Generated_Source\PSoC4/CyLib.c ****         #if (!CY_IP_WCO)
1234:.\Generated_Source\PSoC4/CyLib.c ****             CySysClkIloStart();
 1231              		.loc 1 1234 0
 1232 0008 FFF7FEFF 		bl	CySysClkIloStart
1235:.\Generated_Source\PSoC4/CyLib.c ****         #endif /* (!CY_IP_WCO) */
1236:.\Generated_Source\PSoC4/CyLib.c **** 
1237:.\Generated_Source\PSoC4/CyLib.c ****         CY_SYS_WDT_CONTROL_REG |= counterMask;
 1233              		.loc 1 1237 0
 1234 000c 154B     		ldr	r3, .L89
 1235 000e 154A     		ldr	r2, .L89
 1236 0010 1168     		ldr	r1, [r2]
 1237 0012 7A68     		ldr	r2, [r7, #4]
 1238 0014 0A43     		orr	r2, r1
 1239 0016 1A60     		str	r2, [r3]
1238:.\Generated_Source\PSoC4/CyLib.c **** 
1239:.\Generated_Source\PSoC4/CyLib.c ****         if(0u != (counterMask & CY_SYS_WDT_COUNTER0_MASK))
 1240              		.loc 1 1239 0
 1241 0018 7A68     		ldr	r2, [r7, #4]
 1242 001a 0123     		mov	r3, #1
 1243 001c 1340     		and	r3, r2
 1244 001e 06D0     		beq	.L83
1240:.\Generated_Source\PSoC4/CyLib.c ****         {
1241:.\Generated_Source\PSoC4/CyLib.c ****             while (0u == CySysWdtReadEnabledStatus(CY_SYS_WDT_COUNTER0))
 1245              		.loc 1 1241 0
 1246 0020 C046     		mov	r8, r8
 1247              	.L84:
 1248              		.loc 1 1241 0 is_stmt 0 discriminator 1
 1249 0022 0020     		mov	r0, #0
 1250 0024 FFF7FEFF 		bl	CySysWdtReadEnabledStatus
 1251 0028 031C     		mov	r3, r0
 1252 002a 002B     		cmp	r3, #0
 1253 002c F9D0     		beq	.L84
 1254              	.L83:
1242:.\Generated_Source\PSoC4/CyLib.c ****             {
1243:.\Generated_Source\PSoC4/CyLib.c ****                 /* Wait for the changes to come into effect */
1244:.\Generated_Source\PSoC4/CyLib.c ****             }
ARM GAS  C:\DOCUME~1\Owner\LOCALS~1\Temp\cc3gLjSb.s 			page 45


1245:.\Generated_Source\PSoC4/CyLib.c ****         }
1246:.\Generated_Source\PSoC4/CyLib.c **** 
1247:.\Generated_Source\PSoC4/CyLib.c ****         if(0u != (counterMask & CY_SYS_WDT_COUNTER1_MASK))
 1255              		.loc 1 1247 0 is_stmt 1
 1256 002e 7A68     		ldr	r2, [r7, #4]
 1257 0030 8023     		mov	r3, #128
 1258 0032 5B00     		lsl	r3, r3, #1
 1259 0034 1340     		and	r3, r2
 1260 0036 06D0     		beq	.L85
1248:.\Generated_Source\PSoC4/CyLib.c ****         {
1249:.\Generated_Source\PSoC4/CyLib.c ****             while (0u == CySysWdtReadEnabledStatus(CY_SYS_WDT_COUNTER1))
 1261              		.loc 1 1249 0
 1262 0038 C046     		mov	r8, r8
 1263              	.L86:
 1264              		.loc 1 1249 0 is_stmt 0 discriminator 1
 1265 003a 0120     		mov	r0, #1
 1266 003c FFF7FEFF 		bl	CySysWdtReadEnabledStatus
 1267 0040 031C     		mov	r3, r0
 1268 0042 002B     		cmp	r3, #0
 1269 0044 F9D0     		beq	.L86
 1270              	.L85:
1250:.\Generated_Source\PSoC4/CyLib.c ****             {
1251:.\Generated_Source\PSoC4/CyLib.c ****                 /* Wait for the changes to come into effect */
1252:.\Generated_Source\PSoC4/CyLib.c ****             }
1253:.\Generated_Source\PSoC4/CyLib.c ****         }
1254:.\Generated_Source\PSoC4/CyLib.c **** 
1255:.\Generated_Source\PSoC4/CyLib.c ****         if(0u != (counterMask & CY_SYS_WDT_COUNTER2_MASK))
 1271              		.loc 1 1255 0 is_stmt 1
 1272 0046 7A68     		ldr	r2, [r7, #4]
 1273 0048 8023     		mov	r3, #128
 1274 004a 5B02     		lsl	r3, r3, #9
 1275 004c 1340     		and	r3, r2
 1276 004e 06D0     		beq	.L82
1256:.\Generated_Source\PSoC4/CyLib.c ****         {
1257:.\Generated_Source\PSoC4/CyLib.c ****             while (0u == CySysWdtReadEnabledStatus(CY_SYS_WDT_COUNTER2))
 1277              		.loc 1 1257 0
 1278 0050 C046     		mov	r8, r8
 1279              	.L88:
 1280              		.loc 1 1257 0 is_stmt 0 discriminator 1
 1281 0052 0220     		mov	r0, #2
 1282 0054 FFF7FEFF 		bl	CySysWdtReadEnabledStatus
 1283 0058 031C     		mov	r3, r0
 1284 005a 002B     		cmp	r3, #0
 1285 005c F9D0     		beq	.L88
 1286              	.L82:
1258:.\Generated_Source\PSoC4/CyLib.c ****             {
1259:.\Generated_Source\PSoC4/CyLib.c ****                 /* Wait for the changes to come into effect */
1260:.\Generated_Source\PSoC4/CyLib.c ****             }
1261:.\Generated_Source\PSoC4/CyLib.c ****         }
1262:.\Generated_Source\PSoC4/CyLib.c ****     }
 1287              		.loc 1 1262 0 is_stmt 1
 1288 005e BD46     		mov	sp, r7
 1289 0060 02B0     		add	sp, sp, #8
 1290              		@ sp needed
 1291 0062 80BD     		pop	{r7, pc}
 1292              	.L90:
 1293              		.align	2
ARM GAS  C:\DOCUME~1\Owner\LOCALS~1\Temp\cc3gLjSb.s 			page 46


 1294              	.L89:
 1295 0064 10020B40 		.word	1074463248
 1296              		.cfi_endproc
 1297              	.LFE16:
 1298              		.size	CySysWdtEnable, .-CySysWdtEnable
 1299              		.section	.text.CySysWdtDisable,"ax",%progbits
 1300              		.align	2
 1301              		.global	CySysWdtDisable
 1302              		.code	16
 1303              		.thumb_func
 1304              		.type	CySysWdtDisable, %function
 1305              	CySysWdtDisable:
 1306              	.LFB17:
1263:.\Generated_Source\PSoC4/CyLib.c **** 
1264:.\Generated_Source\PSoC4/CyLib.c **** 
1265:.\Generated_Source\PSoC4/CyLib.c ****     /*******************************************************************************
1266:.\Generated_Source\PSoC4/CyLib.c ****     * Function Name: CySysWdtDisable
1267:.\Generated_Source\PSoC4/CyLib.c ****     ********************************************************************************
1268:.\Generated_Source\PSoC4/CyLib.c ****     *
1269:.\Generated_Source\PSoC4/CyLib.c ****     * Summary:
1270:.\Generated_Source\PSoC4/CyLib.c ****     *  Disables the specified WDT counters. All the counters specified in the mask
1271:.\Generated_Source\PSoC4/CyLib.c ****     *  are disabled. The function waits for the changes to come into effect.
1272:.\Generated_Source\PSoC4/CyLib.c ****     *
1273:.\Generated_Source\PSoC4/CyLib.c ****     * Parameters:
1274:.\Generated_Source\PSoC4/CyLib.c ****     *  uint32 counterMask: Mask of all counters to disable
1275:.\Generated_Source\PSoC4/CyLib.c ****     *    Define                       Counter
1276:.\Generated_Source\PSoC4/CyLib.c ****     *   CY_SYS_WDT_COUNTER0_MASK      0
1277:.\Generated_Source\PSoC4/CyLib.c ****     *   CY_SYS_WDT_COUNTER1_MASK      1
1278:.\Generated_Source\PSoC4/CyLib.c ****     *   CY_SYS_WDT_COUNTER2_MASK      2
1279:.\Generated_Source\PSoC4/CyLib.c ****     *
1280:.\Generated_Source\PSoC4/CyLib.c ****     * Return:
1281:.\Generated_Source\PSoC4/CyLib.c ****     *   None
1282:.\Generated_Source\PSoC4/CyLib.c ****     *
1283:.\Generated_Source\PSoC4/CyLib.c ****     *******************************************************************************/
1284:.\Generated_Source\PSoC4/CyLib.c ****     void CySysWdtDisable(uint32 counterMask)
1285:.\Generated_Source\PSoC4/CyLib.c ****     {
 1307              		.loc 1 1285 0
 1308              		.cfi_startproc
 1309 0000 80B5     		push	{r7, lr}
 1310              		.cfi_def_cfa_offset 8
 1311              		.cfi_offset 7, -8
 1312              		.cfi_offset 14, -4
 1313 0002 82B0     		sub	sp, sp, #8
 1314              		.cfi_def_cfa_offset 16
 1315 0004 00AF     		add	r7, sp, #0
 1316              		.cfi_def_cfa_register 7
 1317 0006 7860     		str	r0, [r7, #4]
1286:.\Generated_Source\PSoC4/CyLib.c ****         CY_SYS_WDT_CONTROL_REG &= ~counterMask;
 1318              		.loc 1 1286 0
 1319 0008 164B     		ldr	r3, .L98
 1320 000a 164A     		ldr	r2, .L98
 1321 000c 1268     		ldr	r2, [r2]
 1322 000e 7968     		ldr	r1, [r7, #4]
 1323 0010 C943     		mvn	r1, r1
 1324 0012 0A40     		and	r2, r1
 1325 0014 1A60     		str	r2, [r3]
1287:.\Generated_Source\PSoC4/CyLib.c **** 
ARM GAS  C:\DOCUME~1\Owner\LOCALS~1\Temp\cc3gLjSb.s 			page 47


1288:.\Generated_Source\PSoC4/CyLib.c ****         if(0u != (counterMask & CY_SYS_WDT_COUNTER0_MASK))
 1326              		.loc 1 1288 0
 1327 0016 7A68     		ldr	r2, [r7, #4]
 1328 0018 0123     		mov	r3, #1
 1329 001a 1340     		and	r3, r2
 1330 001c 06D0     		beq	.L92
1289:.\Generated_Source\PSoC4/CyLib.c ****         {
1290:.\Generated_Source\PSoC4/CyLib.c ****             while (0u != CySysWdtReadEnabledStatus(CY_SYS_WDT_COUNTER0))
 1331              		.loc 1 1290 0
 1332 001e C046     		mov	r8, r8
 1333              	.L93:
 1334              		.loc 1 1290 0 is_stmt 0 discriminator 1
 1335 0020 0020     		mov	r0, #0
 1336 0022 FFF7FEFF 		bl	CySysWdtReadEnabledStatus
 1337 0026 031C     		mov	r3, r0
 1338 0028 002B     		cmp	r3, #0
 1339 002a F9D1     		bne	.L93
 1340              	.L92:
1291:.\Generated_Source\PSoC4/CyLib.c ****             {
1292:.\Generated_Source\PSoC4/CyLib.c ****                 /* Wait for the changes to come into effect */
1293:.\Generated_Source\PSoC4/CyLib.c ****             }
1294:.\Generated_Source\PSoC4/CyLib.c ****         }
1295:.\Generated_Source\PSoC4/CyLib.c **** 
1296:.\Generated_Source\PSoC4/CyLib.c ****         if(0u != (counterMask & CY_SYS_WDT_COUNTER1_MASK))
 1341              		.loc 1 1296 0 is_stmt 1
 1342 002c 7A68     		ldr	r2, [r7, #4]
 1343 002e 8023     		mov	r3, #128
 1344 0030 5B00     		lsl	r3, r3, #1
 1345 0032 1340     		and	r3, r2
 1346 0034 06D0     		beq	.L94
1297:.\Generated_Source\PSoC4/CyLib.c ****         {
1298:.\Generated_Source\PSoC4/CyLib.c ****             while (0u != CySysWdtReadEnabledStatus(CY_SYS_WDT_COUNTER1))
 1347              		.loc 1 1298 0
 1348 0036 C046     		mov	r8, r8
 1349              	.L95:
 1350              		.loc 1 1298 0 is_stmt 0 discriminator 1
 1351 0038 0120     		mov	r0, #1
 1352 003a FFF7FEFF 		bl	CySysWdtReadEnabledStatus
 1353 003e 031C     		mov	r3, r0
 1354 0040 002B     		cmp	r3, #0
 1355 0042 F9D1     		bne	.L95
 1356              	.L94:
1299:.\Generated_Source\PSoC4/CyLib.c ****             {
1300:.\Generated_Source\PSoC4/CyLib.c ****                 /* Wait for the changes to come into effect */
1301:.\Generated_Source\PSoC4/CyLib.c ****             }
1302:.\Generated_Source\PSoC4/CyLib.c ****         }
1303:.\Generated_Source\PSoC4/CyLib.c **** 
1304:.\Generated_Source\PSoC4/CyLib.c ****         if(0u != (counterMask & CY_SYS_WDT_COUNTER2_MASK))
 1357              		.loc 1 1304 0 is_stmt 1
 1358 0044 7A68     		ldr	r2, [r7, #4]
 1359 0046 8023     		mov	r3, #128
 1360 0048 5B02     		lsl	r3, r3, #9
 1361 004a 1340     		and	r3, r2
 1362 004c 06D0     		beq	.L91
1305:.\Generated_Source\PSoC4/CyLib.c ****         {
1306:.\Generated_Source\PSoC4/CyLib.c ****             while (0u != CySysWdtReadEnabledStatus(CY_SYS_WDT_COUNTER2))
 1363              		.loc 1 1306 0
ARM GAS  C:\DOCUME~1\Owner\LOCALS~1\Temp\cc3gLjSb.s 			page 48


 1364 004e C046     		mov	r8, r8
 1365              	.L97:
 1366              		.loc 1 1306 0 is_stmt 0 discriminator 1
 1367 0050 0220     		mov	r0, #2
 1368 0052 FFF7FEFF 		bl	CySysWdtReadEnabledStatus
 1369 0056 031C     		mov	r3, r0
 1370 0058 002B     		cmp	r3, #0
 1371 005a F9D1     		bne	.L97
 1372              	.L91:
1307:.\Generated_Source\PSoC4/CyLib.c ****             {
1308:.\Generated_Source\PSoC4/CyLib.c ****                 /* Wait for the changes to come into effect */
1309:.\Generated_Source\PSoC4/CyLib.c ****             }
1310:.\Generated_Source\PSoC4/CyLib.c ****         }
1311:.\Generated_Source\PSoC4/CyLib.c ****     }
 1373              		.loc 1 1311 0 is_stmt 1
 1374 005c BD46     		mov	sp, r7
 1375 005e 02B0     		add	sp, sp, #8
 1376              		@ sp needed
 1377 0060 80BD     		pop	{r7, pc}
 1378              	.L99:
 1379 0062 C046     		.align	2
 1380              	.L98:
 1381 0064 10020B40 		.word	1074463248
 1382              		.cfi_endproc
 1383              	.LFE17:
 1384              		.size	CySysWdtDisable, .-CySysWdtDisable
 1385              		.section	.text.CySysWdtWriteCascade,"ax",%progbits
 1386              		.align	2
 1387              		.global	CySysWdtWriteCascade
 1388              		.code	16
 1389              		.thumb_func
 1390              		.type	CySysWdtWriteCascade, %function
 1391              	CySysWdtWriteCascade:
 1392              	.LFB18:
1312:.\Generated_Source\PSoC4/CyLib.c **** 
1313:.\Generated_Source\PSoC4/CyLib.c **** 
1314:.\Generated_Source\PSoC4/CyLib.c ****     /*******************************************************************************
1315:.\Generated_Source\PSoC4/CyLib.c ****     * Function Name: CySysWdtWriteCascade
1316:.\Generated_Source\PSoC4/CyLib.c ****     ********************************************************************************
1317:.\Generated_Source\PSoC4/CyLib.c ****     *
1318:.\Generated_Source\PSoC4/CyLib.c ****     * Summary:
1319:.\Generated_Source\PSoC4/CyLib.c ****     *   Writes the two WDT cascade values based on the combination of mask values
1320:.\Generated_Source\PSoC4/CyLib.c ****     *   specified.
1321:.\Generated_Source\PSoC4/CyLib.c ****     *
1322:.\Generated_Source\PSoC4/CyLib.c ****     * Parameters:
1323:.\Generated_Source\PSoC4/CyLib.c ****     *   cascadeMask: Mask value used to set or clear the cascade values.
1324:.\Generated_Source\PSoC4/CyLib.c ****     *   Define                     Cascade
1325:.\Generated_Source\PSoC4/CyLib.c ****     *   CY_SYS_WDT_CASCADE_NONE    Neither
1326:.\Generated_Source\PSoC4/CyLib.c ****     *   CY_SYS_WDT_CASCADE_01      Cascade 01
1327:.\Generated_Source\PSoC4/CyLib.c ****     *   CY_SYS_WDT_CASCADE_12      Cascade 12
1328:.\Generated_Source\PSoC4/CyLib.c ****     *
1329:.\Generated_Source\PSoC4/CyLib.c ****     *   To set both cascade modes, two defines should be ORed:
1330:.\Generated_Source\PSoC4/CyLib.c ****     *   (CY_SYS_WDT_CASCADE_01 | CY_SYS_WDT_CASCADE_12)
1331:.\Generated_Source\PSoC4/CyLib.c ****     *
1332:.\Generated_Source\PSoC4/CyLib.c ****     * Return:
1333:.\Generated_Source\PSoC4/CyLib.c ****     *   None
1334:.\Generated_Source\PSoC4/CyLib.c ****     *
ARM GAS  C:\DOCUME~1\Owner\LOCALS~1\Temp\cc3gLjSb.s 			page 49


1335:.\Generated_Source\PSoC4/CyLib.c ****     * Side effects:
1336:.\Generated_Source\PSoC4/CyLib.c ****     *   If only one cascade mask is specified, the second cascade is disabled.
1337:.\Generated_Source\PSoC4/CyLib.c ****     *   To set both cascade modes two defines should be ORed:
1338:.\Generated_Source\PSoC4/CyLib.c ****     *    (CY_SYS_WDT_CASCADE_01 | CY_SYS_WDT_CASCADE_12).
1339:.\Generated_Source\PSoC4/CyLib.c ****     *
1340:.\Generated_Source\PSoC4/CyLib.c ****     *   WDT counters that are part of the specified cascade, should be disabled.
1341:.\Generated_Source\PSoC4/CyLib.c ****     *   Otherwise this function call will have no effect. If the specified
1342:.\Generated_Source\PSoC4/CyLib.c ****     *   counter is enabled, call CySysWdtDisable() function with the corresponding
1343:.\Generated_Source\PSoC4/CyLib.c ****     *   parameter to disable specified counter and wait for it to stop. This may
1344:.\Generated_Source\PSoC4/CyLib.c ****     *   take up to 3 LFCLK cycles.
1345:.\Generated_Source\PSoC4/CyLib.c ****     *
1346:.\Generated_Source\PSoC4/CyLib.c ****     *******************************************************************************/
1347:.\Generated_Source\PSoC4/CyLib.c ****     void CySysWdtWriteCascade(uint32 cascadeMask)
1348:.\Generated_Source\PSoC4/CyLib.c ****     {
 1393              		.loc 1 1348 0
 1394              		.cfi_startproc
 1395 0000 90B5     		push	{r4, r7, lr}
 1396              		.cfi_def_cfa_offset 12
 1397              		.cfi_offset 4, -12
 1398              		.cfi_offset 7, -8
 1399              		.cfi_offset 14, -4
 1400 0002 85B0     		sub	sp, sp, #20
 1401              		.cfi_def_cfa_offset 32
 1402 0004 00AF     		add	r7, sp, #0
 1403              		.cfi_def_cfa_register 7
 1404 0006 7860     		str	r0, [r7, #4]
1349:.\Generated_Source\PSoC4/CyLib.c ****         uint32 configRegValue;
1350:.\Generated_Source\PSoC4/CyLib.c ****         uint32 countersEnableStatus;
1351:.\Generated_Source\PSoC4/CyLib.c **** 
1352:.\Generated_Source\PSoC4/CyLib.c ****         countersEnableStatus = CySysWdtReadEnabledStatus(CY_SYS_WDT_COUNTER0) |
 1405              		.loc 1 1352 0
 1406 0008 0020     		mov	r0, #0
 1407 000a FFF7FEFF 		bl	CySysWdtReadEnabledStatus
 1408 000e 041C     		mov	r4, r0
1353:.\Generated_Source\PSoC4/CyLib.c ****                             CySysWdtReadEnabledStatus(CY_SYS_WDT_COUNTER1) |
 1409              		.loc 1 1353 0
 1410 0010 0120     		mov	r0, #1
 1411 0012 FFF7FEFF 		bl	CySysWdtReadEnabledStatus
 1412 0016 031C     		mov	r3, r0
1352:.\Generated_Source\PSoC4/CyLib.c ****         countersEnableStatus = CySysWdtReadEnabledStatus(CY_SYS_WDT_COUNTER0) |
 1413              		.loc 1 1352 0
 1414 0018 1C43     		orr	r4, r3
1354:.\Generated_Source\PSoC4/CyLib.c ****                             CySysWdtReadEnabledStatus(CY_SYS_WDT_COUNTER2);
 1415              		.loc 1 1354 0
 1416 001a 0220     		mov	r0, #2
 1417 001c FFF7FEFF 		bl	CySysWdtReadEnabledStatus
 1418 0020 031C     		mov	r3, r0
1352:.\Generated_Source\PSoC4/CyLib.c ****         countersEnableStatus = CySysWdtReadEnabledStatus(CY_SYS_WDT_COUNTER0) |
 1419              		.loc 1 1352 0
 1420 0022 2343     		orr	r3, r4
 1421 0024 FB60     		str	r3, [r7, #12]
1355:.\Generated_Source\PSoC4/CyLib.c **** 
1356:.\Generated_Source\PSoC4/CyLib.c ****         if (0u == countersEnableStatus)
 1422              		.loc 1 1356 0
 1423 0026 FB68     		ldr	r3, [r7, #12]
 1424 0028 002B     		cmp	r3, #0
 1425 002a 0DD1     		bne	.L100
ARM GAS  C:\DOCUME~1\Owner\LOCALS~1\Temp\cc3gLjSb.s 			page 50


1357:.\Generated_Source\PSoC4/CyLib.c ****         {
1358:.\Generated_Source\PSoC4/CyLib.c ****             configRegValue = CY_SYS_WDT_CONFIG_REG;
 1426              		.loc 1 1358 0
 1427 002c 084B     		ldr	r3, .L102
 1428 002e 1B68     		ldr	r3, [r3]
 1429 0030 BB60     		str	r3, [r7, #8]
1359:.\Generated_Source\PSoC4/CyLib.c ****             configRegValue &= ((uint32)(~(CY_SYS_WDT_CASCADE_01|CY_SYS_WDT_CASCADE_12)));
 1430              		.loc 1 1359 0
 1431 0032 BA68     		ldr	r2, [r7, #8]
 1432 0034 074B     		ldr	r3, .L102+4
 1433 0036 1340     		and	r3, r2
 1434 0038 BB60     		str	r3, [r7, #8]
1360:.\Generated_Source\PSoC4/CyLib.c ****             configRegValue |= cascadeMask;
 1435              		.loc 1 1360 0
 1436 003a BA68     		ldr	r2, [r7, #8]
 1437 003c 7B68     		ldr	r3, [r7, #4]
 1438 003e 1343     		orr	r3, r2
 1439 0040 BB60     		str	r3, [r7, #8]
1361:.\Generated_Source\PSoC4/CyLib.c ****             CY_SYS_WDT_CONFIG_REG = configRegValue;
 1440              		.loc 1 1361 0
 1441 0042 034B     		ldr	r3, .L102
 1442 0044 BA68     		ldr	r2, [r7, #8]
 1443 0046 1A60     		str	r2, [r3]
 1444              	.L100:
1362:.\Generated_Source\PSoC4/CyLib.c ****         }
1363:.\Generated_Source\PSoC4/CyLib.c ****     }
 1445              		.loc 1 1363 0
 1446 0048 BD46     		mov	sp, r7
 1447 004a 05B0     		add	sp, sp, #20
 1448              		@ sp needed
 1449 004c 90BD     		pop	{r4, r7, pc}
 1450              	.L103:
 1451 004e C046     		.align	2
 1452              	.L102:
 1453 0050 0C020B40 		.word	1074463244
 1454 0054 F7F7FFFF 		.word	-2057
 1455              		.cfi_endproc
 1456              	.LFE18:
 1457              		.size	CySysWdtWriteCascade, .-CySysWdtWriteCascade
 1458              		.section	.text.CySysWdtReadCascade,"ax",%progbits
 1459              		.align	2
 1460              		.global	CySysWdtReadCascade
 1461              		.code	16
 1462              		.thumb_func
 1463              		.type	CySysWdtReadCascade, %function
 1464              	CySysWdtReadCascade:
 1465              	.LFB19:
1364:.\Generated_Source\PSoC4/CyLib.c **** 
1365:.\Generated_Source\PSoC4/CyLib.c **** 
1366:.\Generated_Source\PSoC4/CyLib.c ****     /*******************************************************************************
1367:.\Generated_Source\PSoC4/CyLib.c ****     * Function Name: CySysWdtReadCascade
1368:.\Generated_Source\PSoC4/CyLib.c ****     ********************************************************************************
1369:.\Generated_Source\PSoC4/CyLib.c ****     *
1370:.\Generated_Source\PSoC4/CyLib.c ****     * Summary:
1371:.\Generated_Source\PSoC4/CyLib.c ****     *   Reads the two WDT cascade values returning a mask of the bits set.
1372:.\Generated_Source\PSoC4/CyLib.c ****     *
1373:.\Generated_Source\PSoC4/CyLib.c ****     * Parameters:
ARM GAS  C:\DOCUME~1\Owner\LOCALS~1\Temp\cc3gLjSb.s 			page 51


1374:.\Generated_Source\PSoC4/CyLib.c ****     *   None
1375:.\Generated_Source\PSoC4/CyLib.c ****     *
1376:.\Generated_Source\PSoC4/CyLib.c ****     * Return:
1377:.\Generated_Source\PSoC4/CyLib.c ****     *   Mask of cascade values set.
1378:.\Generated_Source\PSoC4/CyLib.c ****     *   Define                     Cascade
1379:.\Generated_Source\PSoC4/CyLib.c ****     *   CY_SYS_WDT_CASCADE_NONE    Neither
1380:.\Generated_Source\PSoC4/CyLib.c ****     *   CY_SYS_WDT_CASCADE_01      Cascade 01
1381:.\Generated_Source\PSoC4/CyLib.c ****     *   CY_SYS_WDT_CASCADE_12      Cascade 12
1382:.\Generated_Source\PSoC4/CyLib.c ****     *
1383:.\Generated_Source\PSoC4/CyLib.c ****     *******************************************************************************/
1384:.\Generated_Source\PSoC4/CyLib.c ****     uint32 CySysWdtReadCascade(void)
1385:.\Generated_Source\PSoC4/CyLib.c ****     {
 1466              		.loc 1 1385 0
 1467              		.cfi_startproc
 1468 0000 80B5     		push	{r7, lr}
 1469              		.cfi_def_cfa_offset 8
 1470              		.cfi_offset 7, -8
 1471              		.cfi_offset 14, -4
 1472 0002 00AF     		add	r7, sp, #0
 1473              		.cfi_def_cfa_register 7
1386:.\Generated_Source\PSoC4/CyLib.c ****         return (CY_SYS_WDT_CONFIG_REG & (CY_SYS_WDT_CASCADE_01 | CY_SYS_WDT_CASCADE_12));
 1474              		.loc 1 1386 0
 1475 0004 034B     		ldr	r3, .L106
 1476 0006 1A68     		ldr	r2, [r3]
 1477 0008 034B     		ldr	r3, .L106+4
 1478 000a 1340     		and	r3, r2
1387:.\Generated_Source\PSoC4/CyLib.c ****     }
 1479              		.loc 1 1387 0
 1480 000c 181C     		mov	r0, r3
 1481 000e BD46     		mov	sp, r7
 1482              		@ sp needed
 1483 0010 80BD     		pop	{r7, pc}
 1484              	.L107:
 1485 0012 C046     		.align	2
 1486              	.L106:
 1487 0014 0C020B40 		.word	1074463244
 1488 0018 08080000 		.word	2056
 1489              		.cfi_endproc
 1490              	.LFE19:
 1491              		.size	CySysWdtReadCascade, .-CySysWdtReadCascade
 1492              		.section	.text.CySysWdtWriteMatch,"ax",%progbits
 1493              		.align	2
 1494              		.global	CySysWdtWriteMatch
 1495              		.code	16
 1496              		.thumb_func
 1497              		.type	CySysWdtWriteMatch, %function
 1498              	CySysWdtWriteMatch:
 1499              	.LFB20:
1388:.\Generated_Source\PSoC4/CyLib.c **** 
1389:.\Generated_Source\PSoC4/CyLib.c **** 
1390:.\Generated_Source\PSoC4/CyLib.c ****     /*******************************************************************************
1391:.\Generated_Source\PSoC4/CyLib.c ****     * Function Name: CySysWdtWriteMatch
1392:.\Generated_Source\PSoC4/CyLib.c ****     ********************************************************************************
1393:.\Generated_Source\PSoC4/CyLib.c ****     *
1394:.\Generated_Source\PSoC4/CyLib.c ****     * Summary:
1395:.\Generated_Source\PSoC4/CyLib.c ****     *  Configures the WDT counter match comparison value.
1396:.\Generated_Source\PSoC4/CyLib.c ****     *
ARM GAS  C:\DOCUME~1\Owner\LOCALS~1\Temp\cc3gLjSb.s 			page 52


1397:.\Generated_Source\PSoC4/CyLib.c ****     * Parameters:
1398:.\Generated_Source\PSoC4/CyLib.c ****     *  counterNum:
1399:.\Generated_Source\PSoC4/CyLib.c ****     *   Valid range [0-1]. Number of the WDT counter. Match values are not
1400:.\Generated_Source\PSoC4/CyLib.c ****     *   supported by counter 2.
1401:.\Generated_Source\PSoC4/CyLib.c ****     *
1402:.\Generated_Source\PSoC4/CyLib.c ****     *  match:
1403:.\Generated_Source\PSoC4/CyLib.c ****     *   Valid range [0-65535]. Value to be used to match against the counter.
1404:.\Generated_Source\PSoC4/CyLib.c ****     *
1405:.\Generated_Source\PSoC4/CyLib.c ****     * Return:
1406:.\Generated_Source\PSoC4/CyLib.c ****     *   None
1407:.\Generated_Source\PSoC4/CyLib.c ****     *
1408:.\Generated_Source\PSoC4/CyLib.c ****     *******************************************************************************/
1409:.\Generated_Source\PSoC4/CyLib.c ****     void CySysWdtWriteMatch(uint32 counterNum, uint32 match)
1410:.\Generated_Source\PSoC4/CyLib.c ****     {
 1500              		.loc 1 1410 0
 1501              		.cfi_startproc
 1502 0000 80B5     		push	{r7, lr}
 1503              		.cfi_def_cfa_offset 8
 1504              		.cfi_offset 7, -8
 1505              		.cfi_offset 14, -4
 1506 0002 84B0     		sub	sp, sp, #16
 1507              		.cfi_def_cfa_offset 24
 1508 0004 00AF     		add	r7, sp, #0
 1509              		.cfi_def_cfa_register 7
 1510 0006 7860     		str	r0, [r7, #4]
 1511 0008 3960     		str	r1, [r7]
1411:.\Generated_Source\PSoC4/CyLib.c ****         uint32 regValue;
1412:.\Generated_Source\PSoC4/CyLib.c **** 
1413:.\Generated_Source\PSoC4/CyLib.c ****         CYASSERT((counterNum == CY_SYS_WDT_COUNTER0) ||
 1512              		.loc 1 1413 0
 1513 000a 7B68     		ldr	r3, [r7, #4]
 1514 000c 002B     		cmp	r3, #0
 1515 000e 02D0     		beq	.L109
 1516              		.loc 1 1413 0 is_stmt 0 discriminator 2
 1517 0010 7B68     		ldr	r3, [r7, #4]
 1518 0012 012B     		cmp	r3, #1
 1519 0014 01D1     		bne	.L110
 1520              	.L109:
 1521              		.loc 1 1413 0 discriminator 1
 1522 0016 0123     		mov	r3, #1
 1523 0018 00E0     		b	.L111
 1524              	.L110:
 1525              		.loc 1 1413 0 discriminator 3
 1526 001a 0023     		mov	r3, #0
 1527              	.L111:
 1528              		.loc 1 1413 0 discriminator 4
 1529 001c 002B     		cmp	r3, #0
 1530 001e 02D1     		bne	.L112
 1531              		.loc 1 1413 0 discriminator 1
 1532 0020 0020     		mov	r0, #0
 1533 0022 FFF7FEFF 		bl	CyHalt
 1534              	.L112:
1414:.\Generated_Source\PSoC4/CyLib.c ****                  (counterNum == CY_SYS_WDT_COUNTER1));
1415:.\Generated_Source\PSoC4/CyLib.c **** 
1416:.\Generated_Source\PSoC4/CyLib.c ****         /* Wait for the previous changes to come into effect */
1417:.\Generated_Source\PSoC4/CyLib.c ****         CyDelayUs(CY_SYS_WDT_3LFCLK_DELAY_US);
 1535              		.loc 1 1417 0 is_stmt 1
ARM GAS  C:\DOCUME~1\Owner\LOCALS~1\Temp\cc3gLjSb.s 			page 53


 1536 0026 C920     		mov	r0, #201
 1537 0028 FFF7FEFF 		bl	CyDelayUs
1418:.\Generated_Source\PSoC4/CyLib.c **** 
1419:.\Generated_Source\PSoC4/CyLib.c ****         regValue = CY_SYS_WDT_MATCH_REG;
 1538              		.loc 1 1419 0
 1539 002c 0D4B     		ldr	r3, .L113
 1540 002e 1B68     		ldr	r3, [r3]
 1541 0030 FB60     		str	r3, [r7, #12]
1420:.\Generated_Source\PSoC4/CyLib.c ****         regValue &= (uint32)~((uint32)(CY_SYS_WDT_LOWER_16BITS_MASK << (counterNum * CY_SYS_WDT_CNT
 1542              		.loc 1 1420 0
 1543 0032 7B68     		ldr	r3, [r7, #4]
 1544 0034 1B01     		lsl	r3, r3, #4
 1545 0036 0C4A     		ldr	r2, .L113+4
 1546 0038 111C     		mov	r1, r2
 1547 003a 9940     		lsl	r1, r1, r3
 1548 003c 0B1C     		mov	r3, r1
 1549 003e DA43     		mvn	r2, r3
 1550 0040 FB68     		ldr	r3, [r7, #12]
 1551 0042 1340     		and	r3, r2
 1552 0044 FB60     		str	r3, [r7, #12]
1421:.\Generated_Source\PSoC4/CyLib.c ****         CY_SYS_WDT_MATCH_REG = (regValue | (match << (counterNum * CY_SYS_WDT_CNT_MATCH_SHIFT)));
 1553              		.loc 1 1421 0
 1554 0046 074B     		ldr	r3, .L113
 1555 0048 7A68     		ldr	r2, [r7, #4]
 1556 004a 1201     		lsl	r2, r2, #4
 1557 004c 3968     		ldr	r1, [r7]
 1558 004e 9140     		lsl	r1, r1, r2
 1559 0050 FA68     		ldr	r2, [r7, #12]
 1560 0052 0A43     		orr	r2, r1
 1561 0054 1A60     		str	r2, [r3]
1422:.\Generated_Source\PSoC4/CyLib.c **** 
1423:.\Generated_Source\PSoC4/CyLib.c ****         /* Make sure the match synchronization started */
1424:.\Generated_Source\PSoC4/CyLib.c ****         CyDelayUs(CY_SYS_WDT_1LFCLK_DELAY_US);
 1562              		.loc 1 1424 0
 1563 0056 4320     		mov	r0, #67
 1564 0058 FFF7FEFF 		bl	CyDelayUs
1425:.\Generated_Source\PSoC4/CyLib.c ****     }
 1565              		.loc 1 1425 0
 1566 005c BD46     		mov	sp, r7
 1567 005e 04B0     		add	sp, sp, #16
 1568              		@ sp needed
 1569 0060 80BD     		pop	{r7, pc}
 1570              	.L114:
 1571 0062 C046     		.align	2
 1572              	.L113:
 1573 0064 08020B40 		.word	1074463240
 1574 0068 FFFF0000 		.word	65535
 1575              		.cfi_endproc
 1576              	.LFE20:
 1577              		.size	CySysWdtWriteMatch, .-CySysWdtWriteMatch
 1578              		.section	.text.CySysWdtWriteToggleBit,"ax",%progbits
 1579              		.align	2
 1580              		.global	CySysWdtWriteToggleBit
 1581              		.code	16
 1582              		.thumb_func
 1583              		.type	CySysWdtWriteToggleBit, %function
 1584              	CySysWdtWriteToggleBit:
ARM GAS  C:\DOCUME~1\Owner\LOCALS~1\Temp\cc3gLjSb.s 			page 54


 1585              	.LFB21:
1426:.\Generated_Source\PSoC4/CyLib.c **** 
1427:.\Generated_Source\PSoC4/CyLib.c **** 
1428:.\Generated_Source\PSoC4/CyLib.c ****     /*******************************************************************************
1429:.\Generated_Source\PSoC4/CyLib.c ****     * Function Name: CySysWdtWriteToggleBit
1430:.\Generated_Source\PSoC4/CyLib.c ****     ********************************************************************************
1431:.\Generated_Source\PSoC4/CyLib.c ****     *
1432:.\Generated_Source\PSoC4/CyLib.c ****     * Summary:
1433:.\Generated_Source\PSoC4/CyLib.c ****     *  Configures which bit in the WDT counter 2 to monitor for a toggle. When that
1434:.\Generated_Source\PSoC4/CyLib.c ****     *  bit toggles, an interrupt is generated if the mode for counter 2 has
1435:.\Generated_Source\PSoC4/CyLib.c ****     *  interrupts enabled.
1436:.\Generated_Source\PSoC4/CyLib.c ****     *
1437:.\Generated_Source\PSoC4/CyLib.c ****     * Parameters:
1438:.\Generated_Source\PSoC4/CyLib.c ****     *  bit:
1439:.\Generated_Source\PSoC4/CyLib.c ****     *   Valid range [0-31].  Counter 2 bit to monitor for a toggle.
1440:.\Generated_Source\PSoC4/CyLib.c ****     *
1441:.\Generated_Source\PSoC4/CyLib.c ****     * Return:
1442:.\Generated_Source\PSoC4/CyLib.c ****     *   None
1443:.\Generated_Source\PSoC4/CyLib.c ****     *
1444:.\Generated_Source\PSoC4/CyLib.c ****     * Side effects:
1445:.\Generated_Source\PSoC4/CyLib.c ****     *   WDT Counter 2 should be disabled. Otherwise this function call will have no
1446:.\Generated_Source\PSoC4/CyLib.c ****     *   effect.
1447:.\Generated_Source\PSoC4/CyLib.c ****     *
1448:.\Generated_Source\PSoC4/CyLib.c ****     *   If the specified counter is enabled, call CySysWdtDisable() function with
1449:.\Generated_Source\PSoC4/CyLib.c ****     *   the corresponding parameter to disable specified counter and wait for it to
1450:.\Generated_Source\PSoC4/CyLib.c ****     *   stop. This may take up to 3 LFCLK cycles.
1451:.\Generated_Source\PSoC4/CyLib.c ****     *
1452:.\Generated_Source\PSoC4/CyLib.c ****     *******************************************************************************/
1453:.\Generated_Source\PSoC4/CyLib.c ****     void CySysWdtWriteToggleBit(uint32 bits)
1454:.\Generated_Source\PSoC4/CyLib.c ****     {
 1586              		.loc 1 1454 0
 1587              		.cfi_startproc
 1588 0000 80B5     		push	{r7, lr}
 1589              		.cfi_def_cfa_offset 8
 1590              		.cfi_offset 7, -8
 1591              		.cfi_offset 14, -4
 1592 0002 84B0     		sub	sp, sp, #16
 1593              		.cfi_def_cfa_offset 24
 1594 0004 00AF     		add	r7, sp, #0
 1595              		.cfi_def_cfa_register 7
 1596 0006 7860     		str	r0, [r7, #4]
1455:.\Generated_Source\PSoC4/CyLib.c ****         uint32 configRegValue;
1456:.\Generated_Source\PSoC4/CyLib.c **** 
1457:.\Generated_Source\PSoC4/CyLib.c ****         if (0u == CySysWdtReadEnabledStatus(CY_SYS_WDT_COUNTER2))
 1597              		.loc 1 1457 0
 1598 0008 0220     		mov	r0, #2
 1599 000a FFF7FEFF 		bl	CySysWdtReadEnabledStatus
 1600 000e 031C     		mov	r3, r0
 1601 0010 002B     		cmp	r3, #0
 1602 0012 10D1     		bne	.L115
1458:.\Generated_Source\PSoC4/CyLib.c ****         {
1459:.\Generated_Source\PSoC4/CyLib.c ****             configRegValue = CY_SYS_WDT_CONFIG_REG;
 1603              		.loc 1 1459 0
 1604 0014 094B     		ldr	r3, .L117
 1605 0016 1B68     		ldr	r3, [r3]
 1606 0018 FB60     		str	r3, [r7, #12]
1460:.\Generated_Source\PSoC4/CyLib.c ****             configRegValue &= (uint32)(~((uint32)(CY_SYS_WDT_CONFIG_BITS2_MASK << CY_SYS_WDT_CONFIG
ARM GAS  C:\DOCUME~1\Owner\LOCALS~1\Temp\cc3gLjSb.s 			page 55


 1607              		.loc 1 1460 0
 1608 001a FA68     		ldr	r2, [r7, #12]
 1609 001c 084B     		ldr	r3, .L117+4
 1610 001e 1340     		and	r3, r2
 1611 0020 FB60     		str	r3, [r7, #12]
1461:.\Generated_Source\PSoC4/CyLib.c ****             configRegValue |= ((bits & CY_SYS_WDT_CONFIG_BITS2_MASK) << CY_SYS_WDT_CONFIG_BITS2_POS
 1612              		.loc 1 1461 0
 1613 0022 7A68     		ldr	r2, [r7, #4]
 1614 0024 1F23     		mov	r3, #31
 1615 0026 1340     		and	r3, r2
 1616 0028 1B06     		lsl	r3, r3, #24
 1617 002a FA68     		ldr	r2, [r7, #12]
 1618 002c 1343     		orr	r3, r2
 1619 002e FB60     		str	r3, [r7, #12]
1462:.\Generated_Source\PSoC4/CyLib.c ****             CY_SYS_WDT_CONFIG_REG = configRegValue;
 1620              		.loc 1 1462 0
 1621 0030 024B     		ldr	r3, .L117
 1622 0032 FA68     		ldr	r2, [r7, #12]
 1623 0034 1A60     		str	r2, [r3]
 1624              	.L115:
1463:.\Generated_Source\PSoC4/CyLib.c ****         }
1464:.\Generated_Source\PSoC4/CyLib.c ****     }
 1625              		.loc 1 1464 0
 1626 0036 BD46     		mov	sp, r7
 1627 0038 04B0     		add	sp, sp, #16
 1628              		@ sp needed
 1629 003a 80BD     		pop	{r7, pc}
 1630              	.L118:
 1631              		.align	2
 1632              	.L117:
 1633 003c 0C020B40 		.word	1074463244
 1634 0040 FFFFFFE0 		.word	-520093697
 1635              		.cfi_endproc
 1636              	.LFE21:
 1637              		.size	CySysWdtWriteToggleBit, .-CySysWdtWriteToggleBit
 1638              		.section	.text.CySysWdtReadToggleBit,"ax",%progbits
 1639              		.align	2
 1640              		.global	CySysWdtReadToggleBit
 1641              		.code	16
 1642              		.thumb_func
 1643              		.type	CySysWdtReadToggleBit, %function
 1644              	CySysWdtReadToggleBit:
 1645              	.LFB22:
1465:.\Generated_Source\PSoC4/CyLib.c **** 
1466:.\Generated_Source\PSoC4/CyLib.c **** 
1467:.\Generated_Source\PSoC4/CyLib.c ****     /*******************************************************************************
1468:.\Generated_Source\PSoC4/CyLib.c ****     * Function Name: CySysWdtReadToggleBit
1469:.\Generated_Source\PSoC4/CyLib.c ****     ********************************************************************************
1470:.\Generated_Source\PSoC4/CyLib.c ****     *
1471:.\Generated_Source\PSoC4/CyLib.c ****     * Summary:
1472:.\Generated_Source\PSoC4/CyLib.c ****     *  Reads which bit in the WDT counter 2 is monitored for a toggle.
1473:.\Generated_Source\PSoC4/CyLib.c ****     *
1474:.\Generated_Source\PSoC4/CyLib.c ****     * Parameters:
1475:.\Generated_Source\PSoC4/CyLib.c ****     *  None
1476:.\Generated_Source\PSoC4/CyLib.c ****     *
1477:.\Generated_Source\PSoC4/CyLib.c ****     * Return:
1478:.\Generated_Source\PSoC4/CyLib.c ****     *  The bit that is monitored (range of 0 to 31)
ARM GAS  C:\DOCUME~1\Owner\LOCALS~1\Temp\cc3gLjSb.s 			page 56


1479:.\Generated_Source\PSoC4/CyLib.c ****     *
1480:.\Generated_Source\PSoC4/CyLib.c ****     *******************************************************************************/
1481:.\Generated_Source\PSoC4/CyLib.c ****     uint32 CySysWdtReadToggleBit(void)
1482:.\Generated_Source\PSoC4/CyLib.c ****     {
 1646              		.loc 1 1482 0
 1647              		.cfi_startproc
 1648 0000 80B5     		push	{r7, lr}
 1649              		.cfi_def_cfa_offset 8
 1650              		.cfi_offset 7, -8
 1651              		.cfi_offset 14, -4
 1652 0002 00AF     		add	r7, sp, #0
 1653              		.cfi_def_cfa_register 7
1483:.\Generated_Source\PSoC4/CyLib.c ****         return ((CY_SYS_WDT_CONFIG_REG >> CY_SYS_WDT_CONFIG_BITS2_POS) & CY_SYS_WDT_CONFIG_BITS2_MA
 1654              		.loc 1 1483 0
 1655 0004 034B     		ldr	r3, .L121
 1656 0006 1B68     		ldr	r3, [r3]
 1657 0008 1A0E     		lsr	r2, r3, #24
 1658 000a 1F23     		mov	r3, #31
 1659 000c 1340     		and	r3, r2
1484:.\Generated_Source\PSoC4/CyLib.c ****     }
 1660              		.loc 1 1484 0
 1661 000e 181C     		mov	r0, r3
 1662 0010 BD46     		mov	sp, r7
 1663              		@ sp needed
 1664 0012 80BD     		pop	{r7, pc}
 1665              	.L122:
 1666              		.align	2
 1667              	.L121:
 1668 0014 0C020B40 		.word	1074463244
 1669              		.cfi_endproc
 1670              	.LFE22:
 1671              		.size	CySysWdtReadToggleBit, .-CySysWdtReadToggleBit
 1672              		.section	.text.CySysWdtReadMatch,"ax",%progbits
 1673              		.align	2
 1674              		.global	CySysWdtReadMatch
 1675              		.code	16
 1676              		.thumb_func
 1677              		.type	CySysWdtReadMatch, %function
 1678              	CySysWdtReadMatch:
 1679              	.LFB23:
1485:.\Generated_Source\PSoC4/CyLib.c **** 
1486:.\Generated_Source\PSoC4/CyLib.c **** 
1487:.\Generated_Source\PSoC4/CyLib.c ****     /*******************************************************************************
1488:.\Generated_Source\PSoC4/CyLib.c ****     * Function Name: CySysWdtReadMatch
1489:.\Generated_Source\PSoC4/CyLib.c ****     ********************************************************************************
1490:.\Generated_Source\PSoC4/CyLib.c ****     *
1491:.\Generated_Source\PSoC4/CyLib.c ****     * Summary:
1492:.\Generated_Source\PSoC4/CyLib.c ****     *  Reads the WDT counter match comparison value.
1493:.\Generated_Source\PSoC4/CyLib.c ****     *
1494:.\Generated_Source\PSoC4/CyLib.c ****     * Parameters:
1495:.\Generated_Source\PSoC4/CyLib.c ****     *  counterNum: Valid range [0-1].  Number of the WDT counter.  Match values
1496:.\Generated_Source\PSoC4/CyLib.c ****     *               are not supported by counter 2.
1497:.\Generated_Source\PSoC4/CyLib.c ****     *
1498:.\Generated_Source\PSoC4/CyLib.c ****     * Return:
1499:.\Generated_Source\PSoC4/CyLib.c ****     *  16-bit match value.
1500:.\Generated_Source\PSoC4/CyLib.c ****     *
1501:.\Generated_Source\PSoC4/CyLib.c ****     *******************************************************************************/
ARM GAS  C:\DOCUME~1\Owner\LOCALS~1\Temp\cc3gLjSb.s 			page 57


1502:.\Generated_Source\PSoC4/CyLib.c ****     uint32 CySysWdtReadMatch(uint32 counterNum)
1503:.\Generated_Source\PSoC4/CyLib.c ****     {
 1680              		.loc 1 1503 0
 1681              		.cfi_startproc
 1682 0000 80B5     		push	{r7, lr}
 1683              		.cfi_def_cfa_offset 8
 1684              		.cfi_offset 7, -8
 1685              		.cfi_offset 14, -4
 1686 0002 82B0     		sub	sp, sp, #8
 1687              		.cfi_def_cfa_offset 16
 1688 0004 00AF     		add	r7, sp, #0
 1689              		.cfi_def_cfa_register 7
 1690 0006 7860     		str	r0, [r7, #4]
1504:.\Generated_Source\PSoC4/CyLib.c ****         CYASSERT((counterNum == CY_SYS_WDT_COUNTER0) ||
 1691              		.loc 1 1504 0
 1692 0008 7B68     		ldr	r3, [r7, #4]
 1693 000a 002B     		cmp	r3, #0
 1694 000c 02D0     		beq	.L124
 1695              		.loc 1 1504 0 is_stmt 0 discriminator 2
 1696 000e 7B68     		ldr	r3, [r7, #4]
 1697 0010 012B     		cmp	r3, #1
 1698 0012 01D1     		bne	.L125
 1699              	.L124:
 1700              		.loc 1 1504 0 discriminator 1
 1701 0014 0123     		mov	r3, #1
 1702 0016 00E0     		b	.L126
 1703              	.L125:
 1704              		.loc 1 1504 0 discriminator 3
 1705 0018 0023     		mov	r3, #0
 1706              	.L126:
 1707              		.loc 1 1504 0 discriminator 4
 1708 001a 002B     		cmp	r3, #0
 1709 001c 02D1     		bne	.L127
 1710              		.loc 1 1504 0 discriminator 1
 1711 001e 0020     		mov	r0, #0
 1712 0020 FFF7FEFF 		bl	CyHalt
 1713              	.L127:
1505:.\Generated_Source\PSoC4/CyLib.c ****                  (counterNum == CY_SYS_WDT_COUNTER1));
1506:.\Generated_Source\PSoC4/CyLib.c **** 
1507:.\Generated_Source\PSoC4/CyLib.c ****         return ((uint32)(CY_SYS_WDT_MATCH_REG >> (counterNum * CY_SYS_WDT_CNT_MATCH_SHIFT)) & CY_SY
 1714              		.loc 1 1507 0 is_stmt 1
 1715 0024 064B     		ldr	r3, .L129
 1716 0026 1A68     		ldr	r2, [r3]
 1717 0028 7B68     		ldr	r3, [r7, #4]
 1718 002a 1B01     		lsl	r3, r3, #4
 1719 002c 111C     		mov	r1, r2
 1720 002e D940     		lsr	r1, r1, r3
 1721 0030 0B1C     		mov	r3, r1
 1722 0032 1B04     		lsl	r3, r3, #16
 1723 0034 1B0C     		lsr	r3, r3, #16
1508:.\Generated_Source\PSoC4/CyLib.c ****     }
 1724              		.loc 1 1508 0
 1725 0036 181C     		mov	r0, r3
 1726 0038 BD46     		mov	sp, r7
 1727 003a 02B0     		add	sp, sp, #8
 1728              		@ sp needed
 1729 003c 80BD     		pop	{r7, pc}
ARM GAS  C:\DOCUME~1\Owner\LOCALS~1\Temp\cc3gLjSb.s 			page 58


 1730              	.L130:
 1731 003e C046     		.align	2
 1732              	.L129:
 1733 0040 08020B40 		.word	1074463240
 1734              		.cfi_endproc
 1735              	.LFE23:
 1736              		.size	CySysWdtReadMatch, .-CySysWdtReadMatch
 1737              		.section	.text.CySysWdtReadCount,"ax",%progbits
 1738              		.align	2
 1739              		.global	CySysWdtReadCount
 1740              		.code	16
 1741              		.thumb_func
 1742              		.type	CySysWdtReadCount, %function
 1743              	CySysWdtReadCount:
 1744              	.LFB24:
1509:.\Generated_Source\PSoC4/CyLib.c **** 
1510:.\Generated_Source\PSoC4/CyLib.c **** 
1511:.\Generated_Source\PSoC4/CyLib.c ****     /*******************************************************************************
1512:.\Generated_Source\PSoC4/CyLib.c ****     * Function Name: CySysWdtReadCount
1513:.\Generated_Source\PSoC4/CyLib.c ****     ********************************************************************************
1514:.\Generated_Source\PSoC4/CyLib.c ****     *
1515:.\Generated_Source\PSoC4/CyLib.c ****     * Summary:
1516:.\Generated_Source\PSoC4/CyLib.c ****     *  Reads the current WDT counter value.
1517:.\Generated_Source\PSoC4/CyLib.c ****     *
1518:.\Generated_Source\PSoC4/CyLib.c ****     * Parameters:
1519:.\Generated_Source\PSoC4/CyLib.c ****     *  counterNum: Valid range [0-2].  Number of the WDT counter.
1520:.\Generated_Source\PSoC4/CyLib.c ****     *
1521:.\Generated_Source\PSoC4/CyLib.c ****     * Return:
1522:.\Generated_Source\PSoC4/CyLib.c ****     *  Live counter value.  Counter 0 and 1 are 16 bit counters and counter
1523:.\Generated_Source\PSoC4/CyLib.c ****     *  2 is a 32 bit counter.
1524:.\Generated_Source\PSoC4/CyLib.c ****     *
1525:.\Generated_Source\PSoC4/CyLib.c ****     *******************************************************************************/
1526:.\Generated_Source\PSoC4/CyLib.c ****     uint32 CySysWdtReadCount(uint32 counterNum)
1527:.\Generated_Source\PSoC4/CyLib.c ****     {
 1745              		.loc 1 1527 0
 1746              		.cfi_startproc
 1747 0000 80B5     		push	{r7, lr}
 1748              		.cfi_def_cfa_offset 8
 1749              		.cfi_offset 7, -8
 1750              		.cfi_offset 14, -4
 1751 0002 84B0     		sub	sp, sp, #16
 1752              		.cfi_def_cfa_offset 24
 1753 0004 00AF     		add	r7, sp, #0
 1754              		.cfi_def_cfa_register 7
 1755 0006 7860     		str	r0, [r7, #4]
1528:.\Generated_Source\PSoC4/CyLib.c ****         uint32 regValue = 0u;
 1756              		.loc 1 1528 0
 1757 0008 0023     		mov	r3, #0
 1758 000a FB60     		str	r3, [r7, #12]
1529:.\Generated_Source\PSoC4/CyLib.c **** 
1530:.\Generated_Source\PSoC4/CyLib.c ****         switch(counterNum)
 1759              		.loc 1 1530 0
 1760 000c 7B68     		ldr	r3, [r7, #4]
 1761 000e 012B     		cmp	r3, #1
 1762 0010 09D0     		beq	.L133
 1763 0012 02D3     		bcc	.L134
 1764 0014 022B     		cmp	r3, #2
ARM GAS  C:\DOCUME~1\Owner\LOCALS~1\Temp\cc3gLjSb.s 			page 59


 1765 0016 0BD0     		beq	.L135
 1766 0018 0EE0     		b	.L138
 1767              	.L134:
1531:.\Generated_Source\PSoC4/CyLib.c ****         {
1532:.\Generated_Source\PSoC4/CyLib.c ****             /* WDT Counter 0 */
1533:.\Generated_Source\PSoC4/CyLib.c ****             case 0u:
1534:.\Generated_Source\PSoC4/CyLib.c ****                 regValue = CY_SYS_WDT_CTRLOW_REG & CY_SYS_WDT_LOWER_16BITS_MASK;
 1768              		.loc 1 1534 0
 1769 001a 0C4B     		ldr	r3, .L139
 1770 001c 1B68     		ldr	r3, [r3]
 1771 001e 1B04     		lsl	r3, r3, #16
 1772 0020 1B0C     		lsr	r3, r3, #16
 1773 0022 FB60     		str	r3, [r7, #12]
1535:.\Generated_Source\PSoC4/CyLib.c ****             break;
 1774              		.loc 1 1535 0
 1775 0024 0CE0     		b	.L136
 1776              	.L133:
1536:.\Generated_Source\PSoC4/CyLib.c **** 
1537:.\Generated_Source\PSoC4/CyLib.c ****             /* WDT Counter 1 */
1538:.\Generated_Source\PSoC4/CyLib.c ****             case 1u:
1539:.\Generated_Source\PSoC4/CyLib.c ****                 regValue = (CY_SYS_WDT_CTRLOW_REG >> CY_SYS_WDT_CNT_MATCH_SHIFT) & CY_SYS_WDT_LOWER
 1777              		.loc 1 1539 0
 1778 0026 094B     		ldr	r3, .L139
 1779 0028 1B68     		ldr	r3, [r3]
 1780 002a 1B0C     		lsr	r3, r3, #16
 1781 002c FB60     		str	r3, [r7, #12]
1540:.\Generated_Source\PSoC4/CyLib.c ****             break;
 1782              		.loc 1 1540 0
 1783 002e 07E0     		b	.L136
 1784              	.L135:
1541:.\Generated_Source\PSoC4/CyLib.c **** 
1542:.\Generated_Source\PSoC4/CyLib.c ****             /* WDT Counter 2 */
1543:.\Generated_Source\PSoC4/CyLib.c ****             case 2u:
1544:.\Generated_Source\PSoC4/CyLib.c ****                 regValue = CY_SYS_WDT_CTRHIGH_REG;
 1785              		.loc 1 1544 0
 1786 0030 074B     		ldr	r3, .L139+4
 1787 0032 1B68     		ldr	r3, [r3]
 1788 0034 FB60     		str	r3, [r7, #12]
1545:.\Generated_Source\PSoC4/CyLib.c ****             break;
 1789              		.loc 1 1545 0
 1790 0036 03E0     		b	.L136
 1791              	.L138:
1546:.\Generated_Source\PSoC4/CyLib.c **** 
1547:.\Generated_Source\PSoC4/CyLib.c ****             default:
1548:.\Generated_Source\PSoC4/CyLib.c ****                 CYASSERT(0u != 0u);
 1792              		.loc 1 1548 0
 1793 0038 0020     		mov	r0, #0
 1794 003a FFF7FEFF 		bl	CyHalt
1549:.\Generated_Source\PSoC4/CyLib.c ****             break;
 1795              		.loc 1 1549 0
 1796 003e C046     		mov	r8, r8
 1797              	.L136:
1550:.\Generated_Source\PSoC4/CyLib.c ****         }
1551:.\Generated_Source\PSoC4/CyLib.c **** 
1552:.\Generated_Source\PSoC4/CyLib.c ****         return (regValue);
 1798              		.loc 1 1552 0
 1799 0040 FB68     		ldr	r3, [r7, #12]
ARM GAS  C:\DOCUME~1\Owner\LOCALS~1\Temp\cc3gLjSb.s 			page 60


1553:.\Generated_Source\PSoC4/CyLib.c ****     }
 1800              		.loc 1 1553 0
 1801 0042 181C     		mov	r0, r3
 1802 0044 BD46     		mov	sp, r7
 1803 0046 04B0     		add	sp, sp, #16
 1804              		@ sp needed
 1805 0048 80BD     		pop	{r7, pc}
 1806              	.L140:
 1807 004a C046     		.align	2
 1808              	.L139:
 1809 004c 00020B40 		.word	1074463232
 1810 0050 04020B40 		.word	1074463236
 1811              		.cfi_endproc
 1812              	.LFE24:
 1813              		.size	CySysWdtReadCount, .-CySysWdtReadCount
 1814              		.section	.text.CySysWdtGetInterruptSource,"ax",%progbits
 1815              		.align	2
 1816              		.global	CySysWdtGetInterruptSource
 1817              		.code	16
 1818              		.thumb_func
 1819              		.type	CySysWdtGetInterruptSource, %function
 1820              	CySysWdtGetInterruptSource:
 1821              	.LFB25:
1554:.\Generated_Source\PSoC4/CyLib.c **** 
1555:.\Generated_Source\PSoC4/CyLib.c **** 
1556:.\Generated_Source\PSoC4/CyLib.c ****     /*******************************************************************************
1557:.\Generated_Source\PSoC4/CyLib.c ****     * Function Name: CySysWdtGetInterruptSource
1558:.\Generated_Source\PSoC4/CyLib.c ****     ********************************************************************************
1559:.\Generated_Source\PSoC4/CyLib.c ****     *
1560:.\Generated_Source\PSoC4/CyLib.c ****     * Summary:
1561:.\Generated_Source\PSoC4/CyLib.c ****     *   Reads a mask containing all the WDT counters interrupts that are currently
1562:.\Generated_Source\PSoC4/CyLib.c ****     *   set by the hardware, if a corresponding mode is selected.
1563:.\Generated_Source\PSoC4/CyLib.c ****     *
1564:.\Generated_Source\PSoC4/CyLib.c ****     * Parameters:
1565:.\Generated_Source\PSoC4/CyLib.c ****     *   None
1566:.\Generated_Source\PSoC4/CyLib.c ****     *
1567:.\Generated_Source\PSoC4/CyLib.c ****     * Return:
1568:.\Generated_Source\PSoC4/CyLib.c ****     *   Mask of interrupts set.
1569:.\Generated_Source\PSoC4/CyLib.c ****     *   Define                    Counter
1570:.\Generated_Source\PSoC4/CyLib.c ****     *   CY_SYS_WDT_COUNTER0_INT    0
1571:.\Generated_Source\PSoC4/CyLib.c ****     *   CY_SYS_WDT_COUNTER1_INT    1
1572:.\Generated_Source\PSoC4/CyLib.c ****     *   CY_SYS_WDT_COUNTER2_INT    2
1573:.\Generated_Source\PSoC4/CyLib.c ****     *
1574:.\Generated_Source\PSoC4/CyLib.c ****     *******************************************************************************/
1575:.\Generated_Source\PSoC4/CyLib.c ****     uint32 CySysWdtGetInterruptSource(void)
1576:.\Generated_Source\PSoC4/CyLib.c ****     {
 1822              		.loc 1 1576 0
 1823              		.cfi_startproc
 1824 0000 80B5     		push	{r7, lr}
 1825              		.cfi_def_cfa_offset 8
 1826              		.cfi_offset 7, -8
 1827              		.cfi_offset 14, -4
 1828 0002 00AF     		add	r7, sp, #0
 1829              		.cfi_def_cfa_register 7
1577:.\Generated_Source\PSoC4/CyLib.c ****         return (CY_SYS_WDT_CONTROL_REG & (CY_SYS_WDT_COUNTER0_INT | CY_SYS_WDT_COUNTER1_INT | CY_SY
 1830              		.loc 1 1577 0
 1831 0004 034B     		ldr	r3, .L143
ARM GAS  C:\DOCUME~1\Owner\LOCALS~1\Temp\cc3gLjSb.s 			page 61


 1832 0006 1A68     		ldr	r2, [r3]
 1833 0008 034B     		ldr	r3, .L143+4
 1834 000a 1340     		and	r3, r2
1578:.\Generated_Source\PSoC4/CyLib.c ****     }
 1835              		.loc 1 1578 0
 1836 000c 181C     		mov	r0, r3
 1837 000e BD46     		mov	sp, r7
 1838              		@ sp needed
 1839 0010 80BD     		pop	{r7, pc}
 1840              	.L144:
 1841 0012 C046     		.align	2
 1842              	.L143:
 1843 0014 10020B40 		.word	1074463248
 1844 0018 04040400 		.word	263172
 1845              		.cfi_endproc
 1846              	.LFE25:
 1847              		.size	CySysWdtGetInterruptSource, .-CySysWdtGetInterruptSource
 1848              		.section	.text.CySysWdtClearInterrupt,"ax",%progbits
 1849              		.align	2
 1850              		.global	CySysWdtClearInterrupt
 1851              		.code	16
 1852              		.thumb_func
 1853              		.type	CySysWdtClearInterrupt, %function
 1854              	CySysWdtClearInterrupt:
 1855              	.LFB26:
1579:.\Generated_Source\PSoC4/CyLib.c **** 
1580:.\Generated_Source\PSoC4/CyLib.c **** 
1581:.\Generated_Source\PSoC4/CyLib.c ****     /*******************************************************************************
1582:.\Generated_Source\PSoC4/CyLib.c ****     * Function Name: CySysWdtClearInterrupt
1583:.\Generated_Source\PSoC4/CyLib.c ****     ********************************************************************************
1584:.\Generated_Source\PSoC4/CyLib.c ****     *
1585:.\Generated_Source\PSoC4/CyLib.c ****     * Summary:
1586:.\Generated_Source\PSoC4/CyLib.c ****     *   Clears all the WDT counter interrupts set in the mask. Calling this function
1587:.\Generated_Source\PSoC4/CyLib.c ****     *   also prevents Reset from happening when the counter mode is set to generate
1588:.\Generated_Source\PSoC4/CyLib.c ****     *   3 interrupts and then reset the device.
1589:.\Generated_Source\PSoC4/CyLib.c ****     *
1590:.\Generated_Source\PSoC4/CyLib.c ****     *   All the WDT interrupts are to be cleared by the firmware, otherwise interrupts
1591:.\Generated_Source\PSoC4/CyLib.c ****     *   will be generated continuously.
1592:.\Generated_Source\PSoC4/CyLib.c ****     *
1593:.\Generated_Source\PSoC4/CyLib.c ****     * Parameters:
1594:.\Generated_Source\PSoC4/CyLib.c ****     *   counterMask: Mask of all counters to enable
1595:.\Generated_Source\PSoC4/CyLib.c ****     *   Define                    Counter
1596:.\Generated_Source\PSoC4/CyLib.c ****     *   CY_SYS_WDT_COUNTER0_INT    0
1597:.\Generated_Source\PSoC4/CyLib.c ****     *   CY_SYS_WDT_COUNTER1_INT    1
1598:.\Generated_Source\PSoC4/CyLib.c ****     *   CY_SYS_WDT_COUNTER2_INT    2
1599:.\Generated_Source\PSoC4/CyLib.c ****     *
1600:.\Generated_Source\PSoC4/CyLib.c ****     * Return:
1601:.\Generated_Source\PSoC4/CyLib.c ****     *   None
1602:.\Generated_Source\PSoC4/CyLib.c ****     *
1603:.\Generated_Source\PSoC4/CyLib.c ****     * Side effects:
1604:.\Generated_Source\PSoC4/CyLib.c ****     *   This function temporary removes the watchdog lock, if it was set, and
1605:.\Generated_Source\PSoC4/CyLib.c ****     *   restores the lock state, after cleaning the WDT interrupts, that are set in
1606:.\Generated_Source\PSoC4/CyLib.c ****     *   a mask.
1607:.\Generated_Source\PSoC4/CyLib.c ****     *
1608:.\Generated_Source\PSoC4/CyLib.c ****     *******************************************************************************/
1609:.\Generated_Source\PSoC4/CyLib.c ****     void CySysWdtClearInterrupt(uint32 counterMask)
1610:.\Generated_Source\PSoC4/CyLib.c ****     {
ARM GAS  C:\DOCUME~1\Owner\LOCALS~1\Temp\cc3gLjSb.s 			page 62


 1856              		.loc 1 1610 0
 1857              		.cfi_startproc
 1858 0000 90B5     		push	{r4, r7, lr}
 1859              		.cfi_def_cfa_offset 12
 1860              		.cfi_offset 4, -12
 1861              		.cfi_offset 7, -8
 1862              		.cfi_offset 14, -4
 1863 0002 85B0     		sub	sp, sp, #20
 1864              		.cfi_def_cfa_offset 32
 1865 0004 00AF     		add	r7, sp, #0
 1866              		.cfi_def_cfa_register 7
 1867 0006 7860     		str	r0, [r7, #4]
1611:.\Generated_Source\PSoC4/CyLib.c ****         uint8 interruptState;
1612:.\Generated_Source\PSoC4/CyLib.c ****         uint32 wdtLockState;
1613:.\Generated_Source\PSoC4/CyLib.c **** 
1614:.\Generated_Source\PSoC4/CyLib.c ****         interruptState = CyEnterCriticalSection();
 1868              		.loc 1 1614 0
 1869 0008 3C1C     		mov	r4, r7
 1870 000a 0B34     		add	r4, r4, #11
 1871 000c FFF7FEFF 		bl	CyEnterCriticalSection
 1872 0010 031C     		mov	r3, r0
 1873 0012 2370     		strb	r3, [r4]
1615:.\Generated_Source\PSoC4/CyLib.c **** 
1616:.\Generated_Source\PSoC4/CyLib.c ****         if (0u != CySysWdtLocked())
 1874              		.loc 1 1616 0
 1875 0014 FFF7FEFF 		bl	CySysWdtLocked
 1876 0018 031C     		mov	r3, r0
 1877 001a 002B     		cmp	r3, #0
 1878 001c 04D0     		beq	.L146
1617:.\Generated_Source\PSoC4/CyLib.c ****         {
1618:.\Generated_Source\PSoC4/CyLib.c ****             wdtLockState = 1u;
 1879              		.loc 1 1618 0
 1880 001e 0123     		mov	r3, #1
 1881 0020 FB60     		str	r3, [r7, #12]
1619:.\Generated_Source\PSoC4/CyLib.c ****             CySysWdtUnlock();
 1882              		.loc 1 1619 0
 1883 0022 FFF7FEFF 		bl	CySysWdtUnlock
 1884 0026 01E0     		b	.L147
 1885              	.L146:
1620:.\Generated_Source\PSoC4/CyLib.c ****         }
1621:.\Generated_Source\PSoC4/CyLib.c ****         else
1622:.\Generated_Source\PSoC4/CyLib.c ****         {
1623:.\Generated_Source\PSoC4/CyLib.c ****             wdtLockState = 0u;
 1886              		.loc 1 1623 0
 1887 0028 0023     		mov	r3, #0
 1888 002a FB60     		str	r3, [r7, #12]
 1889              	.L147:
1624:.\Generated_Source\PSoC4/CyLib.c ****         }
1625:.\Generated_Source\PSoC4/CyLib.c **** 
1626:.\Generated_Source\PSoC4/CyLib.c ****         /* Set new WDT control register value */
1627:.\Generated_Source\PSoC4/CyLib.c ****         counterMask &= (CY_SYS_WDT_COUNTER0_INT |
 1890              		.loc 1 1627 0
 1891 002c 7A68     		ldr	r2, [r7, #4]
 1892 002e 0C4B     		ldr	r3, .L149
 1893 0030 1340     		and	r3, r2
 1894 0032 7B60     		str	r3, [r7, #4]
1628:.\Generated_Source\PSoC4/CyLib.c ****                         CY_SYS_WDT_COUNTER1_INT |
ARM GAS  C:\DOCUME~1\Owner\LOCALS~1\Temp\cc3gLjSb.s 			page 63


1629:.\Generated_Source\PSoC4/CyLib.c ****                         CY_SYS_WDT_COUNTER2_INT);
1630:.\Generated_Source\PSoC4/CyLib.c **** 
1631:.\Generated_Source\PSoC4/CyLib.c ****         CY_SYS_WDT_CONTROL_REG = counterMask | (CY_SYS_WDT_CONTROL_REG & ~(CY_SYS_WDT_COUNTER0_INT 
 1895              		.loc 1 1631 0
 1896 0034 0B4B     		ldr	r3, .L149+4
 1897 0036 0B4A     		ldr	r2, .L149+4
 1898 0038 1168     		ldr	r1, [r2]
 1899 003a 0B4A     		ldr	r2, .L149+8
 1900 003c 1140     		and	r1, r2
 1901 003e 7A68     		ldr	r2, [r7, #4]
 1902 0040 0A43     		orr	r2, r1
 1903 0042 1A60     		str	r2, [r3]
1632:.\Generated_Source\PSoC4/CyLib.c ****                                                                            CY_SYS_WDT_COUNTER1_INT 
1633:.\Generated_Source\PSoC4/CyLib.c ****                                                                            CY_SYS_WDT_COUNTER2_INT)
1634:.\Generated_Source\PSoC4/CyLib.c **** 
1635:.\Generated_Source\PSoC4/CyLib.c ****         if (1u == wdtLockState)
 1904              		.loc 1 1635 0
 1905 0044 FB68     		ldr	r3, [r7, #12]
 1906 0046 012B     		cmp	r3, #1
 1907 0048 01D1     		bne	.L148
1636:.\Generated_Source\PSoC4/CyLib.c ****         {
1637:.\Generated_Source\PSoC4/CyLib.c ****             CySysWdtLock();
 1908              		.loc 1 1637 0
 1909 004a FFF7FEFF 		bl	CySysWdtLock
 1910              	.L148:
1638:.\Generated_Source\PSoC4/CyLib.c ****         }
1639:.\Generated_Source\PSoC4/CyLib.c **** 
1640:.\Generated_Source\PSoC4/CyLib.c ****         CyExitCriticalSection(interruptState);
 1911              		.loc 1 1640 0
 1912 004e 3B1C     		mov	r3, r7
 1913 0050 0B33     		add	r3, r3, #11
 1914 0052 1B78     		ldrb	r3, [r3]
 1915 0054 181C     		mov	r0, r3
 1916 0056 FFF7FEFF 		bl	CyExitCriticalSection
1641:.\Generated_Source\PSoC4/CyLib.c ****     }
 1917              		.loc 1 1641 0
 1918 005a BD46     		mov	sp, r7
 1919 005c 05B0     		add	sp, sp, #20
 1920              		@ sp needed
 1921 005e 90BD     		pop	{r4, r7, pc}
 1922              	.L150:
 1923              		.align	2
 1924              	.L149:
 1925 0060 04040400 		.word	263172
 1926 0064 10020B40 		.word	1074463248
 1927 0068 FBFBFBFF 		.word	-263173
 1928              		.cfi_endproc
 1929              	.LFE26:
 1930              		.size	CySysWdtClearInterrupt, .-CySysWdtClearInterrupt
 1931              		.section	.text.CySysWdtResetCounters,"ax",%progbits
 1932              		.align	2
 1933              		.global	CySysWdtResetCounters
 1934              		.code	16
 1935              		.thumb_func
 1936              		.type	CySysWdtResetCounters, %function
 1937              	CySysWdtResetCounters:
 1938              	.LFB27:
ARM GAS  C:\DOCUME~1\Owner\LOCALS~1\Temp\cc3gLjSb.s 			page 64


1642:.\Generated_Source\PSoC4/CyLib.c **** 
1643:.\Generated_Source\PSoC4/CyLib.c **** 
1644:.\Generated_Source\PSoC4/CyLib.c ****     /*******************************************************************************
1645:.\Generated_Source\PSoC4/CyLib.c ****     * Function Name: CySysWdtResetCounters
1646:.\Generated_Source\PSoC4/CyLib.c ****     ********************************************************************************
1647:.\Generated_Source\PSoC4/CyLib.c ****     *
1648:.\Generated_Source\PSoC4/CyLib.c ****     * Summary:
1649:.\Generated_Source\PSoC4/CyLib.c ****     *  Resets all WDT counters set in the mask.
1650:.\Generated_Source\PSoC4/CyLib.c ****     *
1651:.\Generated_Source\PSoC4/CyLib.c ****     * Parameters:
1652:.\Generated_Source\PSoC4/CyLib.c ****     *  counterMask: Mask of all counters to reset.
1653:.\Generated_Source\PSoC4/CyLib.c ****     *   Define                       Counter
1654:.\Generated_Source\PSoC4/CyLib.c ****     *   CY_SYS_WDT_COUNTER0_RESET    0
1655:.\Generated_Source\PSoC4/CyLib.c ****     *   CY_SYS_WDT_COUNTER1_RESET    1
1656:.\Generated_Source\PSoC4/CyLib.c ****     *   CY_SYS_WDT_COUNTER2_RESET    2
1657:.\Generated_Source\PSoC4/CyLib.c ****     *
1658:.\Generated_Source\PSoC4/CyLib.c ****     * Return:
1659:.\Generated_Source\PSoC4/CyLib.c ****     *   None
1660:.\Generated_Source\PSoC4/CyLib.c ****     *
1661:.\Generated_Source\PSoC4/CyLib.c ****     * Side effects:
1662:.\Generated_Source\PSoC4/CyLib.c ****     *   This function will not reset counter values if the Watchdog is locked.
1663:.\Generated_Source\PSoC4/CyLib.c ****     *
1664:.\Generated_Source\PSoC4/CyLib.c ****     *******************************************************************************/
1665:.\Generated_Source\PSoC4/CyLib.c ****     void CySysWdtResetCounters(uint32 countersMask)
1666:.\Generated_Source\PSoC4/CyLib.c ****     {
 1939              		.loc 1 1666 0
 1940              		.cfi_startproc
 1941 0000 80B5     		push	{r7, lr}
 1942              		.cfi_def_cfa_offset 8
 1943              		.cfi_offset 7, -8
 1944              		.cfi_offset 14, -4
 1945 0002 82B0     		sub	sp, sp, #8
 1946              		.cfi_def_cfa_offset 16
 1947 0004 00AF     		add	r7, sp, #0
 1948              		.cfi_def_cfa_register 7
 1949 0006 7860     		str	r0, [r7, #4]
1667:.\Generated_Source\PSoC4/CyLib.c ****         /* Set new WDT reset value */
1668:.\Generated_Source\PSoC4/CyLib.c ****         CY_SYS_WDT_CONTROL_REG |= (countersMask & (CY_SYS_WDT_COUNTER0_RESET |
 1950              		.loc 1 1668 0
 1951 0008 054B     		ldr	r3, .L152
 1952 000a 054A     		ldr	r2, .L152
 1953 000c 1168     		ldr	r1, [r2]
 1954 000e 7868     		ldr	r0, [r7, #4]
 1955 0010 044A     		ldr	r2, .L152+4
 1956 0012 0240     		and	r2, r0
 1957 0014 0A43     		orr	r2, r1
 1958 0016 1A60     		str	r2, [r3]
1669:.\Generated_Source\PSoC4/CyLib.c ****             CY_SYS_WDT_COUNTER1_RESET | CY_SYS_WDT_COUNTER2_RESET));
1670:.\Generated_Source\PSoC4/CyLib.c ****     }
 1959              		.loc 1 1670 0
 1960 0018 BD46     		mov	sp, r7
 1961 001a 02B0     		add	sp, sp, #8
 1962              		@ sp needed
 1963 001c 80BD     		pop	{r7, pc}
 1964              	.L153:
 1965 001e C046     		.align	2
 1966              	.L152:
ARM GAS  C:\DOCUME~1\Owner\LOCALS~1\Temp\cc3gLjSb.s 			page 65


 1967 0020 10020B40 		.word	1074463248
 1968 0024 08080800 		.word	526344
 1969              		.cfi_endproc
 1970              	.LFE27:
 1971              		.size	CySysWdtResetCounters, .-CySysWdtResetCounters
 1972              		.section	.text.CySysClkLfclkPosedgeCatch,"ax",%progbits
 1973              		.align	2
 1974              		.code	16
 1975              		.thumb_func
 1976              		.type	CySysClkLfclkPosedgeCatch, %function
 1977              	CySysClkLfclkPosedgeCatch:
 1978              	.LFB28:
1671:.\Generated_Source\PSoC4/CyLib.c **** 
1672:.\Generated_Source\PSoC4/CyLib.c **** 
1673:.\Generated_Source\PSoC4/CyLib.c ****     /*******************************************************************************
1674:.\Generated_Source\PSoC4/CyLib.c ****     * Function Name: CySysClkLfclkPosedgeCatch
1675:.\Generated_Source\PSoC4/CyLib.c ****     ********************************************************************************
1676:.\Generated_Source\PSoC4/CyLib.c ****     *
1677:.\Generated_Source\PSoC4/CyLib.c ****     * Summary:
1678:.\Generated_Source\PSoC4/CyLib.c ****     *  Returns once LFCLK positive edge occurred.
1679:.\Generated_Source\PSoC4/CyLib.c ****     *
1680:.\Generated_Source\PSoC4/CyLib.c ****     *  The CySysClkLfclkPosedgeRestore() should be called after this function in
1681:.\Generated_Source\PSoC4/CyLib.c ****     *  order to restore WDT configuration.
1682:.\Generated_Source\PSoC4/CyLib.c ****     *
1683:.\Generated_Source\PSoC4/CyLib.c ****     *  The pair of the CySysClkLfclkPosedgeCatch() and CySysClkLfclkPosedgeRestore()
1684:.\Generated_Source\PSoC4/CyLib.c ****     *  functions expected to be called inside of a critical section.
1685:.\Generated_Source\PSoC4/CyLib.c ****     *
1686:.\Generated_Source\PSoC4/CyLib.c ****     *  To ensure that the WDT counter value is read until it changes. The enabled
1687:.\Generated_Source\PSoC4/CyLib.c ****     *  WDT counter is used for that purpose. If no counters are enabled, the counter
1688:.\Generated_Source\PSoC4/CyLib.c ****     *  0 is enabled. And after LFCLK source is switched, the counter 0 configuration
1689:.\Generated_Source\PSoC4/CyLib.c ****     *  is restored back.
1690:.\Generated_Source\PSoC4/CyLib.c ****     *
1691:.\Generated_Source\PSoC4/CyLib.c ****     *  Not applicable for the PSoC 4000 devices.
1692:.\Generated_Source\PSoC4/CyLib.c ****     *
1693:.\Generated_Source\PSoC4/CyLib.c ****     * Parameters:
1694:.\Generated_Source\PSoC4/CyLib.c ****     *  None
1695:.\Generated_Source\PSoC4/CyLib.c ****     *
1696:.\Generated_Source\PSoC4/CyLib.c ****     * Return:
1697:.\Generated_Source\PSoC4/CyLib.c ****     *  None
1698:.\Generated_Source\PSoC4/CyLib.c ****     *
1699:.\Generated_Source\PSoC4/CyLib.c ****     * Side Effects:
1700:.\Generated_Source\PSoC4/CyLib.c ****     *  This function will have no effect if the WDT is locked (CySysWdtLock() is
1701:.\Generated_Source\PSoC4/CyLib.c ****     *  called). Call CySysWdtUnlock() to unlock the WDT.
1702:.\Generated_Source\PSoC4/CyLib.c ****     *
1703:.\Generated_Source\PSoC4/CyLib.c ****     *******************************************************************************/
1704:.\Generated_Source\PSoC4/CyLib.c ****     static void CySysClkLfclkPosedgeCatch(void)
1705:.\Generated_Source\PSoC4/CyLib.c ****     {
 1979              		.loc 1 1705 0
 1980              		.cfi_startproc
 1981 0000 80B5     		push	{r7, lr}
 1982              		.cfi_def_cfa_offset 8
 1983              		.cfi_offset 7, -8
 1984              		.cfi_offset 14, -4
 1985 0002 82B0     		sub	sp, sp, #8
 1986              		.cfi_def_cfa_offset 16
 1987 0004 00AF     		add	r7, sp, #0
 1988              		.cfi_def_cfa_register 7
ARM GAS  C:\DOCUME~1\Owner\LOCALS~1\Temp\cc3gLjSb.s 			page 66


1706:.\Generated_Source\PSoC4/CyLib.c ****         uint32 firstCount;
1707:.\Generated_Source\PSoC4/CyLib.c **** 
1708:.\Generated_Source\PSoC4/CyLib.c ****         if (0u != CySysWdtReadEnabledStatus(CY_SYS_WDT_COUNTER0))
 1989              		.loc 1 1708 0
 1990 0006 0020     		mov	r0, #0
 1991 0008 FFF7FEFF 		bl	CySysWdtReadEnabledStatus
 1992 000c 031C     		mov	r3, r0
 1993 000e 002B     		cmp	r3, #0
 1994 0010 03D0     		beq	.L155
1709:.\Generated_Source\PSoC4/CyLib.c ****         {
1710:.\Generated_Source\PSoC4/CyLib.c ****             lfclkPosedgeEnabledWdtCounter = CY_SYS_WDT_COUNTER0;
 1995              		.loc 1 1710 0
 1996 0012 1F4B     		ldr	r3, .L160
 1997 0014 0022     		mov	r2, #0
 1998 0016 1A60     		str	r2, [r3]
 1999 0018 26E0     		b	.L156
 2000              	.L155:
1711:.\Generated_Source\PSoC4/CyLib.c ****         }
1712:.\Generated_Source\PSoC4/CyLib.c ****         else if (0u != CySysWdtReadEnabledStatus(CY_SYS_WDT_COUNTER1))
 2001              		.loc 1 1712 0
 2002 001a 0120     		mov	r0, #1
 2003 001c FFF7FEFF 		bl	CySysWdtReadEnabledStatus
 2004 0020 031C     		mov	r3, r0
 2005 0022 002B     		cmp	r3, #0
 2006 0024 03D0     		beq	.L157
1713:.\Generated_Source\PSoC4/CyLib.c ****         {
1714:.\Generated_Source\PSoC4/CyLib.c ****             lfclkPosedgeEnabledWdtCounter = CY_SYS_WDT_COUNTER1;
 2007              		.loc 1 1714 0
 2008 0026 1A4B     		ldr	r3, .L160
 2009 0028 0122     		mov	r2, #1
 2010 002a 1A60     		str	r2, [r3]
 2011 002c 1CE0     		b	.L156
 2012              	.L157:
1715:.\Generated_Source\PSoC4/CyLib.c ****         }
1716:.\Generated_Source\PSoC4/CyLib.c ****         else if (0u != CySysWdtReadEnabledStatus(CY_SYS_WDT_COUNTER2))
 2013              		.loc 1 1716 0
 2014 002e 0220     		mov	r0, #2
 2015 0030 FFF7FEFF 		bl	CySysWdtReadEnabledStatus
 2016 0034 031C     		mov	r3, r0
 2017 0036 002B     		cmp	r3, #0
 2018 0038 03D0     		beq	.L158
1717:.\Generated_Source\PSoC4/CyLib.c ****         {
1718:.\Generated_Source\PSoC4/CyLib.c ****             lfclkPosedgeEnabledWdtCounter = CY_SYS_WDT_COUNTER2;
 2019              		.loc 1 1718 0
 2020 003a 154B     		ldr	r3, .L160
 2021 003c 0222     		mov	r2, #2
 2022 003e 1A60     		str	r2, [r3]
 2023 0040 12E0     		b	.L156
 2024              	.L158:
1719:.\Generated_Source\PSoC4/CyLib.c ****         }
1720:.\Generated_Source\PSoC4/CyLib.c ****         else /* All WDT counters are disabled */
1721:.\Generated_Source\PSoC4/CyLib.c ****         {
1722:.\Generated_Source\PSoC4/CyLib.c ****             /* Configure WDT counter # 0 */
1723:.\Generated_Source\PSoC4/CyLib.c ****             lfclkPosedgeWdtCounter0Enabled = 1u;
 2025              		.loc 1 1723 0
 2026 0042 144B     		ldr	r3, .L160+4
 2027 0044 0122     		mov	r2, #1
ARM GAS  C:\DOCUME~1\Owner\LOCALS~1\Temp\cc3gLjSb.s 			page 67


 2028 0046 1A60     		str	r2, [r3]
1724:.\Generated_Source\PSoC4/CyLib.c ****             lfclkPosedgeEnabledWdtCounter = CY_SYS_WDT_COUNTER0;
 2029              		.loc 1 1724 0
 2030 0048 114B     		ldr	r3, .L160
 2031 004a 0022     		mov	r2, #0
 2032 004c 1A60     		str	r2, [r3]
1725:.\Generated_Source\PSoC4/CyLib.c **** 
1726:.\Generated_Source\PSoC4/CyLib.c ****             lfclkPosedgeWdtCounter0Mode = CySysWdtReadMode(CY_SYS_WDT_COUNTER0);
 2033              		.loc 1 1726 0
 2034 004e 0020     		mov	r0, #0
 2035 0050 FFF7FEFF 		bl	CySysWdtReadMode
 2036 0054 021C     		mov	r2, r0
 2037 0056 104B     		ldr	r3, .L160+8
 2038 0058 1A60     		str	r2, [r3]
1727:.\Generated_Source\PSoC4/CyLib.c ****             CySysWdtWriteMode(CY_SYS_WDT_COUNTER0, CY_SYS_WDT_MODE_NONE);
 2039              		.loc 1 1727 0
 2040 005a 0020     		mov	r0, #0
 2041 005c 0021     		mov	r1, #0
 2042 005e FFF7FEFF 		bl	CySysWdtWriteMode
1728:.\Generated_Source\PSoC4/CyLib.c ****             CySysWdtEnable(CY_SYS_WDT_COUNTER0_MASK);
 2043              		.loc 1 1728 0
 2044 0062 0120     		mov	r0, #1
 2045 0064 FFF7FEFF 		bl	CySysWdtEnable
 2046              	.L156:
1729:.\Generated_Source\PSoC4/CyLib.c ****         }
1730:.\Generated_Source\PSoC4/CyLib.c **** 
1731:.\Generated_Source\PSoC4/CyLib.c ****         firstCount = CySysWdtReadCount(lfclkPosedgeEnabledWdtCounter);
 2047              		.loc 1 1731 0
 2048 0068 094B     		ldr	r3, .L160
 2049 006a 1B68     		ldr	r3, [r3]
 2050 006c 181C     		mov	r0, r3
 2051 006e FFF7FEFF 		bl	CySysWdtReadCount
 2052 0072 031C     		mov	r3, r0
 2053 0074 7B60     		str	r3, [r7, #4]
1732:.\Generated_Source\PSoC4/CyLib.c ****         while (CySysWdtReadCount(lfclkPosedgeEnabledWdtCounter) == firstCount)
 2054              		.loc 1 1732 0
 2055 0076 C046     		mov	r8, r8
 2056              	.L159:
 2057              		.loc 1 1732 0 is_stmt 0 discriminator 1
 2058 0078 054B     		ldr	r3, .L160
 2059 007a 1B68     		ldr	r3, [r3]
 2060 007c 181C     		mov	r0, r3
 2061 007e FFF7FEFF 		bl	CySysWdtReadCount
 2062 0082 021C     		mov	r2, r0
 2063 0084 7B68     		ldr	r3, [r7, #4]
 2064 0086 9A42     		cmp	r2, r3
 2065 0088 F6D0     		beq	.L159
1733:.\Generated_Source\PSoC4/CyLib.c ****         {
1734:.\Generated_Source\PSoC4/CyLib.c ****             /* Wait for counter to increment */
1735:.\Generated_Source\PSoC4/CyLib.c ****         }
1736:.\Generated_Source\PSoC4/CyLib.c ****     }
 2066              		.loc 1 1736 0 is_stmt 1
 2067 008a BD46     		mov	sp, r7
 2068 008c 02B0     		add	sp, sp, #8
 2069              		@ sp needed
 2070 008e 80BD     		pop	{r7, pc}
 2071              	.L161:
ARM GAS  C:\DOCUME~1\Owner\LOCALS~1\Temp\cc3gLjSb.s 			page 68


 2072              		.align	2
 2073              	.L160:
 2074 0090 00000000 		.word	lfclkPosedgeEnabledWdtCounter
 2075 0094 00000000 		.word	lfclkPosedgeWdtCounter0Enabled
 2076 0098 00000000 		.word	lfclkPosedgeWdtCounter0Mode
 2077              		.cfi_endproc
 2078              	.LFE28:
 2079              		.size	CySysClkLfclkPosedgeCatch, .-CySysClkLfclkPosedgeCatch
 2080              		.section	.text.CySysClkLfclkPosedgeRestore,"ax",%progbits
 2081              		.align	2
 2082              		.code	16
 2083              		.thumb_func
 2084              		.type	CySysClkLfclkPosedgeRestore, %function
 2085              	CySysClkLfclkPosedgeRestore:
 2086              	.LFB29:
1737:.\Generated_Source\PSoC4/CyLib.c **** 
1738:.\Generated_Source\PSoC4/CyLib.c **** 
1739:.\Generated_Source\PSoC4/CyLib.c ****     /*******************************************************************************
1740:.\Generated_Source\PSoC4/CyLib.c ****     * Function Name: CySysClkLfclkPosedgeRestore
1741:.\Generated_Source\PSoC4/CyLib.c ****     ********************************************************************************
1742:.\Generated_Source\PSoC4/CyLib.c ****     *
1743:.\Generated_Source\PSoC4/CyLib.c ****     * Summary:
1744:.\Generated_Source\PSoC4/CyLib.c ****     *  Restores WDT configuration after CySysClkLfclkPosedgeCatch() call.
1745:.\Generated_Source\PSoC4/CyLib.c ****     *
1746:.\Generated_Source\PSoC4/CyLib.c ****     *  The pair of the CySysClkLfclkPosedgeCatch() and CySysClkLfclkPosedgeRestore()
1747:.\Generated_Source\PSoC4/CyLib.c ****     *  functions expected to be called inside of a critical section.
1748:.\Generated_Source\PSoC4/CyLib.c ****     *
1749:.\Generated_Source\PSoC4/CyLib.c ****     *  Not applicable for the PSoC 4000 devices.
1750:.\Generated_Source\PSoC4/CyLib.c ****     *
1751:.\Generated_Source\PSoC4/CyLib.c ****     * Parameters:
1752:.\Generated_Source\PSoC4/CyLib.c ****     *  None
1753:.\Generated_Source\PSoC4/CyLib.c ****     *
1754:.\Generated_Source\PSoC4/CyLib.c ****     * Return:
1755:.\Generated_Source\PSoC4/CyLib.c ****     *  None
1756:.\Generated_Source\PSoC4/CyLib.c ****     *
1757:.\Generated_Source\PSoC4/CyLib.c ****     * Side Effects:
1758:.\Generated_Source\PSoC4/CyLib.c ****     *  This function will have no effect if the WDT is locked (CySysWdtLock() is
1759:.\Generated_Source\PSoC4/CyLib.c ****     *  called). Call CySysWdtUnlock() to unlock the WDT.
1760:.\Generated_Source\PSoC4/CyLib.c ****     *
1761:.\Generated_Source\PSoC4/CyLib.c ****     *******************************************************************************/
1762:.\Generated_Source\PSoC4/CyLib.c ****     static void CySysClkLfclkPosedgeRestore(void)
1763:.\Generated_Source\PSoC4/CyLib.c ****     {
 2087              		.loc 1 1763 0
 2088              		.cfi_startproc
 2089 0000 80B5     		push	{r7, lr}
 2090              		.cfi_def_cfa_offset 8
 2091              		.cfi_offset 7, -8
 2092              		.cfi_offset 14, -4
 2093 0002 00AF     		add	r7, sp, #0
 2094              		.cfi_def_cfa_register 7
1764:.\Generated_Source\PSoC4/CyLib.c ****         if (lfclkPosedgeWdtCounter0Enabled != 0u)
 2095              		.loc 1 1764 0
 2096 0004 0A4B     		ldr	r3, .L164
 2097 0006 1B68     		ldr	r3, [r3]
 2098 0008 002B     		cmp	r3, #0
 2099 000a 0ED0     		beq	.L162
1765:.\Generated_Source\PSoC4/CyLib.c ****         {
ARM GAS  C:\DOCUME~1\Owner\LOCALS~1\Temp\cc3gLjSb.s 			page 69


1766:.\Generated_Source\PSoC4/CyLib.c ****             /* Restore counter # 0 configuration and force it's shutdown */
1767:.\Generated_Source\PSoC4/CyLib.c ****             CY_SYS_WDT_CONTROL_REG &= (uint32)(~CY_SYS_WDT_COUNTER0_MASK);
 2100              		.loc 1 1767 0
 2101 000c 094B     		ldr	r3, .L164+4
 2102 000e 094A     		ldr	r2, .L164+4
 2103 0010 1268     		ldr	r2, [r2]
 2104 0012 0121     		mov	r1, #1
 2105 0014 8A43     		bic	r2, r1
 2106 0016 1A60     		str	r2, [r3]
1768:.\Generated_Source\PSoC4/CyLib.c ****             CySysWdtWriteMode(CY_SYS_WDT_COUNTER0, lfclkPosedgeWdtCounter0Mode);
 2107              		.loc 1 1768 0
 2108 0018 074B     		ldr	r3, .L164+8
 2109 001a 1B68     		ldr	r3, [r3]
 2110 001c 0020     		mov	r0, #0
 2111 001e 191C     		mov	r1, r3
 2112 0020 FFF7FEFF 		bl	CySysWdtWriteMode
1769:.\Generated_Source\PSoC4/CyLib.c ****             lfclkPosedgeWdtCounter0Enabled = 0u;
 2113              		.loc 1 1769 0
 2114 0024 024B     		ldr	r3, .L164
 2115 0026 0022     		mov	r2, #0
 2116 0028 1A60     		str	r2, [r3]
 2117              	.L162:
1770:.\Generated_Source\PSoC4/CyLib.c ****         }
1771:.\Generated_Source\PSoC4/CyLib.c ****     }
 2118              		.loc 1 1771 0
 2119 002a BD46     		mov	sp, r7
 2120              		@ sp needed
 2121 002c 80BD     		pop	{r7, pc}
 2122              	.L165:
 2123 002e C046     		.align	2
 2124              	.L164:
 2125 0030 00000000 		.word	lfclkPosedgeWdtCounter0Enabled
 2126 0034 10020B40 		.word	1074463248
 2127 0038 00000000 		.word	lfclkPosedgeWdtCounter0Mode
 2128              		.cfi_endproc
 2129              	.LFE29:
 2130              		.size	CySysClkLfclkPosedgeRestore, .-CySysClkLfclkPosedgeRestore
 2131              		.section	.text.CySysLvdEnable,"ax",%progbits
 2132              		.align	2
 2133              		.global	CySysLvdEnable
 2134              		.code	16
 2135              		.thumb_func
 2136              		.type	CySysLvdEnable, %function
 2137              	CySysLvdEnable:
 2138              	.LFB30:
1772:.\Generated_Source\PSoC4/CyLib.c **** 
1773:.\Generated_Source\PSoC4/CyLib.c **** #else
1774:.\Generated_Source\PSoC4/CyLib.c **** 
1775:.\Generated_Source\PSoC4/CyLib.c ****     /*******************************************************************************
1776:.\Generated_Source\PSoC4/CyLib.c ****     * Function Name: CySysWdtReadEnabledStatus
1777:.\Generated_Source\PSoC4/CyLib.c ****     ********************************************************************************
1778:.\Generated_Source\PSoC4/CyLib.c ****     *
1779:.\Generated_Source\PSoC4/CyLib.c ****     * Summary:
1780:.\Generated_Source\PSoC4/CyLib.c ****     *  Reads the enabled status WDT counter.
1781:.\Generated_Source\PSoC4/CyLib.c ****     *
1782:.\Generated_Source\PSoC4/CyLib.c ****     * Parameters:
1783:.\Generated_Source\PSoC4/CyLib.c ****     *  None
ARM GAS  C:\DOCUME~1\Owner\LOCALS~1\Temp\cc3gLjSb.s 			page 70


1784:.\Generated_Source\PSoC4/CyLib.c ****     *
1785:.\Generated_Source\PSoC4/CyLib.c ****     * Return:
1786:.\Generated_Source\PSoC4/CyLib.c ****     *  Status of WDT counter:
1787:.\Generated_Source\PSoC4/CyLib.c ****     *   0 - counter is disabled
1788:.\Generated_Source\PSoC4/CyLib.c ****     *   1 - counter is enabled
1789:.\Generated_Source\PSoC4/CyLib.c ****     *
1790:.\Generated_Source\PSoC4/CyLib.c ****     *******************************************************************************/
1791:.\Generated_Source\PSoC4/CyLib.c ****     uint32 CySysWdtReadEnabledStatus(void)
1792:.\Generated_Source\PSoC4/CyLib.c ****     {
1793:.\Generated_Source\PSoC4/CyLib.c ****         return ((CY_SYS_WDT_DISABLE_KEY_REG == CY_SYS_WDT_KEY) ? (uint32) 0u : (uint32) 1u);
1794:.\Generated_Source\PSoC4/CyLib.c ****     }
1795:.\Generated_Source\PSoC4/CyLib.c **** 
1796:.\Generated_Source\PSoC4/CyLib.c **** 
1797:.\Generated_Source\PSoC4/CyLib.c ****     /*******************************************************************************
1798:.\Generated_Source\PSoC4/CyLib.c ****     * Function Name: CySysWdtEnable
1799:.\Generated_Source\PSoC4/CyLib.c ****     ********************************************************************************
1800:.\Generated_Source\PSoC4/CyLib.c ****     *
1801:.\Generated_Source\PSoC4/CyLib.c ****     * Summary:
1802:.\Generated_Source\PSoC4/CyLib.c ****     *  Enables the watchdog timer reset generation. The CySysWdtClearInterrupt()
1803:.\Generated_Source\PSoC4/CyLib.c ****     *  feeds the watch dog. Two unserviced interrupts will lead to a system reset
1804:.\Generated_Source\PSoC4/CyLib.c ****     *  (i.e. at the third match).
1805:.\Generated_Source\PSoC4/CyLib.c ****     *
1806:.\Generated_Source\PSoC4/CyLib.c ****     * Parameters:
1807:.\Generated_Source\PSoC4/CyLib.c ****     *  None
1808:.\Generated_Source\PSoC4/CyLib.c ****     *
1809:.\Generated_Source\PSoC4/CyLib.c ****     * Return:
1810:.\Generated_Source\PSoC4/CyLib.c ****     *  None
1811:.\Generated_Source\PSoC4/CyLib.c ****     *
1812:.\Generated_Source\PSoC4/CyLib.c ****     * Side Effects:
1813:.\Generated_Source\PSoC4/CyLib.c ****     *  The ILO is enabled by hardware once WDT is started.
1814:.\Generated_Source\PSoC4/CyLib.c ****     *
1815:.\Generated_Source\PSoC4/CyLib.c ****     *******************************************************************************/
1816:.\Generated_Source\PSoC4/CyLib.c ****     void CySysWdtEnable(void)
1817:.\Generated_Source\PSoC4/CyLib.c ****     {
1818:.\Generated_Source\PSoC4/CyLib.c ****         CY_SYS_WDT_DISABLE_KEY_REG = 0u;
1819:.\Generated_Source\PSoC4/CyLib.c ****     }
1820:.\Generated_Source\PSoC4/CyLib.c **** 
1821:.\Generated_Source\PSoC4/CyLib.c **** 
1822:.\Generated_Source\PSoC4/CyLib.c ****     /*******************************************************************************
1823:.\Generated_Source\PSoC4/CyLib.c ****     * Function Name: CySysWdtDisable
1824:.\Generated_Source\PSoC4/CyLib.c ****     ********************************************************************************
1825:.\Generated_Source\PSoC4/CyLib.c ****     *
1826:.\Generated_Source\PSoC4/CyLib.c ****     * Summary:
1827:.\Generated_Source\PSoC4/CyLib.c ****     *  Disables the WDT reset generation.
1828:.\Generated_Source\PSoC4/CyLib.c ****     *
1829:.\Generated_Source\PSoC4/CyLib.c ****     * Parameters:
1830:.\Generated_Source\PSoC4/CyLib.c ****     *  None
1831:.\Generated_Source\PSoC4/CyLib.c ****     *
1832:.\Generated_Source\PSoC4/CyLib.c ****     * Return:
1833:.\Generated_Source\PSoC4/CyLib.c ****     *  None
1834:.\Generated_Source\PSoC4/CyLib.c ****     *
1835:.\Generated_Source\PSoC4/CyLib.c ****     *******************************************************************************/
1836:.\Generated_Source\PSoC4/CyLib.c ****     void CySysWdtDisable(void)
1837:.\Generated_Source\PSoC4/CyLib.c ****     {
1838:.\Generated_Source\PSoC4/CyLib.c ****         CY_SYS_WDT_DISABLE_KEY_REG = CY_SYS_WDT_KEY;
1839:.\Generated_Source\PSoC4/CyLib.c ****     }
1840:.\Generated_Source\PSoC4/CyLib.c **** 
ARM GAS  C:\DOCUME~1\Owner\LOCALS~1\Temp\cc3gLjSb.s 			page 71


1841:.\Generated_Source\PSoC4/CyLib.c **** 
1842:.\Generated_Source\PSoC4/CyLib.c ****     /*******************************************************************************
1843:.\Generated_Source\PSoC4/CyLib.c ****     * Function Name: CySysWdtWriteMatch
1844:.\Generated_Source\PSoC4/CyLib.c ****     ********************************************************************************
1845:.\Generated_Source\PSoC4/CyLib.c ****     *
1846:.\Generated_Source\PSoC4/CyLib.c ****     * Summary:
1847:.\Generated_Source\PSoC4/CyLib.c ****     *  Configures the WDT counter match comparison value.
1848:.\Generated_Source\PSoC4/CyLib.c ****     *
1849:.\Generated_Source\PSoC4/CyLib.c ****     * Parameters:
1850:.\Generated_Source\PSoC4/CyLib.c ****     *  match:
1851:.\Generated_Source\PSoC4/CyLib.c ****     *   Valid range [0-65535]. Value to be used to match against the counter.
1852:.\Generated_Source\PSoC4/CyLib.c ****     *
1853:.\Generated_Source\PSoC4/CyLib.c ****     * Return:
1854:.\Generated_Source\PSoC4/CyLib.c ****     *  None
1855:.\Generated_Source\PSoC4/CyLib.c ****     *
1856:.\Generated_Source\PSoC4/CyLib.c ****     *******************************************************************************/
1857:.\Generated_Source\PSoC4/CyLib.c ****     void CySysWdtWriteMatch(uint32 match)
1858:.\Generated_Source\PSoC4/CyLib.c ****     {
1859:.\Generated_Source\PSoC4/CyLib.c ****         CY_SYS_WDT_MATCH_REG = (CY_SYS_WDT_MATCH_REG & (uint32)(~ (uint32)CY_SYS_WDT_MATCH_MASK)) |
1860:.\Generated_Source\PSoC4/CyLib.c ****     }
1861:.\Generated_Source\PSoC4/CyLib.c **** 
1862:.\Generated_Source\PSoC4/CyLib.c **** 
1863:.\Generated_Source\PSoC4/CyLib.c ****     /*******************************************************************************
1864:.\Generated_Source\PSoC4/CyLib.c ****     * Function Name: CySysWdtReadMatch
1865:.\Generated_Source\PSoC4/CyLib.c ****     ********************************************************************************
1866:.\Generated_Source\PSoC4/CyLib.c ****     *
1867:.\Generated_Source\PSoC4/CyLib.c ****     * Summary:
1868:.\Generated_Source\PSoC4/CyLib.c ****     *  Reads the WDT counter match comparison value.
1869:.\Generated_Source\PSoC4/CyLib.c ****     *
1870:.\Generated_Source\PSoC4/CyLib.c ****     * Parameters:
1871:.\Generated_Source\PSoC4/CyLib.c ****     *  None
1872:.\Generated_Source\PSoC4/CyLib.c ****     *
1873:.\Generated_Source\PSoC4/CyLib.c ****     * Return:
1874:.\Generated_Source\PSoC4/CyLib.c ****     *  Counter match value.
1875:.\Generated_Source\PSoC4/CyLib.c ****     *
1876:.\Generated_Source\PSoC4/CyLib.c ****     *******************************************************************************/
1877:.\Generated_Source\PSoC4/CyLib.c ****     uint32 CySysWdtReadMatch(void)
1878:.\Generated_Source\PSoC4/CyLib.c ****     {
1879:.\Generated_Source\PSoC4/CyLib.c ****         return (CY_SYS_WDT_MATCH_REG & CY_SYS_WDT_MATCH_MASK);
1880:.\Generated_Source\PSoC4/CyLib.c ****     }
1881:.\Generated_Source\PSoC4/CyLib.c **** 
1882:.\Generated_Source\PSoC4/CyLib.c **** 
1883:.\Generated_Source\PSoC4/CyLib.c ****     /*******************************************************************************
1884:.\Generated_Source\PSoC4/CyLib.c ****     * Function Name: CySysWdtReadCount
1885:.\Generated_Source\PSoC4/CyLib.c ****     ********************************************************************************
1886:.\Generated_Source\PSoC4/CyLib.c ****     *
1887:.\Generated_Source\PSoC4/CyLib.c ****     * Summary:
1888:.\Generated_Source\PSoC4/CyLib.c ****     *  Reads the current WDT counter value.
1889:.\Generated_Source\PSoC4/CyLib.c ****     *
1890:.\Generated_Source\PSoC4/CyLib.c ****     * Parameters:
1891:.\Generated_Source\PSoC4/CyLib.c ****     *  None
1892:.\Generated_Source\PSoC4/CyLib.c ****     *
1893:.\Generated_Source\PSoC4/CyLib.c ****     * Return:
1894:.\Generated_Source\PSoC4/CyLib.c ****     *  Live counter value
1895:.\Generated_Source\PSoC4/CyLib.c ****     *
1896:.\Generated_Source\PSoC4/CyLib.c ****     *******************************************************************************/
1897:.\Generated_Source\PSoC4/CyLib.c ****     uint32 CySysWdtReadCount(void)
ARM GAS  C:\DOCUME~1\Owner\LOCALS~1\Temp\cc3gLjSb.s 			page 72


1898:.\Generated_Source\PSoC4/CyLib.c ****     {
1899:.\Generated_Source\PSoC4/CyLib.c ****         return ((uint32)CY_SYS_WDT_COUNTER_REG);
1900:.\Generated_Source\PSoC4/CyLib.c ****     }
1901:.\Generated_Source\PSoC4/CyLib.c **** 
1902:.\Generated_Source\PSoC4/CyLib.c **** 
1903:.\Generated_Source\PSoC4/CyLib.c ****     /*******************************************************************************
1904:.\Generated_Source\PSoC4/CyLib.c ****     * Function Name: CySysWdtWriteIgnoreBits
1905:.\Generated_Source\PSoC4/CyLib.c ****     ********************************************************************************
1906:.\Generated_Source\PSoC4/CyLib.c ****     *
1907:.\Generated_Source\PSoC4/CyLib.c ****     * Summary:
1908:.\Generated_Source\PSoC4/CyLib.c ****     *  Configures the number of the MSB bits of the watchdog timer that are not
1909:.\Generated_Source\PSoC4/CyLib.c ****     *  checked against the match.
1910:.\Generated_Source\PSoC4/CyLib.c ****     *
1911:.\Generated_Source\PSoC4/CyLib.c ****     * Parameters:
1912:.\Generated_Source\PSoC4/CyLib.c ****     *  bitsNum:
1913:.\Generated_Source\PSoC4/CyLib.c ****     *   Valid range [0-15]. Number of MSB bits.
1914:.\Generated_Source\PSoC4/CyLib.c ****     *
1915:.\Generated_Source\PSoC4/CyLib.c ****     * Return:
1916:.\Generated_Source\PSoC4/CyLib.c ****     *  None
1917:.\Generated_Source\PSoC4/CyLib.c ****     *
1918:.\Generated_Source\PSoC4/CyLib.c ****     * Side Effects:
1919:.\Generated_Source\PSoC4/CyLib.c ****     *  The value of bitsNum provides control over the time-to-reset of the watchdog
1920:.\Generated_Source\PSoC4/CyLib.c ****     *  (which happens after 3 successive matches).
1921:.\Generated_Source\PSoC4/CyLib.c ****     *
1922:.\Generated_Source\PSoC4/CyLib.c ****     *******************************************************************************/
1923:.\Generated_Source\PSoC4/CyLib.c ****     void CySysWdtWriteIgnoreBits(uint32 bitsNum)
1924:.\Generated_Source\PSoC4/CyLib.c ****     {
1925:.\Generated_Source\PSoC4/CyLib.c ****         bitsNum = ((uint32)(bitsNum << CY_SYS_WDT_IGNORE_BITS_SHIFT) & CY_SYS_WDT_IGNORE_BITS_MASK)
1926:.\Generated_Source\PSoC4/CyLib.c ****         CY_SYS_WDT_MATCH_REG = (CY_SYS_WDT_MATCH_REG & (uint32)(~CY_SYS_WDT_IGNORE_BITS_MASK)) | bi
1927:.\Generated_Source\PSoC4/CyLib.c ****     }
1928:.\Generated_Source\PSoC4/CyLib.c **** 
1929:.\Generated_Source\PSoC4/CyLib.c **** 
1930:.\Generated_Source\PSoC4/CyLib.c ****     /*******************************************************************************
1931:.\Generated_Source\PSoC4/CyLib.c ****     * Function Name: CySysWdtReadIgnoreBits
1932:.\Generated_Source\PSoC4/CyLib.c ****     ********************************************************************************
1933:.\Generated_Source\PSoC4/CyLib.c ****     *
1934:.\Generated_Source\PSoC4/CyLib.c ****     * Summary:
1935:.\Generated_Source\PSoC4/CyLib.c ****     *  Reads the number of the  MSB bits of the watchdog timer that are not
1936:.\Generated_Source\PSoC4/CyLib.c ****     *  checked against the match.
1937:.\Generated_Source\PSoC4/CyLib.c ****     *
1938:.\Generated_Source\PSoC4/CyLib.c ****     * Parameters:
1939:.\Generated_Source\PSoC4/CyLib.c ****     *  None
1940:.\Generated_Source\PSoC4/CyLib.c ****     *
1941:.\Generated_Source\PSoC4/CyLib.c ****     * Return:
1942:.\Generated_Source\PSoC4/CyLib.c ****     *  Number of MSB bits.
1943:.\Generated_Source\PSoC4/CyLib.c ****     *
1944:.\Generated_Source\PSoC4/CyLib.c ****     *******************************************************************************/
1945:.\Generated_Source\PSoC4/CyLib.c ****     uint32 CySysWdtReadIgnoreBits(void)
1946:.\Generated_Source\PSoC4/CyLib.c ****     {
1947:.\Generated_Source\PSoC4/CyLib.c ****         return((uint32)((CY_SYS_WDT_MATCH_REG & CY_SYS_WDT_IGNORE_BITS_MASK) >> CY_SYS_WDT_IGNORE_B
1948:.\Generated_Source\PSoC4/CyLib.c ****     }
1949:.\Generated_Source\PSoC4/CyLib.c **** 
1950:.\Generated_Source\PSoC4/CyLib.c **** 
1951:.\Generated_Source\PSoC4/CyLib.c ****     /*******************************************************************************
1952:.\Generated_Source\PSoC4/CyLib.c ****     * Function Name: CySysWdtClearInterrupt
1953:.\Generated_Source\PSoC4/CyLib.c ****     ********************************************************************************
1954:.\Generated_Source\PSoC4/CyLib.c ****     *
ARM GAS  C:\DOCUME~1\Owner\LOCALS~1\Temp\cc3gLjSb.s 			page 73


1955:.\Generated_Source\PSoC4/CyLib.c ****     * Summary:
1956:.\Generated_Source\PSoC4/CyLib.c ****     *  Feeds the watch dog. Cleans the WDT match flag, which is set every time the
1957:.\Generated_Source\PSoC4/CyLib.c ****     *  WDT counter reaches a WDT match value.  Two unserviced interrupts will lead
1958:.\Generated_Source\PSoC4/CyLib.c ****     *  to a system reset (i.e. at the third match).
1959:.\Generated_Source\PSoC4/CyLib.c ****     *
1960:.\Generated_Source\PSoC4/CyLib.c ****     * Parameters:
1961:.\Generated_Source\PSoC4/CyLib.c ****     *  None
1962:.\Generated_Source\PSoC4/CyLib.c ****     *
1963:.\Generated_Source\PSoC4/CyLib.c ****     * Return:
1964:.\Generated_Source\PSoC4/CyLib.c ****     *  None
1965:.\Generated_Source\PSoC4/CyLib.c ****     *
1966:.\Generated_Source\PSoC4/CyLib.c ****     *******************************************************************************/
1967:.\Generated_Source\PSoC4/CyLib.c ****     void CySysWdtClearInterrupt(void)
1968:.\Generated_Source\PSoC4/CyLib.c ****     {
1969:.\Generated_Source\PSoC4/CyLib.c ****         CY_SYS_SRSS_INTR_REG |= CY_SYS_WDT_LOWER_BIT_MASK;
1970:.\Generated_Source\PSoC4/CyLib.c ****     }
1971:.\Generated_Source\PSoC4/CyLib.c **** 
1972:.\Generated_Source\PSoC4/CyLib.c **** 
1973:.\Generated_Source\PSoC4/CyLib.c ****     /*******************************************************************************
1974:.\Generated_Source\PSoC4/CyLib.c ****     * Function Name: CySysWdtMaskInterrupt
1975:.\Generated_Source\PSoC4/CyLib.c ****     ********************************************************************************
1976:.\Generated_Source\PSoC4/CyLib.c ****     *
1977:.\Generated_Source\PSoC4/CyLib.c ****     * Summary:
1978:.\Generated_Source\PSoC4/CyLib.c ****     *  After masking interrupts from the WDT, they are not passed to the CPU.
1979:.\Generated_Source\PSoC4/CyLib.c ****     *  This function does not disable the WDT reset generation.
1980:.\Generated_Source\PSoC4/CyLib.c ****     *
1981:.\Generated_Source\PSoC4/CyLib.c ****     * Parameters:
1982:.\Generated_Source\PSoC4/CyLib.c ****     *  None
1983:.\Generated_Source\PSoC4/CyLib.c ****     *
1984:.\Generated_Source\PSoC4/CyLib.c ****     * Return:
1985:.\Generated_Source\PSoC4/CyLib.c ****     *  None
1986:.\Generated_Source\PSoC4/CyLib.c ****     *
1987:.\Generated_Source\PSoC4/CyLib.c ****     *******************************************************************************/
1988:.\Generated_Source\PSoC4/CyLib.c ****     void CySysWdtMaskInterrupt(void)
1989:.\Generated_Source\PSoC4/CyLib.c ****     {
1990:.\Generated_Source\PSoC4/CyLib.c ****         CY_SYS_SRSS_INTR_MASK_REG &= (uint32)(~ (uint32)CY_SYS_WDT_LOWER_BIT_MASK);
1991:.\Generated_Source\PSoC4/CyLib.c ****     }
1992:.\Generated_Source\PSoC4/CyLib.c **** 
1993:.\Generated_Source\PSoC4/CyLib.c **** 
1994:.\Generated_Source\PSoC4/CyLib.c ****     /*******************************************************************************
1995:.\Generated_Source\PSoC4/CyLib.c ****     * Function Name: CySysWdtUnmaskInterrupt
1996:.\Generated_Source\PSoC4/CyLib.c ****     ********************************************************************************
1997:.\Generated_Source\PSoC4/CyLib.c ****     *
1998:.\Generated_Source\PSoC4/CyLib.c ****     * Summary:
1999:.\Generated_Source\PSoC4/CyLib.c ****     *  Unmasks WDT interrupts.
2000:.\Generated_Source\PSoC4/CyLib.c ****     *
2001:.\Generated_Source\PSoC4/CyLib.c ****     * Parameters:
2002:.\Generated_Source\PSoC4/CyLib.c ****     *  None
2003:.\Generated_Source\PSoC4/CyLib.c ****     *
2004:.\Generated_Source\PSoC4/CyLib.c ****     * Return:
2005:.\Generated_Source\PSoC4/CyLib.c ****     *  None
2006:.\Generated_Source\PSoC4/CyLib.c ****     *
2007:.\Generated_Source\PSoC4/CyLib.c ****     *******************************************************************************/
2008:.\Generated_Source\PSoC4/CyLib.c ****     void CySysWdtUnmaskInterrupt(void)
2009:.\Generated_Source\PSoC4/CyLib.c ****     {
2010:.\Generated_Source\PSoC4/CyLib.c ****         CY_SYS_SRSS_INTR_MASK_REG |= CY_SYS_WDT_LOWER_BIT_MASK;
2011:.\Generated_Source\PSoC4/CyLib.c ****     }
ARM GAS  C:\DOCUME~1\Owner\LOCALS~1\Temp\cc3gLjSb.s 			page 74


2012:.\Generated_Source\PSoC4/CyLib.c **** 
2013:.\Generated_Source\PSoC4/CyLib.c **** #endif /* (CY_IP_SRSSV2) */
2014:.\Generated_Source\PSoC4/CyLib.c **** 
2015:.\Generated_Source\PSoC4/CyLib.c **** 
2016:.\Generated_Source\PSoC4/CyLib.c **** #if(CY_IP_SRSSV2)
2017:.\Generated_Source\PSoC4/CyLib.c **** 
2018:.\Generated_Source\PSoC4/CyLib.c ****     /*******************************************************************************
2019:.\Generated_Source\PSoC4/CyLib.c ****     * Function Name: CySysLvdEnable
2020:.\Generated_Source\PSoC4/CyLib.c ****     ********************************************************************************
2021:.\Generated_Source\PSoC4/CyLib.c ****     *
2022:.\Generated_Source\PSoC4/CyLib.c ****     * Summary:
2023:.\Generated_Source\PSoC4/CyLib.c ****     *  Enables the output of the low-voltage monitor when Vddd is at or below the
2024:.\Generated_Source\PSoC4/CyLib.c ****     *  trip point, configures the device to generate an interrupt, and sets the voltage
2025:.\Generated_Source\PSoC4/CyLib.c ****     *  trip level.
2026:.\Generated_Source\PSoC4/CyLib.c ****     *
2027:.\Generated_Source\PSoC4/CyLib.c ****     * Parameters:
2028:.\Generated_Source\PSoC4/CyLib.c ****     *  threshold: Threshold selection for Low Voltage Detect circuit.
2029:.\Generated_Source\PSoC4/CyLib.c ****     *  Threshold variation is +/- 2.5% from these typical voltage choices.
2030:.\Generated_Source\PSoC4/CyLib.c ****     *         Define                     Voltage threshold
2031:.\Generated_Source\PSoC4/CyLib.c ****     *    CY_LVD_THRESHOLD_1_75_V       1.7500 V
2032:.\Generated_Source\PSoC4/CyLib.c ****     *    CY_LVD_THRESHOLD_1_80_V       1.8000 V
2033:.\Generated_Source\PSoC4/CyLib.c ****     *    CY_LVD_THRESHOLD_1_90_V       1.9000 V
2034:.\Generated_Source\PSoC4/CyLib.c ****     *    CY_LVD_THRESHOLD_2_00_V       2.0000 V
2035:.\Generated_Source\PSoC4/CyLib.c ****     *    CY_LVD_THRESHOLD_2_10_V       2.1000 V
2036:.\Generated_Source\PSoC4/CyLib.c ****     *    CY_LVD_THRESHOLD_2_20_V       2.2000 V
2037:.\Generated_Source\PSoC4/CyLib.c ****     *    CY_LVD_THRESHOLD_2_30_V       2.3000 V
2038:.\Generated_Source\PSoC4/CyLib.c ****     *    CY_LVD_THRESHOLD_2_40_V       2.4000 V
2039:.\Generated_Source\PSoC4/CyLib.c ****     *    CY_LVD_THRESHOLD_2_50_V       2.5000 V
2040:.\Generated_Source\PSoC4/CyLib.c ****     *    CY_LVD_THRESHOLD_2_60_V       2.6000 V
2041:.\Generated_Source\PSoC4/CyLib.c ****     *    CY_LVD_THRESHOLD_2_70_V       2.7000 V
2042:.\Generated_Source\PSoC4/CyLib.c ****     *    CY_LVD_THRESHOLD_2_80_V       2.8000 V
2043:.\Generated_Source\PSoC4/CyLib.c ****     *    CY_LVD_THRESHOLD_2_90_V       2.9000 V
2044:.\Generated_Source\PSoC4/CyLib.c ****     *    CY_LVD_THRESHOLD_3_00_V       3.0000 V
2045:.\Generated_Source\PSoC4/CyLib.c ****     *    CY_LVD_THRESHOLD_3_20_V       3.2000 V
2046:.\Generated_Source\PSoC4/CyLib.c ****     *    CY_LVD_THRESHOLD_4_50_V       4.5000 V
2047:.\Generated_Source\PSoC4/CyLib.c ****     *
2048:.\Generated_Source\PSoC4/CyLib.c ****     * Return:
2049:.\Generated_Source\PSoC4/CyLib.c ****     *  None
2050:.\Generated_Source\PSoC4/CyLib.c ****     *
2051:.\Generated_Source\PSoC4/CyLib.c ****     *******************************************************************************/
2052:.\Generated_Source\PSoC4/CyLib.c ****     void CySysLvdEnable(uint32 threshold)
2053:.\Generated_Source\PSoC4/CyLib.c ****     {
 2139              		.loc 1 2053 0
 2140              		.cfi_startproc
 2141 0000 80B5     		push	{r7, lr}
 2142              		.cfi_def_cfa_offset 8
 2143              		.cfi_offset 7, -8
 2144              		.cfi_offset 14, -4
 2145 0002 82B0     		sub	sp, sp, #8
 2146              		.cfi_def_cfa_offset 16
 2147 0004 00AF     		add	r7, sp, #0
 2148              		.cfi_def_cfa_register 7
 2149 0006 7860     		str	r0, [r7, #4]
2054:.\Generated_Source\PSoC4/CyLib.c ****         /* Set threshold */
2055:.\Generated_Source\PSoC4/CyLib.c ****         CY_LVD_PWR_VMON_CONFIG_REG = (CY_LVD_PWR_VMON_CONFIG_REG & ~CY_LVD_PWR_VMON_CONFIG_LVD_SEL_
 2150              		.loc 1 2055 0
 2151 0008 0D4B     		ldr	r3, .L167
ARM GAS  C:\DOCUME~1\Owner\LOCALS~1\Temp\cc3gLjSb.s 			page 75


 2152 000a 0D4A     		ldr	r2, .L167
 2153 000c 1268     		ldr	r2, [r2]
 2154 000e 1E21     		mov	r1, #30
 2155 0010 101C     		mov	r0, r2
 2156 0012 8843     		bic	r0, r1
 2157 0014 011C     		mov	r1, r0
2056:.\Generated_Source\PSoC4/CyLib.c ****                 ((threshold << CY_LVD_PWR_VMON_CONFIG_LVD_SEL_SHIFT) & CY_LVD_PWR_VMON_CONFIG_LVD_S
 2158              		.loc 1 2056 0
 2159 0016 7A68     		ldr	r2, [r7, #4]
 2160 0018 5000     		lsl	r0, r2, #1
 2161 001a 1E22     		mov	r2, #30
 2162 001c 0240     		and	r2, r0
2055:.\Generated_Source\PSoC4/CyLib.c ****         CY_LVD_PWR_VMON_CONFIG_REG = (CY_LVD_PWR_VMON_CONFIG_REG & ~CY_LVD_PWR_VMON_CONFIG_LVD_SEL_
 2163              		.loc 1 2055 0
 2164 001e 0A43     		orr	r2, r1
 2165 0020 1A60     		str	r2, [r3]
2057:.\Generated_Source\PSoC4/CyLib.c **** 
2058:.\Generated_Source\PSoC4/CyLib.c ****         CY_LVD_PWR_VMON_CONFIG_REG |= CY_LVD_PWR_VMON_CONFIG_LVD_EN;
 2166              		.loc 1 2058 0
 2167 0022 074B     		ldr	r3, .L167
 2168 0024 064A     		ldr	r2, .L167
 2169 0026 1268     		ldr	r2, [r2]
 2170 0028 0121     		mov	r1, #1
 2171 002a 0A43     		orr	r2, r1
 2172 002c 1A60     		str	r2, [r3]
2059:.\Generated_Source\PSoC4/CyLib.c ****         CY_LVD_PWR_INTR_MASK_REG   |= CY_LVD_PROPAGATE_INT_TO_CPU;
 2173              		.loc 1 2059 0
 2174 002e 054B     		ldr	r3, .L167+4
 2175 0030 044A     		ldr	r2, .L167+4
 2176 0032 1268     		ldr	r2, [r2]
 2177 0034 0221     		mov	r1, #2
 2178 0036 0A43     		orr	r2, r1
 2179 0038 1A60     		str	r2, [r3]
2060:.\Generated_Source\PSoC4/CyLib.c ****     }
 2180              		.loc 1 2060 0
 2181 003a BD46     		mov	sp, r7
 2182 003c 02B0     		add	sp, sp, #8
 2183              		@ sp needed
 2184 003e 80BD     		pop	{r7, pc}
 2185              	.L168:
 2186              		.align	2
 2187              	.L167:
 2188 0040 18000B40 		.word	1074462744
 2189 0044 08000B40 		.word	1074462728
 2190              		.cfi_endproc
 2191              	.LFE30:
 2192              		.size	CySysLvdEnable, .-CySysLvdEnable
 2193              		.section	.text.CySysLvdDisable,"ax",%progbits
 2194              		.align	2
 2195              		.global	CySysLvdDisable
 2196              		.code	16
 2197              		.thumb_func
 2198              		.type	CySysLvdDisable, %function
 2199              	CySysLvdDisable:
 2200              	.LFB31:
2061:.\Generated_Source\PSoC4/CyLib.c **** 
2062:.\Generated_Source\PSoC4/CyLib.c **** 
ARM GAS  C:\DOCUME~1\Owner\LOCALS~1\Temp\cc3gLjSb.s 			page 76


2063:.\Generated_Source\PSoC4/CyLib.c ****     /*******************************************************************************
2064:.\Generated_Source\PSoC4/CyLib.c ****     * Function Name: CySysLvdDisable
2065:.\Generated_Source\PSoC4/CyLib.c ****     ********************************************************************************
2066:.\Generated_Source\PSoC4/CyLib.c ****     *
2067:.\Generated_Source\PSoC4/CyLib.c ****     * Summary:
2068:.\Generated_Source\PSoC4/CyLib.c ****     *  Disables the low voltage detection. A low voltage interrupt is disabled.
2069:.\Generated_Source\PSoC4/CyLib.c ****     *
2070:.\Generated_Source\PSoC4/CyLib.c ****     * Parameters:
2071:.\Generated_Source\PSoC4/CyLib.c ****     *  None
2072:.\Generated_Source\PSoC4/CyLib.c ****     *
2073:.\Generated_Source\PSoC4/CyLib.c ****     * Return:
2074:.\Generated_Source\PSoC4/CyLib.c ****     *  None
2075:.\Generated_Source\PSoC4/CyLib.c ****     *
2076:.\Generated_Source\PSoC4/CyLib.c ****     *******************************************************************************/
2077:.\Generated_Source\PSoC4/CyLib.c ****     void CySysLvdDisable(void)
2078:.\Generated_Source\PSoC4/CyLib.c ****     {
 2201              		.loc 1 2078 0
 2202              		.cfi_startproc
 2203 0000 80B5     		push	{r7, lr}
 2204              		.cfi_def_cfa_offset 8
 2205              		.cfi_offset 7, -8
 2206              		.cfi_offset 14, -4
 2207 0002 00AF     		add	r7, sp, #0
 2208              		.cfi_def_cfa_register 7
2079:.\Generated_Source\PSoC4/CyLib.c ****         CY_LVD_PWR_INTR_MASK_REG   &= ~CY_LVD_PROPAGATE_INT_TO_CPU;
 2209              		.loc 1 2079 0
 2210 0004 064B     		ldr	r3, .L170
 2211 0006 064A     		ldr	r2, .L170
 2212 0008 1268     		ldr	r2, [r2]
 2213 000a 0221     		mov	r1, #2
 2214 000c 8A43     		bic	r2, r1
 2215 000e 1A60     		str	r2, [r3]
2080:.\Generated_Source\PSoC4/CyLib.c ****         CY_LVD_PWR_VMON_CONFIG_REG &= ~CY_LVD_PWR_VMON_CONFIG_LVD_EN;
 2216              		.loc 1 2080 0
 2217 0010 044B     		ldr	r3, .L170+4
 2218 0012 044A     		ldr	r2, .L170+4
 2219 0014 1268     		ldr	r2, [r2]
 2220 0016 0121     		mov	r1, #1
 2221 0018 8A43     		bic	r2, r1
 2222 001a 1A60     		str	r2, [r3]
2081:.\Generated_Source\PSoC4/CyLib.c ****     }
 2223              		.loc 1 2081 0
 2224 001c BD46     		mov	sp, r7
 2225              		@ sp needed
 2226 001e 80BD     		pop	{r7, pc}
 2227              	.L171:
 2228              		.align	2
 2229              	.L170:
 2230 0020 08000B40 		.word	1074462728
 2231 0024 18000B40 		.word	1074462744
 2232              		.cfi_endproc
 2233              	.LFE31:
 2234              		.size	CySysLvdDisable, .-CySysLvdDisable
 2235              		.section	.text.CySysLvdGetInterruptSource,"ax",%progbits
 2236              		.align	2
 2237              		.global	CySysLvdGetInterruptSource
 2238              		.code	16
ARM GAS  C:\DOCUME~1\Owner\LOCALS~1\Temp\cc3gLjSb.s 			page 77


 2239              		.thumb_func
 2240              		.type	CySysLvdGetInterruptSource, %function
 2241              	CySysLvdGetInterruptSource:
 2242              	.LFB32:
2082:.\Generated_Source\PSoC4/CyLib.c **** 
2083:.\Generated_Source\PSoC4/CyLib.c **** 
2084:.\Generated_Source\PSoC4/CyLib.c ****     /*******************************************************************************
2085:.\Generated_Source\PSoC4/CyLib.c ****     * Function Name: CySysLvdGetInterruptSource
2086:.\Generated_Source\PSoC4/CyLib.c ****     ********************************************************************************
2087:.\Generated_Source\PSoC4/CyLib.c ****     *
2088:.\Generated_Source\PSoC4/CyLib.c ****     * Summary:
2089:.\Generated_Source\PSoC4/CyLib.c ****     *  Gets the low voltage detection interrupt status (without clearing).
2090:.\Generated_Source\PSoC4/CyLib.c ****     *
2091:.\Generated_Source\PSoC4/CyLib.c ****     * Parameters:
2092:.\Generated_Source\PSoC4/CyLib.c ****     *  None
2093:.\Generated_Source\PSoC4/CyLib.c ****     *
2094:.\Generated_Source\PSoC4/CyLib.c ****     * Return:
2095:.\Generated_Source\PSoC4/CyLib.c ****     *  Interrupt request value:
2096:.\Generated_Source\PSoC4/CyLib.c ****     *    CY_SYS_LVD_INT - Indicates an Low Voltage Detect interrupt
2097:.\Generated_Source\PSoC4/CyLib.c ****     *
2098:.\Generated_Source\PSoC4/CyLib.c ****     *******************************************************************************/
2099:.\Generated_Source\PSoC4/CyLib.c ****     uint32 CySysLvdGetInterruptSource(void)
2100:.\Generated_Source\PSoC4/CyLib.c ****     {
 2243              		.loc 1 2100 0
 2244              		.cfi_startproc
 2245 0000 80B5     		push	{r7, lr}
 2246              		.cfi_def_cfa_offset 8
 2247              		.cfi_offset 7, -8
 2248              		.cfi_offset 14, -4
 2249 0002 00AF     		add	r7, sp, #0
 2250              		.cfi_def_cfa_register 7
2101:.\Generated_Source\PSoC4/CyLib.c ****         return (CY_LVD_PWR_INTR_REG & CY_SYS_LVD_INT);
 2251              		.loc 1 2101 0
 2252 0004 034B     		ldr	r3, .L174
 2253 0006 1A68     		ldr	r2, [r3]
 2254 0008 0223     		mov	r3, #2
 2255 000a 1340     		and	r3, r2
2102:.\Generated_Source\PSoC4/CyLib.c ****     }
 2256              		.loc 1 2102 0
 2257 000c 181C     		mov	r0, r3
 2258 000e BD46     		mov	sp, r7
 2259              		@ sp needed
 2260 0010 80BD     		pop	{r7, pc}
 2261              	.L175:
 2262 0012 C046     		.align	2
 2263              	.L174:
 2264 0014 04000B40 		.word	1074462724
 2265              		.cfi_endproc
 2266              	.LFE32:
 2267              		.size	CySysLvdGetInterruptSource, .-CySysLvdGetInterruptSource
 2268              		.section	.text.CySysLvdClearInterrupt,"ax",%progbits
 2269              		.align	2
 2270              		.global	CySysLvdClearInterrupt
 2271              		.code	16
 2272              		.thumb_func
 2273              		.type	CySysLvdClearInterrupt, %function
 2274              	CySysLvdClearInterrupt:
ARM GAS  C:\DOCUME~1\Owner\LOCALS~1\Temp\cc3gLjSb.s 			page 78


 2275              	.LFB33:
2103:.\Generated_Source\PSoC4/CyLib.c **** 
2104:.\Generated_Source\PSoC4/CyLib.c **** 
2105:.\Generated_Source\PSoC4/CyLib.c ****     /*******************************************************************************
2106:.\Generated_Source\PSoC4/CyLib.c ****     * Function Name: CySysLvdClearInterrupt
2107:.\Generated_Source\PSoC4/CyLib.c ****     ********************************************************************************
2108:.\Generated_Source\PSoC4/CyLib.c ****     *
2109:.\Generated_Source\PSoC4/CyLib.c ****     * Summary:
2110:.\Generated_Source\PSoC4/CyLib.c ****     *  Clears the low voltage detection interrupt status.
2111:.\Generated_Source\PSoC4/CyLib.c ****     *
2112:.\Generated_Source\PSoC4/CyLib.c ****     * Parameters:
2113:.\Generated_Source\PSoC4/CyLib.c ****     *  None
2114:.\Generated_Source\PSoC4/CyLib.c ****     *
2115:.\Generated_Source\PSoC4/CyLib.c ****     * Return:
2116:.\Generated_Source\PSoC4/CyLib.c ****     *  None
2117:.\Generated_Source\PSoC4/CyLib.c ****     *
2118:.\Generated_Source\PSoC4/CyLib.c ****     *******************************************************************************/
2119:.\Generated_Source\PSoC4/CyLib.c ****     void CySysLvdClearInterrupt(void)
2120:.\Generated_Source\PSoC4/CyLib.c ****     {
 2276              		.loc 1 2120 0
 2277              		.cfi_startproc
 2278 0000 80B5     		push	{r7, lr}
 2279              		.cfi_def_cfa_offset 8
 2280              		.cfi_offset 7, -8
 2281              		.cfi_offset 14, -4
 2282 0002 00AF     		add	r7, sp, #0
 2283              		.cfi_def_cfa_register 7
2121:.\Generated_Source\PSoC4/CyLib.c ****         CY_LVD_PWR_INTR_REG = CY_SYS_LVD_INT;
 2284              		.loc 1 2121 0
 2285 0004 024B     		ldr	r3, .L177
 2286 0006 0222     		mov	r2, #2
 2287 0008 1A60     		str	r2, [r3]
2122:.\Generated_Source\PSoC4/CyLib.c ****     }
 2288              		.loc 1 2122 0
 2289 000a BD46     		mov	sp, r7
 2290              		@ sp needed
 2291 000c 80BD     		pop	{r7, pc}
 2292              	.L178:
 2293 000e C046     		.align	2
 2294              	.L177:
 2295 0010 04000B40 		.word	1074462724
 2296              		.cfi_endproc
 2297              	.LFE33:
 2298              		.size	CySysLvdClearInterrupt, .-CySysLvdClearInterrupt
 2299              		.section	.text.CySysGetResetReason,"ax",%progbits
 2300              		.align	2
 2301              		.global	CySysGetResetReason
 2302              		.code	16
 2303              		.thumb_func
 2304              		.type	CySysGetResetReason, %function
 2305              	CySysGetResetReason:
 2306              	.LFB34:
2123:.\Generated_Source\PSoC4/CyLib.c **** 
2124:.\Generated_Source\PSoC4/CyLib.c **** #endif /* (CY_IP_SRSSV2) */
2125:.\Generated_Source\PSoC4/CyLib.c **** 
2126:.\Generated_Source\PSoC4/CyLib.c **** 
2127:.\Generated_Source\PSoC4/CyLib.c **** /*******************************************************************************
ARM GAS  C:\DOCUME~1\Owner\LOCALS~1\Temp\cc3gLjSb.s 			page 79


2128:.\Generated_Source\PSoC4/CyLib.c **** * Function Name: CySysGetResetReason
2129:.\Generated_Source\PSoC4/CyLib.c **** ********************************************************************************
2130:.\Generated_Source\PSoC4/CyLib.c **** *
2131:.\Generated_Source\PSoC4/CyLib.c **** * Summary:
2132:.\Generated_Source\PSoC4/CyLib.c **** *  Reports the cause for the latest reset(s) that occurred in the system. All the
2133:.\Generated_Source\PSoC4/CyLib.c **** *  bits in the RES_CAUSE register assert when the corresponding reset cause
2134:.\Generated_Source\PSoC4/CyLib.c **** *  occurs and must be cleared by the firmware. These bits are cleared by the hardware
2135:.\Generated_Source\PSoC4/CyLib.c **** *  only during XRES, POR, or a detected brown-out.
2136:.\Generated_Source\PSoC4/CyLib.c **** *
2137:.\Generated_Source\PSoC4/CyLib.c **** * Parameters:
2138:.\Generated_Source\PSoC4/CyLib.c **** *  reason: bits in the RES_CAUSE register to clear.
2139:.\Generated_Source\PSoC4/CyLib.c **** *   CY_SYS_RESET_WDT       - WDT caused a reset
2140:.\Generated_Source\PSoC4/CyLib.c **** *   CY_SYS_RESET_PROTFAULT - A protection violation occurred that requires a RESET
2141:.\Generated_Source\PSoC4/CyLib.c **** *   CY_SYS_RESET_SW        - Cortex-M0 requested a system reset.
2142:.\Generated_Source\PSoC4/CyLib.c **** *
2143:.\Generated_Source\PSoC4/CyLib.c **** * Return:
2144:.\Generated_Source\PSoC4/CyLib.c **** *  Status. Same enumerated bit values as used for the reason parameter.
2145:.\Generated_Source\PSoC4/CyLib.c **** *
2146:.\Generated_Source\PSoC4/CyLib.c **** *******************************************************************************/
2147:.\Generated_Source\PSoC4/CyLib.c **** uint32 CySysGetResetReason(uint32 reason)
2148:.\Generated_Source\PSoC4/CyLib.c **** {
 2307              		.loc 1 2148 0
 2308              		.cfi_startproc
 2309 0000 80B5     		push	{r7, lr}
 2310              		.cfi_def_cfa_offset 8
 2311              		.cfi_offset 7, -8
 2312              		.cfi_offset 14, -4
 2313 0002 84B0     		sub	sp, sp, #16
 2314              		.cfi_def_cfa_offset 24
 2315 0004 00AF     		add	r7, sp, #0
 2316              		.cfi_def_cfa_register 7
 2317 0006 7860     		str	r0, [r7, #4]
2149:.\Generated_Source\PSoC4/CyLib.c ****     uint32 status;
2150:.\Generated_Source\PSoC4/CyLib.c **** 
2151:.\Generated_Source\PSoC4/CyLib.c ****     reason &= (CY_SYS_RESET_WDT | CY_SYS_RESET_PROTFAULT | CY_SYS_RESET_SW);
 2318              		.loc 1 2151 0
 2319 0008 7A68     		ldr	r2, [r7, #4]
 2320 000a 1923     		mov	r3, #25
 2321 000c 1340     		and	r3, r2
 2322 000e 7B60     		str	r3, [r7, #4]
2152:.\Generated_Source\PSoC4/CyLib.c ****     status = CY_SYS_RES_CAUSE_REG &
 2323              		.loc 1 2152 0
 2324 0010 064B     		ldr	r3, .L181
 2325 0012 1A68     		ldr	r2, [r3]
 2326 0014 1923     		mov	r3, #25
 2327 0016 1340     		and	r3, r2
 2328 0018 FB60     		str	r3, [r7, #12]
2153:.\Generated_Source\PSoC4/CyLib.c ****              (CY_SYS_RESET_WDT | CY_SYS_RESET_PROTFAULT | CY_SYS_RESET_SW);
2154:.\Generated_Source\PSoC4/CyLib.c ****     CY_SYS_RES_CAUSE_REG = reason;
 2329              		.loc 1 2154 0
 2330 001a 044B     		ldr	r3, .L181
 2331 001c 7A68     		ldr	r2, [r7, #4]
 2332 001e 1A60     		str	r2, [r3]
2155:.\Generated_Source\PSoC4/CyLib.c **** 
2156:.\Generated_Source\PSoC4/CyLib.c ****     return (status);
 2333              		.loc 1 2156 0
 2334 0020 FB68     		ldr	r3, [r7, #12]
ARM GAS  C:\DOCUME~1\Owner\LOCALS~1\Temp\cc3gLjSb.s 			page 80


2157:.\Generated_Source\PSoC4/CyLib.c **** }
 2335              		.loc 1 2157 0
 2336 0022 181C     		mov	r0, r3
 2337 0024 BD46     		mov	sp, r7
 2338 0026 04B0     		add	sp, sp, #16
 2339              		@ sp needed
 2340 0028 80BD     		pop	{r7, pc}
 2341              	.L182:
 2342 002a C046     		.align	2
 2343              	.L181:
 2344 002c 00030B40 		.word	1074463488
 2345              		.cfi_endproc
 2346              	.LFE34:
 2347              		.size	CySysGetResetReason, .-CySysGetResetReason
 2348              		.section	.text.CyDisableInts,"ax",%progbits
 2349              		.align	2
 2350              		.global	CyDisableInts
 2351              		.code	16
 2352              		.thumb_func
 2353              		.type	CyDisableInts, %function
 2354              	CyDisableInts:
 2355              	.LFB35:
2158:.\Generated_Source\PSoC4/CyLib.c **** 
2159:.\Generated_Source\PSoC4/CyLib.c **** 
2160:.\Generated_Source\PSoC4/CyLib.c **** /*******************************************************************************
2161:.\Generated_Source\PSoC4/CyLib.c **** * Function Name: CyDisableInts
2162:.\Generated_Source\PSoC4/CyLib.c **** ********************************************************************************
2163:.\Generated_Source\PSoC4/CyLib.c **** *
2164:.\Generated_Source\PSoC4/CyLib.c **** * Summary:
2165:.\Generated_Source\PSoC4/CyLib.c **** *  Disables all interrupts.
2166:.\Generated_Source\PSoC4/CyLib.c **** *
2167:.\Generated_Source\PSoC4/CyLib.c **** * Parameters:
2168:.\Generated_Source\PSoC4/CyLib.c **** *  None
2169:.\Generated_Source\PSoC4/CyLib.c **** *
2170:.\Generated_Source\PSoC4/CyLib.c **** * Return:
2171:.\Generated_Source\PSoC4/CyLib.c **** *  32 bit mask of previously enabled interrupts.
2172:.\Generated_Source\PSoC4/CyLib.c **** *
2173:.\Generated_Source\PSoC4/CyLib.c **** *******************************************************************************/
2174:.\Generated_Source\PSoC4/CyLib.c **** uint32 CyDisableInts(void)
2175:.\Generated_Source\PSoC4/CyLib.c **** {
 2356              		.loc 1 2175 0
 2357              		.cfi_startproc
 2358 0000 80B5     		push	{r7, lr}
 2359              		.cfi_def_cfa_offset 8
 2360              		.cfi_offset 7, -8
 2361              		.cfi_offset 14, -4
 2362 0002 82B0     		sub	sp, sp, #8
 2363              		.cfi_def_cfa_offset 16
 2364 0004 00AF     		add	r7, sp, #0
 2365              		.cfi_def_cfa_register 7
2176:.\Generated_Source\PSoC4/CyLib.c ****     uint32 intState;
2177:.\Generated_Source\PSoC4/CyLib.c **** 
2178:.\Generated_Source\PSoC4/CyLib.c ****     /* Get current interrupt state. */
2179:.\Generated_Source\PSoC4/CyLib.c ****     intState = CY_INT_CLEAR_REG;
 2366              		.loc 1 2179 0
 2367 0006 064B     		ldr	r3, .L185
 2368 0008 1B68     		ldr	r3, [r3]
ARM GAS  C:\DOCUME~1\Owner\LOCALS~1\Temp\cc3gLjSb.s 			page 81


 2369 000a 7B60     		str	r3, [r7, #4]
2180:.\Generated_Source\PSoC4/CyLib.c **** 
2181:.\Generated_Source\PSoC4/CyLib.c ****     /* Disable all interrupts. */
2182:.\Generated_Source\PSoC4/CyLib.c ****     CY_INT_CLEAR_REG = CY_INT_CLEAR_DISABLE_ALL;
 2370              		.loc 1 2182 0
 2371 000c 044B     		ldr	r3, .L185
 2372 000e 0122     		mov	r2, #1
 2373 0010 5242     		neg	r2, r2
 2374 0012 1A60     		str	r2, [r3]
2183:.\Generated_Source\PSoC4/CyLib.c **** 
2184:.\Generated_Source\PSoC4/CyLib.c ****     return (intState);
 2375              		.loc 1 2184 0
 2376 0014 7B68     		ldr	r3, [r7, #4]
2185:.\Generated_Source\PSoC4/CyLib.c **** }
 2377              		.loc 1 2185 0
 2378 0016 181C     		mov	r0, r3
 2379 0018 BD46     		mov	sp, r7
 2380 001a 02B0     		add	sp, sp, #8
 2381              		@ sp needed
 2382 001c 80BD     		pop	{r7, pc}
 2383              	.L186:
 2384 001e C046     		.align	2
 2385              	.L185:
 2386 0020 80E100E0 		.word	-536813184
 2387              		.cfi_endproc
 2388              	.LFE35:
 2389              		.size	CyDisableInts, .-CyDisableInts
 2390              		.section	.text.CyEnableInts,"ax",%progbits
 2391              		.align	2
 2392              		.global	CyEnableInts
 2393              		.code	16
 2394              		.thumb_func
 2395              		.type	CyEnableInts, %function
 2396              	CyEnableInts:
 2397              	.LFB36:
2186:.\Generated_Source\PSoC4/CyLib.c **** 
2187:.\Generated_Source\PSoC4/CyLib.c **** 
2188:.\Generated_Source\PSoC4/CyLib.c **** /*******************************************************************************
2189:.\Generated_Source\PSoC4/CyLib.c **** * Function Name: CyEnableInts
2190:.\Generated_Source\PSoC4/CyLib.c **** ********************************************************************************
2191:.\Generated_Source\PSoC4/CyLib.c **** *
2192:.\Generated_Source\PSoC4/CyLib.c **** * Summary:
2193:.\Generated_Source\PSoC4/CyLib.c **** *  Enables interrupts to a given state.
2194:.\Generated_Source\PSoC4/CyLib.c **** *
2195:.\Generated_Source\PSoC4/CyLib.c **** * Parameters:
2196:.\Generated_Source\PSoC4/CyLib.c **** *   mask, 32 bit mask of interrupts to enable.
2197:.\Generated_Source\PSoC4/CyLib.c **** *
2198:.\Generated_Source\PSoC4/CyLib.c **** * Return:
2199:.\Generated_Source\PSoC4/CyLib.c **** *  None
2200:.\Generated_Source\PSoC4/CyLib.c **** *
2201:.\Generated_Source\PSoC4/CyLib.c **** *******************************************************************************/
2202:.\Generated_Source\PSoC4/CyLib.c **** void CyEnableInts(uint32 mask)
2203:.\Generated_Source\PSoC4/CyLib.c **** {
 2398              		.loc 1 2203 0
 2399              		.cfi_startproc
 2400 0000 80B5     		push	{r7, lr}
 2401              		.cfi_def_cfa_offset 8
ARM GAS  C:\DOCUME~1\Owner\LOCALS~1\Temp\cc3gLjSb.s 			page 82


 2402              		.cfi_offset 7, -8
 2403              		.cfi_offset 14, -4
 2404 0002 82B0     		sub	sp, sp, #8
 2405              		.cfi_def_cfa_offset 16
 2406 0004 00AF     		add	r7, sp, #0
 2407              		.cfi_def_cfa_register 7
 2408 0006 7860     		str	r0, [r7, #4]
2204:.\Generated_Source\PSoC4/CyLib.c ****     CY_INT_ENABLE_REG = mask;
 2409              		.loc 1 2204 0
 2410 0008 024B     		ldr	r3, .L188
 2411 000a 7A68     		ldr	r2, [r7, #4]
 2412 000c 1A60     		str	r2, [r3]
2205:.\Generated_Source\PSoC4/CyLib.c **** }
 2413              		.loc 1 2205 0
 2414 000e BD46     		mov	sp, r7
 2415 0010 02B0     		add	sp, sp, #8
 2416              		@ sp needed
 2417 0012 80BD     		pop	{r7, pc}
 2418              	.L189:
 2419              		.align	2
 2420              	.L188:
 2421 0014 00E100E0 		.word	-536813312
 2422              		.cfi_endproc
 2423              	.LFE36:
 2424              		.size	CyEnableInts, .-CyEnableInts
 2425              		.section	.text.CyIntSetSysVector,"ax",%progbits
 2426              		.align	2
 2427              		.global	CyIntSetSysVector
 2428              		.code	16
 2429              		.thumb_func
 2430              		.type	CyIntSetSysVector, %function
 2431              	CyIntSetSysVector:
 2432              	.LFB37:
2206:.\Generated_Source\PSoC4/CyLib.c **** 
2207:.\Generated_Source\PSoC4/CyLib.c **** 
2208:.\Generated_Source\PSoC4/CyLib.c **** /*******************************************************************************
2209:.\Generated_Source\PSoC4/CyLib.c **** * Function Name: CyIntSetSysVector
2210:.\Generated_Source\PSoC4/CyLib.c **** ********************************************************************************
2211:.\Generated_Source\PSoC4/CyLib.c **** *
2212:.\Generated_Source\PSoC4/CyLib.c **** * Summary:
2213:.\Generated_Source\PSoC4/CyLib.c **** *  Sets the interrupt vector of the specified system interrupt number. These
2214:.\Generated_Source\PSoC4/CyLib.c **** *  interrupts are for SysTick, PendSV and others.
2215:.\Generated_Source\PSoC4/CyLib.c **** *
2216:.\Generated_Source\PSoC4/CyLib.c **** * Parameters:
2217:.\Generated_Source\PSoC4/CyLib.c **** *  number: System interrupt number:
2218:.\Generated_Source\PSoC4/CyLib.c **** *    CY_INT_NMI_IRQN        - Non Maskable Interrupt
2219:.\Generated_Source\PSoC4/CyLib.c **** *    CY_INT_HARD_FAULT_IRQN - Hard Fault Interrupt
2220:.\Generated_Source\PSoC4/CyLib.c **** *    CY_INT_SVCALL_IRQN     - SV Call Interrupt
2221:.\Generated_Source\PSoC4/CyLib.c **** *    CY_INT_PEND_SV_IRQN    - Pend SV Interrupt
2222:.\Generated_Source\PSoC4/CyLib.c **** *    CY_INT_SYSTICK_IRQN    - System Tick Interrupt
2223:.\Generated_Source\PSoC4/CyLib.c **** *
2224:.\Generated_Source\PSoC4/CyLib.c **** *  address: Pointer to an interrupt service routine.
2225:.\Generated_Source\PSoC4/CyLib.c **** *
2226:.\Generated_Source\PSoC4/CyLib.c **** * Return:
2227:.\Generated_Source\PSoC4/CyLib.c **** *  The old ISR vector at this location.
2228:.\Generated_Source\PSoC4/CyLib.c **** *
2229:.\Generated_Source\PSoC4/CyLib.c **** *******************************************************************************/
ARM GAS  C:\DOCUME~1\Owner\LOCALS~1\Temp\cc3gLjSb.s 			page 83


2230:.\Generated_Source\PSoC4/CyLib.c **** cyisraddress CyIntSetSysVector(uint8 number, cyisraddress address)
2231:.\Generated_Source\PSoC4/CyLib.c **** {
 2433              		.loc 1 2231 0
 2434              		.cfi_startproc
 2435 0000 80B5     		push	{r7, lr}
 2436              		.cfi_def_cfa_offset 8
 2437              		.cfi_offset 7, -8
 2438              		.cfi_offset 14, -4
 2439 0002 84B0     		sub	sp, sp, #16
 2440              		.cfi_def_cfa_offset 24
 2441 0004 00AF     		add	r7, sp, #0
 2442              		.cfi_def_cfa_register 7
 2443 0006 021C     		mov	r2, r0
 2444 0008 3960     		str	r1, [r7]
 2445 000a FB1D     		add	r3, r7, #7
 2446 000c 1A70     		strb	r2, [r3]
2232:.\Generated_Source\PSoC4/CyLib.c ****     cyisraddress oldIsr;
2233:.\Generated_Source\PSoC4/CyLib.c ****     cyisraddress *ramVectorTable = (cyisraddress *) CY_INT_VECT_TABLE;
 2447              		.loc 1 2233 0
 2448 000e 8023     		mov	r3, #128
 2449 0010 9B05     		lsl	r3, r3, #22
 2450 0012 FB60     		str	r3, [r7, #12]
2234:.\Generated_Source\PSoC4/CyLib.c **** 
2235:.\Generated_Source\PSoC4/CyLib.c ****     CYASSERT(number < CY_INT_IRQ_BASE);
 2451              		.loc 1 2235 0
 2452 0014 FB1D     		add	r3, r7, #7
 2453 0016 1B78     		ldrb	r3, [r3]
 2454 0018 0F2B     		cmp	r3, #15
 2455 001a 02D9     		bls	.L191
 2456              		.loc 1 2235 0 is_stmt 0 discriminator 1
 2457 001c 0020     		mov	r0, #0
 2458 001e FFF7FEFF 		bl	CyHalt
 2459              	.L191:
2236:.\Generated_Source\PSoC4/CyLib.c **** 
2237:.\Generated_Source\PSoC4/CyLib.c ****     /* Save old Interrupt service routine. */
2238:.\Generated_Source\PSoC4/CyLib.c ****     oldIsr = ramVectorTable[number];
 2460              		.loc 1 2238 0 is_stmt 1
 2461 0022 FB1D     		add	r3, r7, #7
 2462 0024 1B78     		ldrb	r3, [r3]
 2463 0026 9B00     		lsl	r3, r3, #2
 2464 0028 FA68     		ldr	r2, [r7, #12]
 2465 002a D318     		add	r3, r2, r3
 2466 002c 1B68     		ldr	r3, [r3]
 2467 002e BB60     		str	r3, [r7, #8]
2239:.\Generated_Source\PSoC4/CyLib.c **** 
2240:.\Generated_Source\PSoC4/CyLib.c ****     /* Set new Interrupt service routine. */
2241:.\Generated_Source\PSoC4/CyLib.c ****     ramVectorTable[number] = address;
 2468              		.loc 1 2241 0
 2469 0030 FB1D     		add	r3, r7, #7
 2470 0032 1B78     		ldrb	r3, [r3]
 2471 0034 9B00     		lsl	r3, r3, #2
 2472 0036 FA68     		ldr	r2, [r7, #12]
 2473 0038 D318     		add	r3, r2, r3
 2474 003a 3A68     		ldr	r2, [r7]
 2475 003c 1A60     		str	r2, [r3]
2242:.\Generated_Source\PSoC4/CyLib.c **** 
2243:.\Generated_Source\PSoC4/CyLib.c ****     return(oldIsr);
ARM GAS  C:\DOCUME~1\Owner\LOCALS~1\Temp\cc3gLjSb.s 			page 84


 2476              		.loc 1 2243 0
 2477 003e BB68     		ldr	r3, [r7, #8]
2244:.\Generated_Source\PSoC4/CyLib.c **** }
 2478              		.loc 1 2244 0
 2479 0040 181C     		mov	r0, r3
 2480 0042 BD46     		mov	sp, r7
 2481 0044 04B0     		add	sp, sp, #16
 2482              		@ sp needed
 2483 0046 80BD     		pop	{r7, pc}
 2484              		.cfi_endproc
 2485              	.LFE37:
 2486              		.size	CyIntSetSysVector, .-CyIntSetSysVector
 2487              		.section	.text.CyIntGetSysVector,"ax",%progbits
 2488              		.align	2
 2489              		.global	CyIntGetSysVector
 2490              		.code	16
 2491              		.thumb_func
 2492              		.type	CyIntGetSysVector, %function
 2493              	CyIntGetSysVector:
 2494              	.LFB38:
2245:.\Generated_Source\PSoC4/CyLib.c **** 
2246:.\Generated_Source\PSoC4/CyLib.c **** 
2247:.\Generated_Source\PSoC4/CyLib.c **** /*******************************************************************************
2248:.\Generated_Source\PSoC4/CyLib.c **** * Function Name: CyIntGetSysVector
2249:.\Generated_Source\PSoC4/CyLib.c **** ********************************************************************************
2250:.\Generated_Source\PSoC4/CyLib.c **** *
2251:.\Generated_Source\PSoC4/CyLib.c **** * Summary:
2252:.\Generated_Source\PSoC4/CyLib.c **** *   Gets the interrupt vector of the specified system interrupt number. These
2253:.\Generated_Source\PSoC4/CyLib.c **** *   interrupts are for SysTick, PendSV and others.
2254:.\Generated_Source\PSoC4/CyLib.c **** *
2255:.\Generated_Source\PSoC4/CyLib.c **** * Parameters:
2256:.\Generated_Source\PSoC4/CyLib.c **** *  number: System interrupt number:
2257:.\Generated_Source\PSoC4/CyLib.c **** *    CY_INT_NMI_IRQN        - Non Maskable Interrupt
2258:.\Generated_Source\PSoC4/CyLib.c **** *    CY_INT_HARD_FAULT_IRQN - Hard Fault Interrupt
2259:.\Generated_Source\PSoC4/CyLib.c **** *    CY_INT_SVCALL_IRQN     - SV Call Interrupt
2260:.\Generated_Source\PSoC4/CyLib.c **** *    CY_INT_PEND_SV_IRQN    - Pend SV Interrupt
2261:.\Generated_Source\PSoC4/CyLib.c **** *    CY_INT_SYSTICK_IRQN    - System Tick Interrupt
2262:.\Generated_Source\PSoC4/CyLib.c **** *
2263:.\Generated_Source\PSoC4/CyLib.c **** * Return:
2264:.\Generated_Source\PSoC4/CyLib.c **** *   Address of the ISR in the interrupt vector table.
2265:.\Generated_Source\PSoC4/CyLib.c **** *
2266:.\Generated_Source\PSoC4/CyLib.c **** *******************************************************************************/
2267:.\Generated_Source\PSoC4/CyLib.c **** cyisraddress CyIntGetSysVector(uint8 number)
2268:.\Generated_Source\PSoC4/CyLib.c **** {
 2495              		.loc 1 2268 0
 2496              		.cfi_startproc
 2497 0000 80B5     		push	{r7, lr}
 2498              		.cfi_def_cfa_offset 8
 2499              		.cfi_offset 7, -8
 2500              		.cfi_offset 14, -4
 2501 0002 84B0     		sub	sp, sp, #16
 2502              		.cfi_def_cfa_offset 24
 2503 0004 00AF     		add	r7, sp, #0
 2504              		.cfi_def_cfa_register 7
 2505 0006 021C     		mov	r2, r0
 2506 0008 FB1D     		add	r3, r7, #7
 2507 000a 1A70     		strb	r2, [r3]
ARM GAS  C:\DOCUME~1\Owner\LOCALS~1\Temp\cc3gLjSb.s 			page 85


2269:.\Generated_Source\PSoC4/CyLib.c ****     cyisraddress *ramVectorTable = (cyisraddress *) CY_INT_VECT_TABLE;
 2508              		.loc 1 2269 0
 2509 000c 8023     		mov	r3, #128
 2510 000e 9B05     		lsl	r3, r3, #22
 2511 0010 FB60     		str	r3, [r7, #12]
2270:.\Generated_Source\PSoC4/CyLib.c **** 
2271:.\Generated_Source\PSoC4/CyLib.c ****     CYASSERT(number < CY_INT_IRQ_BASE);
 2512              		.loc 1 2271 0
 2513 0012 FB1D     		add	r3, r7, #7
 2514 0014 1B78     		ldrb	r3, [r3]
 2515 0016 0F2B     		cmp	r3, #15
 2516 0018 02D9     		bls	.L194
 2517              		.loc 1 2271 0 is_stmt 0 discriminator 1
 2518 001a 0020     		mov	r0, #0
 2519 001c FFF7FEFF 		bl	CyHalt
 2520              	.L194:
2272:.\Generated_Source\PSoC4/CyLib.c **** 
2273:.\Generated_Source\PSoC4/CyLib.c ****     return(ramVectorTable[number]);
 2521              		.loc 1 2273 0 is_stmt 1
 2522 0020 FB1D     		add	r3, r7, #7
 2523 0022 1B78     		ldrb	r3, [r3]
 2524 0024 9B00     		lsl	r3, r3, #2
 2525 0026 FA68     		ldr	r2, [r7, #12]
 2526 0028 D318     		add	r3, r2, r3
 2527 002a 1B68     		ldr	r3, [r3]
2274:.\Generated_Source\PSoC4/CyLib.c **** }
 2528              		.loc 1 2274 0
 2529 002c 181C     		mov	r0, r3
 2530 002e BD46     		mov	sp, r7
 2531 0030 04B0     		add	sp, sp, #16
 2532              		@ sp needed
 2533 0032 80BD     		pop	{r7, pc}
 2534              		.cfi_endproc
 2535              	.LFE38:
 2536              		.size	CyIntGetSysVector, .-CyIntGetSysVector
 2537              		.section	.text.CyIntSetVector,"ax",%progbits
 2538              		.align	2
 2539              		.global	CyIntSetVector
 2540              		.code	16
 2541              		.thumb_func
 2542              		.type	CyIntSetVector, %function
 2543              	CyIntSetVector:
 2544              	.LFB39:
2275:.\Generated_Source\PSoC4/CyLib.c **** 
2276:.\Generated_Source\PSoC4/CyLib.c **** 
2277:.\Generated_Source\PSoC4/CyLib.c **** /*******************************************************************************
2278:.\Generated_Source\PSoC4/CyLib.c **** * Function Name: CyIntSetVector
2279:.\Generated_Source\PSoC4/CyLib.c **** ********************************************************************************
2280:.\Generated_Source\PSoC4/CyLib.c **** *
2281:.\Generated_Source\PSoC4/CyLib.c **** * Summary:
2282:.\Generated_Source\PSoC4/CyLib.c **** *  Sets the interrupt vector of the specified interrupt number.
2283:.\Generated_Source\PSoC4/CyLib.c **** *
2284:.\Generated_Source\PSoC4/CyLib.c **** * Parameters:
2285:.\Generated_Source\PSoC4/CyLib.c **** *  number: Valid range [0-31].  Interrupt number
2286:.\Generated_Source\PSoC4/CyLib.c **** *  address: Pointer to an interrupt service routine
2287:.\Generated_Source\PSoC4/CyLib.c **** *
2288:.\Generated_Source\PSoC4/CyLib.c **** * Return:
ARM GAS  C:\DOCUME~1\Owner\LOCALS~1\Temp\cc3gLjSb.s 			page 86


2289:.\Generated_Source\PSoC4/CyLib.c **** *   Previous interrupt vector value.
2290:.\Generated_Source\PSoC4/CyLib.c **** *
2291:.\Generated_Source\PSoC4/CyLib.c **** *******************************************************************************/
2292:.\Generated_Source\PSoC4/CyLib.c **** cyisraddress CyIntSetVector(uint8 number, cyisraddress address)
2293:.\Generated_Source\PSoC4/CyLib.c **** {
 2545              		.loc 1 2293 0
 2546              		.cfi_startproc
 2547 0000 80B5     		push	{r7, lr}
 2548              		.cfi_def_cfa_offset 8
 2549              		.cfi_offset 7, -8
 2550              		.cfi_offset 14, -4
 2551 0002 84B0     		sub	sp, sp, #16
 2552              		.cfi_def_cfa_offset 24
 2553 0004 00AF     		add	r7, sp, #0
 2554              		.cfi_def_cfa_register 7
 2555 0006 021C     		mov	r2, r0
 2556 0008 3960     		str	r1, [r7]
 2557 000a FB1D     		add	r3, r7, #7
 2558 000c 1A70     		strb	r2, [r3]
2294:.\Generated_Source\PSoC4/CyLib.c ****     cyisraddress oldIsr;
2295:.\Generated_Source\PSoC4/CyLib.c ****     cyisraddress *ramVectorTable = (cyisraddress *) CY_INT_VECT_TABLE;
 2559              		.loc 1 2295 0
 2560 000e 8023     		mov	r3, #128
 2561 0010 9B05     		lsl	r3, r3, #22
 2562 0012 FB60     		str	r3, [r7, #12]
2296:.\Generated_Source\PSoC4/CyLib.c **** 
2297:.\Generated_Source\PSoC4/CyLib.c ****     CYASSERT(number < CY_NUM_INTERRUPTS);
 2563              		.loc 1 2297 0
 2564 0014 FB1D     		add	r3, r7, #7
 2565 0016 1B78     		ldrb	r3, [r3]
 2566 0018 1F2B     		cmp	r3, #31
 2567 001a 02D9     		bls	.L197
 2568              		.loc 1 2297 0 is_stmt 0 discriminator 1
 2569 001c 0020     		mov	r0, #0
 2570 001e FFF7FEFF 		bl	CyHalt
 2571              	.L197:
2298:.\Generated_Source\PSoC4/CyLib.c **** 
2299:.\Generated_Source\PSoC4/CyLib.c ****     /* Save old Interrupt service routine. */
2300:.\Generated_Source\PSoC4/CyLib.c ****     oldIsr = ramVectorTable[CY_INT_IRQ_BASE + number];
 2572              		.loc 1 2300 0 is_stmt 1
 2573 0022 FB1D     		add	r3, r7, #7
 2574 0024 1B78     		ldrb	r3, [r3]
 2575 0026 1033     		add	r3, r3, #16
 2576 0028 9B00     		lsl	r3, r3, #2
 2577 002a FA68     		ldr	r2, [r7, #12]
 2578 002c D318     		add	r3, r2, r3
 2579 002e 1B68     		ldr	r3, [r3]
 2580 0030 BB60     		str	r3, [r7, #8]
2301:.\Generated_Source\PSoC4/CyLib.c **** 
2302:.\Generated_Source\PSoC4/CyLib.c ****     /* Set new Interrupt service routine. */
2303:.\Generated_Source\PSoC4/CyLib.c ****     ramVectorTable[CY_INT_IRQ_BASE + number] = address;
 2581              		.loc 1 2303 0
 2582 0032 FB1D     		add	r3, r7, #7
 2583 0034 1B78     		ldrb	r3, [r3]
 2584 0036 1033     		add	r3, r3, #16
 2585 0038 9B00     		lsl	r3, r3, #2
 2586 003a FA68     		ldr	r2, [r7, #12]
ARM GAS  C:\DOCUME~1\Owner\LOCALS~1\Temp\cc3gLjSb.s 			page 87


 2587 003c D318     		add	r3, r2, r3
 2588 003e 3A68     		ldr	r2, [r7]
 2589 0040 1A60     		str	r2, [r3]
2304:.\Generated_Source\PSoC4/CyLib.c **** 
2305:.\Generated_Source\PSoC4/CyLib.c ****     return(oldIsr);
 2590              		.loc 1 2305 0
 2591 0042 BB68     		ldr	r3, [r7, #8]
2306:.\Generated_Source\PSoC4/CyLib.c **** }
 2592              		.loc 1 2306 0
 2593 0044 181C     		mov	r0, r3
 2594 0046 BD46     		mov	sp, r7
 2595 0048 04B0     		add	sp, sp, #16
 2596              		@ sp needed
 2597 004a 80BD     		pop	{r7, pc}
 2598              		.cfi_endproc
 2599              	.LFE39:
 2600              		.size	CyIntSetVector, .-CyIntSetVector
 2601              		.section	.text.CyIntGetVector,"ax",%progbits
 2602              		.align	2
 2603              		.global	CyIntGetVector
 2604              		.code	16
 2605              		.thumb_func
 2606              		.type	CyIntGetVector, %function
 2607              	CyIntGetVector:
 2608              	.LFB40:
2307:.\Generated_Source\PSoC4/CyLib.c **** 
2308:.\Generated_Source\PSoC4/CyLib.c **** 
2309:.\Generated_Source\PSoC4/CyLib.c **** /*******************************************************************************
2310:.\Generated_Source\PSoC4/CyLib.c **** * Function Name: CyIntGetVector
2311:.\Generated_Source\PSoC4/CyLib.c **** ********************************************************************************
2312:.\Generated_Source\PSoC4/CyLib.c **** *
2313:.\Generated_Source\PSoC4/CyLib.c **** * Summary:
2314:.\Generated_Source\PSoC4/CyLib.c **** *  Gets the interrupt vector of the specified interrupt number.
2315:.\Generated_Source\PSoC4/CyLib.c **** *
2316:.\Generated_Source\PSoC4/CyLib.c **** * Parameters:
2317:.\Generated_Source\PSoC4/CyLib.c **** *  number: Valid range [0-31].  Interrupt number
2318:.\Generated_Source\PSoC4/CyLib.c **** *
2319:.\Generated_Source\PSoC4/CyLib.c **** * Return:
2320:.\Generated_Source\PSoC4/CyLib.c **** *  Address of the ISR in the interrupt vector table.
2321:.\Generated_Source\PSoC4/CyLib.c **** *
2322:.\Generated_Source\PSoC4/CyLib.c **** *******************************************************************************/
2323:.\Generated_Source\PSoC4/CyLib.c **** cyisraddress CyIntGetVector(uint8 number)
2324:.\Generated_Source\PSoC4/CyLib.c **** {
 2609              		.loc 1 2324 0
 2610              		.cfi_startproc
 2611 0000 80B5     		push	{r7, lr}
 2612              		.cfi_def_cfa_offset 8
 2613              		.cfi_offset 7, -8
 2614              		.cfi_offset 14, -4
 2615 0002 84B0     		sub	sp, sp, #16
 2616              		.cfi_def_cfa_offset 24
 2617 0004 00AF     		add	r7, sp, #0
 2618              		.cfi_def_cfa_register 7
 2619 0006 021C     		mov	r2, r0
 2620 0008 FB1D     		add	r3, r7, #7
 2621 000a 1A70     		strb	r2, [r3]
2325:.\Generated_Source\PSoC4/CyLib.c ****     cyisraddress *ramVectorTable = (cyisraddress *) CY_INT_VECT_TABLE;
ARM GAS  C:\DOCUME~1\Owner\LOCALS~1\Temp\cc3gLjSb.s 			page 88


 2622              		.loc 1 2325 0
 2623 000c 8023     		mov	r3, #128
 2624 000e 9B05     		lsl	r3, r3, #22
 2625 0010 FB60     		str	r3, [r7, #12]
2326:.\Generated_Source\PSoC4/CyLib.c **** 
2327:.\Generated_Source\PSoC4/CyLib.c ****     CYASSERT(number < CY_NUM_INTERRUPTS);
 2626              		.loc 1 2327 0
 2627 0012 FB1D     		add	r3, r7, #7
 2628 0014 1B78     		ldrb	r3, [r3]
 2629 0016 1F2B     		cmp	r3, #31
 2630 0018 02D9     		bls	.L200
 2631              		.loc 1 2327 0 is_stmt 0 discriminator 1
 2632 001a 0020     		mov	r0, #0
 2633 001c FFF7FEFF 		bl	CyHalt
 2634              	.L200:
2328:.\Generated_Source\PSoC4/CyLib.c **** 
2329:.\Generated_Source\PSoC4/CyLib.c ****     return (ramVectorTable[CY_INT_IRQ_BASE + number]);
 2635              		.loc 1 2329 0 is_stmt 1
 2636 0020 FB1D     		add	r3, r7, #7
 2637 0022 1B78     		ldrb	r3, [r3]
 2638 0024 1033     		add	r3, r3, #16
 2639 0026 9B00     		lsl	r3, r3, #2
 2640 0028 FA68     		ldr	r2, [r7, #12]
 2641 002a D318     		add	r3, r2, r3
 2642 002c 1B68     		ldr	r3, [r3]
2330:.\Generated_Source\PSoC4/CyLib.c **** }
 2643              		.loc 1 2330 0
 2644 002e 181C     		mov	r0, r3
 2645 0030 BD46     		mov	sp, r7
 2646 0032 04B0     		add	sp, sp, #16
 2647              		@ sp needed
 2648 0034 80BD     		pop	{r7, pc}
 2649              		.cfi_endproc
 2650              	.LFE40:
 2651              		.size	CyIntGetVector, .-CyIntGetVector
 2652              		.section	.text.CyIntSetPriority,"ax",%progbits
 2653              		.align	2
 2654              		.global	CyIntSetPriority
 2655              		.code	16
 2656              		.thumb_func
 2657              		.type	CyIntSetPriority, %function
 2658              	CyIntSetPriority:
 2659              	.LFB41:
2331:.\Generated_Source\PSoC4/CyLib.c **** 
2332:.\Generated_Source\PSoC4/CyLib.c **** /*******************************************************************************
2333:.\Generated_Source\PSoC4/CyLib.c **** * Function Name: CyIntSetPriority
2334:.\Generated_Source\PSoC4/CyLib.c **** ********************************************************************************
2335:.\Generated_Source\PSoC4/CyLib.c **** *
2336:.\Generated_Source\PSoC4/CyLib.c **** * Summary:
2337:.\Generated_Source\PSoC4/CyLib.c **** *  Sets the priority of the interrupt.
2338:.\Generated_Source\PSoC4/CyLib.c **** *
2339:.\Generated_Source\PSoC4/CyLib.c **** * Parameters:
2340:.\Generated_Source\PSoC4/CyLib.c **** *  priority: Priority of the interrupt. 0 - 3, 0 being the highest.
2341:.\Generated_Source\PSoC4/CyLib.c **** *  number: The number of the interrupt, 0 - 31.
2342:.\Generated_Source\PSoC4/CyLib.c **** *
2343:.\Generated_Source\PSoC4/CyLib.c **** * Return:
2344:.\Generated_Source\PSoC4/CyLib.c **** *  None
ARM GAS  C:\DOCUME~1\Owner\LOCALS~1\Temp\cc3gLjSb.s 			page 89


2345:.\Generated_Source\PSoC4/CyLib.c **** *
2346:.\Generated_Source\PSoC4/CyLib.c **** *******************************************************************************/
2347:.\Generated_Source\PSoC4/CyLib.c **** void CyIntSetPriority(uint8 number, uint8 priority)
2348:.\Generated_Source\PSoC4/CyLib.c **** {
 2660              		.loc 1 2348 0
 2661              		.cfi_startproc
 2662 0000 90B5     		push	{r4, r7, lr}
 2663              		.cfi_def_cfa_offset 12
 2664              		.cfi_offset 4, -12
 2665              		.cfi_offset 7, -8
 2666              		.cfi_offset 14, -4
 2667 0002 87B0     		sub	sp, sp, #28
 2668              		.cfi_def_cfa_offset 40
 2669 0004 00AF     		add	r7, sp, #0
 2670              		.cfi_def_cfa_register 7
 2671 0006 0A1C     		mov	r2, r1
 2672 0008 FB1D     		add	r3, r7, #7
 2673 000a 011C     		add	r1, r0, #0
 2674 000c 1970     		strb	r1, [r3]
 2675 000e BB1D     		add	r3, r7, #6
 2676 0010 1A70     		strb	r2, [r3]
2349:.\Generated_Source\PSoC4/CyLib.c ****     uint8 interruptState;
2350:.\Generated_Source\PSoC4/CyLib.c ****     uint32 shift;
2351:.\Generated_Source\PSoC4/CyLib.c ****     uint32 value;
2352:.\Generated_Source\PSoC4/CyLib.c **** 
2353:.\Generated_Source\PSoC4/CyLib.c ****     CYASSERT(priority <= CY_MIN_PRIORITY);
 2677              		.loc 1 2353 0
 2678 0012 BB1D     		add	r3, r7, #6
 2679 0014 1B78     		ldrb	r3, [r3]
 2680 0016 032B     		cmp	r3, #3
 2681 0018 02D9     		bls	.L203
 2682              		.loc 1 2353 0 is_stmt 0 discriminator 1
 2683 001a 0020     		mov	r0, #0
 2684 001c FFF7FEFF 		bl	CyHalt
 2685              	.L203:
2354:.\Generated_Source\PSoC4/CyLib.c ****     CYASSERT(number < CY_NUM_INTERRUPTS);
 2686              		.loc 1 2354 0 is_stmt 1
 2687 0020 FB1D     		add	r3, r7, #7
 2688 0022 1B78     		ldrb	r3, [r3]
 2689 0024 1F2B     		cmp	r3, #31
 2690 0026 02D9     		bls	.L204
 2691              		.loc 1 2354 0 is_stmt 0 discriminator 1
 2692 0028 0020     		mov	r0, #0
 2693 002a FFF7FEFF 		bl	CyHalt
 2694              	.L204:
2355:.\Generated_Source\PSoC4/CyLib.c **** 
2356:.\Generated_Source\PSoC4/CyLib.c ****     shift = CY_INT_PRIORITY_SHIFT(number);
 2695              		.loc 1 2356 0 is_stmt 1
 2696 002e FB1D     		add	r3, r7, #7
 2697 0030 1A78     		ldrb	r2, [r3]
 2698 0032 0323     		mov	r3, #3
 2699 0034 1340     		and	r3, r2
 2700 0036 DB00     		lsl	r3, r3, #3
 2701 0038 0633     		add	r3, r3, #6
 2702 003a 7B61     		str	r3, [r7, #20]
2357:.\Generated_Source\PSoC4/CyLib.c **** 
2358:.\Generated_Source\PSoC4/CyLib.c ****     interruptState = CyEnterCriticalSection();
ARM GAS  C:\DOCUME~1\Owner\LOCALS~1\Temp\cc3gLjSb.s 			page 90


 2703              		.loc 1 2358 0
 2704 003c 3C1C     		mov	r4, r7
 2705 003e 1334     		add	r4, r4, #19
 2706 0040 FFF7FEFF 		bl	CyEnterCriticalSection
 2707 0044 031C     		mov	r3, r0
 2708 0046 2370     		strb	r3, [r4]
2359:.\Generated_Source\PSoC4/CyLib.c **** 
2360:.\Generated_Source\PSoC4/CyLib.c ****     value = CY_INT_PRIORITY_REG(number);
 2709              		.loc 1 2360 0
 2710 0048 FB1D     		add	r3, r7, #7
 2711 004a 1B78     		ldrb	r3, [r3]
 2712 004c 9B08     		lsr	r3, r3, #2
 2713 004e DBB2     		uxtb	r3, r3
 2714 0050 9B00     		lsl	r3, r3, #2
 2715 0052 1449     		ldr	r1, .L205
 2716 0054 5B18     		add	r3, r3, r1
 2717 0056 1B68     		ldr	r3, [r3]
 2718 0058 FB60     		str	r3, [r7, #12]
2361:.\Generated_Source\PSoC4/CyLib.c ****     value &= (uint32)(~((uint32)(CY_INT_PRIORITY_MASK << shift)));
 2719              		.loc 1 2361 0
 2720 005a 7B69     		ldr	r3, [r7, #20]
 2721 005c 0322     		mov	r2, #3
 2722 005e 111C     		mov	r1, r2
 2723 0060 9940     		lsl	r1, r1, r3
 2724 0062 0B1C     		mov	r3, r1
 2725 0064 DA43     		mvn	r2, r3
 2726 0066 FB68     		ldr	r3, [r7, #12]
 2727 0068 1340     		and	r3, r2
 2728 006a FB60     		str	r3, [r7, #12]
2362:.\Generated_Source\PSoC4/CyLib.c ****     value |= ((uint32)priority << shift);
 2729              		.loc 1 2362 0
 2730 006c BB1D     		add	r3, r7, #6
 2731 006e 1A78     		ldrb	r2, [r3]
 2732 0070 7B69     		ldr	r3, [r7, #20]
 2733 0072 111C     		mov	r1, r2
 2734 0074 9940     		lsl	r1, r1, r3
 2735 0076 0B1C     		mov	r3, r1
 2736 0078 FA68     		ldr	r2, [r7, #12]
 2737 007a 1343     		orr	r3, r2
 2738 007c FB60     		str	r3, [r7, #12]
2363:.\Generated_Source\PSoC4/CyLib.c ****     CY_INT_PRIORITY_REG(number) = value;
 2739              		.loc 1 2363 0
 2740 007e FB1D     		add	r3, r7, #7
 2741 0080 1B78     		ldrb	r3, [r3]
 2742 0082 9B08     		lsr	r3, r3, #2
 2743 0084 DBB2     		uxtb	r3, r3
 2744 0086 9B00     		lsl	r3, r3, #2
 2745 0088 064A     		ldr	r2, .L205
 2746 008a 9B18     		add	r3, r3, r2
 2747 008c FA68     		ldr	r2, [r7, #12]
 2748 008e 1A60     		str	r2, [r3]
2364:.\Generated_Source\PSoC4/CyLib.c **** 
2365:.\Generated_Source\PSoC4/CyLib.c ****     CyExitCriticalSection(interruptState);
 2749              		.loc 1 2365 0
 2750 0090 3B1C     		mov	r3, r7
 2751 0092 1333     		add	r3, r3, #19
 2752 0094 1B78     		ldrb	r3, [r3]
ARM GAS  C:\DOCUME~1\Owner\LOCALS~1\Temp\cc3gLjSb.s 			page 91


 2753 0096 181C     		mov	r0, r3
 2754 0098 FFF7FEFF 		bl	CyExitCriticalSection
2366:.\Generated_Source\PSoC4/CyLib.c **** }
 2755              		.loc 1 2366 0
 2756 009c BD46     		mov	sp, r7
 2757 009e 07B0     		add	sp, sp, #28
 2758              		@ sp needed
 2759 00a0 90BD     		pop	{r4, r7, pc}
 2760              	.L206:
 2761 00a2 C046     		.align	2
 2762              	.L205:
 2763 00a4 00E400E0 		.word	-536812544
 2764              		.cfi_endproc
 2765              	.LFE41:
 2766              		.size	CyIntSetPriority, .-CyIntSetPriority
 2767              		.section	.text.CyIntGetPriority,"ax",%progbits
 2768              		.align	2
 2769              		.global	CyIntGetPriority
 2770              		.code	16
 2771              		.thumb_func
 2772              		.type	CyIntGetPriority, %function
 2773              	CyIntGetPriority:
 2774              	.LFB42:
2367:.\Generated_Source\PSoC4/CyLib.c **** 
2368:.\Generated_Source\PSoC4/CyLib.c **** 
2369:.\Generated_Source\PSoC4/CyLib.c **** /*******************************************************************************
2370:.\Generated_Source\PSoC4/CyLib.c **** * Function Name: CyIntGetPriority
2371:.\Generated_Source\PSoC4/CyLib.c **** ********************************************************************************
2372:.\Generated_Source\PSoC4/CyLib.c **** *
2373:.\Generated_Source\PSoC4/CyLib.c **** * Summary:
2374:.\Generated_Source\PSoC4/CyLib.c **** *  Gets the priority of the interrupt.
2375:.\Generated_Source\PSoC4/CyLib.c **** *
2376:.\Generated_Source\PSoC4/CyLib.c **** * Parameters:
2377:.\Generated_Source\PSoC4/CyLib.c **** *  number: The number of the interrupt, 0 - 31.
2378:.\Generated_Source\PSoC4/CyLib.c **** *
2379:.\Generated_Source\PSoC4/CyLib.c **** * Return:
2380:.\Generated_Source\PSoC4/CyLib.c **** *  Priority of the interrupt. 0 - 3, 0 being the highest.
2381:.\Generated_Source\PSoC4/CyLib.c **** *
2382:.\Generated_Source\PSoC4/CyLib.c **** *******************************************************************************/
2383:.\Generated_Source\PSoC4/CyLib.c **** uint8 CyIntGetPriority(uint8 number)
2384:.\Generated_Source\PSoC4/CyLib.c **** {
 2775              		.loc 1 2384 0
 2776              		.cfi_startproc
 2777 0000 80B5     		push	{r7, lr}
 2778              		.cfi_def_cfa_offset 8
 2779              		.cfi_offset 7, -8
 2780              		.cfi_offset 14, -4
 2781 0002 84B0     		sub	sp, sp, #16
 2782              		.cfi_def_cfa_offset 24
 2783 0004 00AF     		add	r7, sp, #0
 2784              		.cfi_def_cfa_register 7
 2785 0006 021C     		mov	r2, r0
 2786 0008 FB1D     		add	r3, r7, #7
 2787 000a 1A70     		strb	r2, [r3]
2385:.\Generated_Source\PSoC4/CyLib.c ****     uint8 priority;
2386:.\Generated_Source\PSoC4/CyLib.c **** 
2387:.\Generated_Source\PSoC4/CyLib.c ****     CYASSERT(number < CY_NUM_INTERRUPTS);
ARM GAS  C:\DOCUME~1\Owner\LOCALS~1\Temp\cc3gLjSb.s 			page 92


 2788              		.loc 1 2387 0
 2789 000c FB1D     		add	r3, r7, #7
 2790 000e 1B78     		ldrb	r3, [r3]
 2791 0010 1F2B     		cmp	r3, #31
 2792 0012 02D9     		bls	.L208
 2793              		.loc 1 2387 0 is_stmt 0 discriminator 1
 2794 0014 0020     		mov	r0, #0
 2795 0016 FFF7FEFF 		bl	CyHalt
 2796              	.L208:
2388:.\Generated_Source\PSoC4/CyLib.c **** 
2389:.\Generated_Source\PSoC4/CyLib.c ****     priority = (uint8) (CY_INT_PRIORITY_REG(number) >> CY_INT_PRIORITY_SHIFT(number));
 2797              		.loc 1 2389 0 is_stmt 1
 2798 001a FB1D     		add	r3, r7, #7
 2799 001c 1B78     		ldrb	r3, [r3]
 2800 001e 9B08     		lsr	r3, r3, #2
 2801 0020 DBB2     		uxtb	r3, r3
 2802 0022 9B00     		lsl	r3, r3, #2
 2803 0024 0B4A     		ldr	r2, .L210
 2804 0026 9B18     		add	r3, r3, r2
 2805 0028 1A68     		ldr	r2, [r3]
 2806 002a FB1D     		add	r3, r7, #7
 2807 002c 1978     		ldrb	r1, [r3]
 2808 002e 0323     		mov	r3, #3
 2809 0030 0B40     		and	r3, r1
 2810 0032 DB00     		lsl	r3, r3, #3
 2811 0034 0633     		add	r3, r3, #6
 2812 0036 DA40     		lsr	r2, r2, r3
 2813 0038 3B1C     		mov	r3, r7
 2814 003a 0F33     		add	r3, r3, #15
 2815 003c 1A70     		strb	r2, [r3]
2390:.\Generated_Source\PSoC4/CyLib.c **** 
2391:.\Generated_Source\PSoC4/CyLib.c ****     return (priority & (uint8) CY_INT_PRIORITY_MASK);
 2816              		.loc 1 2391 0
 2817 003e 3B1C     		mov	r3, r7
 2818 0040 0F33     		add	r3, r3, #15
 2819 0042 1A78     		ldrb	r2, [r3]
 2820 0044 0323     		mov	r3, #3
 2821 0046 1340     		and	r3, r2
 2822 0048 DBB2     		uxtb	r3, r3
2392:.\Generated_Source\PSoC4/CyLib.c **** }
 2823              		.loc 1 2392 0
 2824 004a 181C     		mov	r0, r3
 2825 004c BD46     		mov	sp, r7
 2826 004e 04B0     		add	sp, sp, #16
 2827              		@ sp needed
 2828 0050 80BD     		pop	{r7, pc}
 2829              	.L211:
 2830 0052 C046     		.align	2
 2831              	.L210:
 2832 0054 00E400E0 		.word	-536812544
 2833              		.cfi_endproc
 2834              	.LFE42:
 2835              		.size	CyIntGetPriority, .-CyIntGetPriority
 2836              		.section	.text.CyIntEnable,"ax",%progbits
 2837              		.align	2
 2838              		.global	CyIntEnable
 2839              		.code	16
ARM GAS  C:\DOCUME~1\Owner\LOCALS~1\Temp\cc3gLjSb.s 			page 93


 2840              		.thumb_func
 2841              		.type	CyIntEnable, %function
 2842              	CyIntEnable:
 2843              	.LFB43:
2393:.\Generated_Source\PSoC4/CyLib.c **** 
2394:.\Generated_Source\PSoC4/CyLib.c **** 
2395:.\Generated_Source\PSoC4/CyLib.c **** /*******************************************************************************
2396:.\Generated_Source\PSoC4/CyLib.c **** * Function Name: CyIntEnable
2397:.\Generated_Source\PSoC4/CyLib.c **** ********************************************************************************
2398:.\Generated_Source\PSoC4/CyLib.c **** *
2399:.\Generated_Source\PSoC4/CyLib.c **** * Summary:
2400:.\Generated_Source\PSoC4/CyLib.c **** *  Enables the specified interrupt number.
2401:.\Generated_Source\PSoC4/CyLib.c **** *
2402:.\Generated_Source\PSoC4/CyLib.c **** * Parameters:
2403:.\Generated_Source\PSoC4/CyLib.c **** *  number: Valid range [0-31].  Interrupt number
2404:.\Generated_Source\PSoC4/CyLib.c **** *
2405:.\Generated_Source\PSoC4/CyLib.c **** * Return:
2406:.\Generated_Source\PSoC4/CyLib.c **** *  None
2407:.\Generated_Source\PSoC4/CyLib.c **** *
2408:.\Generated_Source\PSoC4/CyLib.c **** *******************************************************************************/
2409:.\Generated_Source\PSoC4/CyLib.c **** void CyIntEnable(uint8 number)
2410:.\Generated_Source\PSoC4/CyLib.c **** {
 2844              		.loc 1 2410 0
 2845              		.cfi_startproc
 2846 0000 80B5     		push	{r7, lr}
 2847              		.cfi_def_cfa_offset 8
 2848              		.cfi_offset 7, -8
 2849              		.cfi_offset 14, -4
 2850 0002 82B0     		sub	sp, sp, #8
 2851              		.cfi_def_cfa_offset 16
 2852 0004 00AF     		add	r7, sp, #0
 2853              		.cfi_def_cfa_register 7
 2854 0006 021C     		mov	r2, r0
 2855 0008 FB1D     		add	r3, r7, #7
 2856 000a 1A70     		strb	r2, [r3]
2411:.\Generated_Source\PSoC4/CyLib.c ****     CY_INT_ENABLE_REG = ((uint32) 0x01u << (CY_INT_ENABLE_RANGE_MASK & number));
 2857              		.loc 1 2411 0
 2858 000c 064B     		ldr	r3, .L213
 2859 000e FA1D     		add	r2, r7, #7
 2860 0010 1178     		ldrb	r1, [r2]
 2861 0012 1F22     		mov	r2, #31
 2862 0014 0A40     		and	r2, r1
 2863 0016 0121     		mov	r1, #1
 2864 0018 081C     		mov	r0, r1
 2865 001a 9040     		lsl	r0, r0, r2
 2866 001c 021C     		mov	r2, r0
 2867 001e 1A60     		str	r2, [r3]
2412:.\Generated_Source\PSoC4/CyLib.c **** }
 2868              		.loc 1 2412 0
 2869 0020 BD46     		mov	sp, r7
 2870 0022 02B0     		add	sp, sp, #8
 2871              		@ sp needed
 2872 0024 80BD     		pop	{r7, pc}
 2873              	.L214:
 2874 0026 C046     		.align	2
 2875              	.L213:
 2876 0028 00E100E0 		.word	-536813312
ARM GAS  C:\DOCUME~1\Owner\LOCALS~1\Temp\cc3gLjSb.s 			page 94


 2877              		.cfi_endproc
 2878              	.LFE43:
 2879              		.size	CyIntEnable, .-CyIntEnable
 2880              		.section	.text.CyIntGetState,"ax",%progbits
 2881              		.align	2
 2882              		.global	CyIntGetState
 2883              		.code	16
 2884              		.thumb_func
 2885              		.type	CyIntGetState, %function
 2886              	CyIntGetState:
 2887              	.LFB44:
2413:.\Generated_Source\PSoC4/CyLib.c **** 
2414:.\Generated_Source\PSoC4/CyLib.c **** 
2415:.\Generated_Source\PSoC4/CyLib.c **** /*******************************************************************************
2416:.\Generated_Source\PSoC4/CyLib.c **** * Function Name: CyIntGetState
2417:.\Generated_Source\PSoC4/CyLib.c **** ********************************************************************************
2418:.\Generated_Source\PSoC4/CyLib.c **** *
2419:.\Generated_Source\PSoC4/CyLib.c **** * Summary:
2420:.\Generated_Source\PSoC4/CyLib.c **** *  Gets the enable state of the specified interrupt number.
2421:.\Generated_Source\PSoC4/CyLib.c **** *
2422:.\Generated_Source\PSoC4/CyLib.c **** * Parameters:
2423:.\Generated_Source\PSoC4/CyLib.c **** *  number: Valid range [0-31].  Interrupt number.
2424:.\Generated_Source\PSoC4/CyLib.c **** *
2425:.\Generated_Source\PSoC4/CyLib.c **** * Return:
2426:.\Generated_Source\PSoC4/CyLib.c **** *  Enable status: 1 if enabled, 0 if disabled
2427:.\Generated_Source\PSoC4/CyLib.c **** *
2428:.\Generated_Source\PSoC4/CyLib.c **** *******************************************************************************/
2429:.\Generated_Source\PSoC4/CyLib.c **** uint8 CyIntGetState(uint8 number)
2430:.\Generated_Source\PSoC4/CyLib.c **** {
 2888              		.loc 1 2430 0
 2889              		.cfi_startproc
 2890 0000 80B5     		push	{r7, lr}
 2891              		.cfi_def_cfa_offset 8
 2892              		.cfi_offset 7, -8
 2893              		.cfi_offset 14, -4
 2894 0002 82B0     		sub	sp, sp, #8
 2895              		.cfi_def_cfa_offset 16
 2896 0004 00AF     		add	r7, sp, #0
 2897              		.cfi_def_cfa_register 7
 2898 0006 021C     		mov	r2, r0
 2899 0008 FB1D     		add	r3, r7, #7
 2900 000a 1A70     		strb	r2, [r3]
2431:.\Generated_Source\PSoC4/CyLib.c ****     /* Get state of interrupt. */
2432:.\Generated_Source\PSoC4/CyLib.c ****     return ((0u != (CY_INT_ENABLE_REG & ((uint32) 0x01u << (CY_INT_ENABLE_RANGE_MASK & number)))) ?
 2901              		.loc 1 2432 0
 2902 000c 084B     		ldr	r3, .L217
 2903 000e 1A68     		ldr	r2, [r3]
 2904 0010 FB1D     		add	r3, r7, #7
 2905 0012 1978     		ldrb	r1, [r3]
 2906 0014 1F23     		mov	r3, #31
 2907 0016 0B40     		and	r3, r1
 2908 0018 111C     		mov	r1, r2
 2909 001a D940     		lsr	r1, r1, r3
 2910 001c 0B1C     		mov	r3, r1
 2911 001e DAB2     		uxtb	r2, r3
 2912 0020 0123     		mov	r3, #1
 2913 0022 1340     		and	r3, r2
ARM GAS  C:\DOCUME~1\Owner\LOCALS~1\Temp\cc3gLjSb.s 			page 95


 2914 0024 DBB2     		uxtb	r3, r3
2433:.\Generated_Source\PSoC4/CyLib.c **** }
 2915              		.loc 1 2433 0
 2916 0026 181C     		mov	r0, r3
 2917 0028 BD46     		mov	sp, r7
 2918 002a 02B0     		add	sp, sp, #8
 2919              		@ sp needed
 2920 002c 80BD     		pop	{r7, pc}
 2921              	.L218:
 2922 002e C046     		.align	2
 2923              	.L217:
 2924 0030 00E100E0 		.word	-536813312
 2925              		.cfi_endproc
 2926              	.LFE44:
 2927              		.size	CyIntGetState, .-CyIntGetState
 2928              		.section	.text.CyIntDisable,"ax",%progbits
 2929              		.align	2
 2930              		.global	CyIntDisable
 2931              		.code	16
 2932              		.thumb_func
 2933              		.type	CyIntDisable, %function
 2934              	CyIntDisable:
 2935              	.LFB45:
2434:.\Generated_Source\PSoC4/CyLib.c **** 
2435:.\Generated_Source\PSoC4/CyLib.c **** 
2436:.\Generated_Source\PSoC4/CyLib.c **** /*******************************************************************************
2437:.\Generated_Source\PSoC4/CyLib.c **** * Function Name: CyIntDisable
2438:.\Generated_Source\PSoC4/CyLib.c **** ********************************************************************************
2439:.\Generated_Source\PSoC4/CyLib.c **** *
2440:.\Generated_Source\PSoC4/CyLib.c **** * Summary:
2441:.\Generated_Source\PSoC4/CyLib.c **** *   Disables the specified interrupt number.
2442:.\Generated_Source\PSoC4/CyLib.c **** *
2443:.\Generated_Source\PSoC4/CyLib.c **** * Parameters:
2444:.\Generated_Source\PSoC4/CyLib.c **** *   number: Valid range [0-31].  Interrupt number.
2445:.\Generated_Source\PSoC4/CyLib.c **** *
2446:.\Generated_Source\PSoC4/CyLib.c **** * Return:
2447:.\Generated_Source\PSoC4/CyLib.c **** *  None
2448:.\Generated_Source\PSoC4/CyLib.c **** *
2449:.\Generated_Source\PSoC4/CyLib.c **** *******************************************************************************/
2450:.\Generated_Source\PSoC4/CyLib.c **** void CyIntDisable(uint8 number)
2451:.\Generated_Source\PSoC4/CyLib.c **** {
 2936              		.loc 1 2451 0
 2937              		.cfi_startproc
 2938 0000 80B5     		push	{r7, lr}
 2939              		.cfi_def_cfa_offset 8
 2940              		.cfi_offset 7, -8
 2941              		.cfi_offset 14, -4
 2942 0002 82B0     		sub	sp, sp, #8
 2943              		.cfi_def_cfa_offset 16
 2944 0004 00AF     		add	r7, sp, #0
 2945              		.cfi_def_cfa_register 7
 2946 0006 021C     		mov	r2, r0
 2947 0008 FB1D     		add	r3, r7, #7
 2948 000a 1A70     		strb	r2, [r3]
2452:.\Generated_Source\PSoC4/CyLib.c ****     CY_INT_CLEAR_REG = ((uint32) 0x01u << (CY_INT_ENABLE_RANGE_MASK & number));
 2949              		.loc 1 2452 0
 2950 000c 064B     		ldr	r3, .L220
ARM GAS  C:\DOCUME~1\Owner\LOCALS~1\Temp\cc3gLjSb.s 			page 96


 2951 000e FA1D     		add	r2, r7, #7
 2952 0010 1178     		ldrb	r1, [r2]
 2953 0012 1F22     		mov	r2, #31
 2954 0014 0A40     		and	r2, r1
 2955 0016 0121     		mov	r1, #1
 2956 0018 081C     		mov	r0, r1
 2957 001a 9040     		lsl	r0, r0, r2
 2958 001c 021C     		mov	r2, r0
 2959 001e 1A60     		str	r2, [r3]
2453:.\Generated_Source\PSoC4/CyLib.c **** }
 2960              		.loc 1 2453 0
 2961 0020 BD46     		mov	sp, r7
 2962 0022 02B0     		add	sp, sp, #8
 2963              		@ sp needed
 2964 0024 80BD     		pop	{r7, pc}
 2965              	.L221:
 2966 0026 C046     		.align	2
 2967              	.L220:
 2968 0028 80E100E0 		.word	-536813184
 2969              		.cfi_endproc
 2970              	.LFE45:
 2971              		.size	CyIntDisable, .-CyIntDisable
 2972              		.section	.text.CyIntSetPending,"ax",%progbits
 2973              		.align	2
 2974              		.global	CyIntSetPending
 2975              		.code	16
 2976              		.thumb_func
 2977              		.type	CyIntSetPending, %function
 2978              	CyIntSetPending:
 2979              	.LFB46:
2454:.\Generated_Source\PSoC4/CyLib.c **** 
2455:.\Generated_Source\PSoC4/CyLib.c **** /*******************************************************************************
2456:.\Generated_Source\PSoC4/CyLib.c **** * Function Name: CyIntSetPending
2457:.\Generated_Source\PSoC4/CyLib.c **** ********************************************************************************
2458:.\Generated_Source\PSoC4/CyLib.c **** *
2459:.\Generated_Source\PSoC4/CyLib.c **** * Summary:
2460:.\Generated_Source\PSoC4/CyLib.c **** *  Forces the specified interrupt number to be pending.
2461:.\Generated_Source\PSoC4/CyLib.c **** *
2462:.\Generated_Source\PSoC4/CyLib.c **** * Parameters:
2463:.\Generated_Source\PSoC4/CyLib.c **** *  number: Valid range [0-31].  Interrupt number.
2464:.\Generated_Source\PSoC4/CyLib.c **** *
2465:.\Generated_Source\PSoC4/CyLib.c **** * Return:
2466:.\Generated_Source\PSoC4/CyLib.c **** *  None
2467:.\Generated_Source\PSoC4/CyLib.c **** *
2468:.\Generated_Source\PSoC4/CyLib.c **** *******************************************************************************/
2469:.\Generated_Source\PSoC4/CyLib.c **** void CyIntSetPending(uint8 number)
2470:.\Generated_Source\PSoC4/CyLib.c **** {
 2980              		.loc 1 2470 0
 2981              		.cfi_startproc
 2982 0000 80B5     		push	{r7, lr}
 2983              		.cfi_def_cfa_offset 8
 2984              		.cfi_offset 7, -8
 2985              		.cfi_offset 14, -4
 2986 0002 82B0     		sub	sp, sp, #8
 2987              		.cfi_def_cfa_offset 16
 2988 0004 00AF     		add	r7, sp, #0
 2989              		.cfi_def_cfa_register 7
ARM GAS  C:\DOCUME~1\Owner\LOCALS~1\Temp\cc3gLjSb.s 			page 97


 2990 0006 021C     		mov	r2, r0
 2991 0008 FB1D     		add	r3, r7, #7
 2992 000a 1A70     		strb	r2, [r3]
2471:.\Generated_Source\PSoC4/CyLib.c ****     CY_INT_SET_PEND_REG = ((uint32) 0x01u << (CY_INT_ENABLE_RANGE_MASK & number));
 2993              		.loc 1 2471 0
 2994 000c 064B     		ldr	r3, .L223
 2995 000e FA1D     		add	r2, r7, #7
 2996 0010 1178     		ldrb	r1, [r2]
 2997 0012 1F22     		mov	r2, #31
 2998 0014 0A40     		and	r2, r1
 2999 0016 0121     		mov	r1, #1
 3000 0018 081C     		mov	r0, r1
 3001 001a 9040     		lsl	r0, r0, r2
 3002 001c 021C     		mov	r2, r0
 3003 001e 1A60     		str	r2, [r3]
2472:.\Generated_Source\PSoC4/CyLib.c **** }
 3004              		.loc 1 2472 0
 3005 0020 BD46     		mov	sp, r7
 3006 0022 02B0     		add	sp, sp, #8
 3007              		@ sp needed
 3008 0024 80BD     		pop	{r7, pc}
 3009              	.L224:
 3010 0026 C046     		.align	2
 3011              	.L223:
 3012 0028 00E200E0 		.word	-536813056
 3013              		.cfi_endproc
 3014              	.LFE46:
 3015              		.size	CyIntSetPending, .-CyIntSetPending
 3016              		.section	.text.CyIntClearPending,"ax",%progbits
 3017              		.align	2
 3018              		.global	CyIntClearPending
 3019              		.code	16
 3020              		.thumb_func
 3021              		.type	CyIntClearPending, %function
 3022              	CyIntClearPending:
 3023              	.LFB47:
2473:.\Generated_Source\PSoC4/CyLib.c **** 
2474:.\Generated_Source\PSoC4/CyLib.c **** 
2475:.\Generated_Source\PSoC4/CyLib.c **** /*******************************************************************************
2476:.\Generated_Source\PSoC4/CyLib.c **** * Function Name: CyIntClearPending
2477:.\Generated_Source\PSoC4/CyLib.c **** ********************************************************************************
2478:.\Generated_Source\PSoC4/CyLib.c **** *
2479:.\Generated_Source\PSoC4/CyLib.c **** * Summary:
2480:.\Generated_Source\PSoC4/CyLib.c **** *  Clears any pending interrupt for the specified interrupt number.
2481:.\Generated_Source\PSoC4/CyLib.c **** *
2482:.\Generated_Source\PSoC4/CyLib.c **** * Parameters:
2483:.\Generated_Source\PSoC4/CyLib.c **** *  number: Valid range [0-31].  Interrupt number.
2484:.\Generated_Source\PSoC4/CyLib.c **** *
2485:.\Generated_Source\PSoC4/CyLib.c **** * Return:
2486:.\Generated_Source\PSoC4/CyLib.c **** *  None
2487:.\Generated_Source\PSoC4/CyLib.c **** *
2488:.\Generated_Source\PSoC4/CyLib.c **** *******************************************************************************/
2489:.\Generated_Source\PSoC4/CyLib.c **** void CyIntClearPending(uint8 number)
2490:.\Generated_Source\PSoC4/CyLib.c **** {
 3024              		.loc 1 2490 0
 3025              		.cfi_startproc
 3026 0000 80B5     		push	{r7, lr}
ARM GAS  C:\DOCUME~1\Owner\LOCALS~1\Temp\cc3gLjSb.s 			page 98


 3027              		.cfi_def_cfa_offset 8
 3028              		.cfi_offset 7, -8
 3029              		.cfi_offset 14, -4
 3030 0002 82B0     		sub	sp, sp, #8
 3031              		.cfi_def_cfa_offset 16
 3032 0004 00AF     		add	r7, sp, #0
 3033              		.cfi_def_cfa_register 7
 3034 0006 021C     		mov	r2, r0
 3035 0008 FB1D     		add	r3, r7, #7
 3036 000a 1A70     		strb	r2, [r3]
2491:.\Generated_Source\PSoC4/CyLib.c ****     CY_INT_CLR_PEND_REG = ((uint32) 0x01u << (CY_INT_ENABLE_RANGE_MASK & number));
 3037              		.loc 1 2491 0
 3038 000c 064B     		ldr	r3, .L226
 3039 000e FA1D     		add	r2, r7, #7
 3040 0010 1178     		ldrb	r1, [r2]
 3041 0012 1F22     		mov	r2, #31
 3042 0014 0A40     		and	r2, r1
 3043 0016 0121     		mov	r1, #1
 3044 0018 081C     		mov	r0, r1
 3045 001a 9040     		lsl	r0, r0, r2
 3046 001c 021C     		mov	r2, r0
 3047 001e 1A60     		str	r2, [r3]
2492:.\Generated_Source\PSoC4/CyLib.c **** }
 3048              		.loc 1 2492 0
 3049 0020 BD46     		mov	sp, r7
 3050 0022 02B0     		add	sp, sp, #8
 3051              		@ sp needed
 3052 0024 80BD     		pop	{r7, pc}
 3053              	.L227:
 3054 0026 C046     		.align	2
 3055              	.L226:
 3056 0028 80E200E0 		.word	-536812928
 3057              		.cfi_endproc
 3058              	.LFE47:
 3059              		.size	CyIntClearPending, .-CyIntClearPending
 3060              		.section	.text.CyHalt,"ax",%progbits
 3061              		.align	2
 3062              		.global	CyHalt
 3063              		.code	16
 3064              		.thumb_func
 3065              		.type	CyHalt, %function
 3066              	CyHalt:
 3067              	.LFB48:
2493:.\Generated_Source\PSoC4/CyLib.c **** 
2494:.\Generated_Source\PSoC4/CyLib.c **** 
2495:.\Generated_Source\PSoC4/CyLib.c **** /*******************************************************************************
2496:.\Generated_Source\PSoC4/CyLib.c **** * Function Name: CyHalt
2497:.\Generated_Source\PSoC4/CyLib.c **** ********************************************************************************
2498:.\Generated_Source\PSoC4/CyLib.c **** *
2499:.\Generated_Source\PSoC4/CyLib.c **** * Summary:
2500:.\Generated_Source\PSoC4/CyLib.c **** *  Halts the CPU.
2501:.\Generated_Source\PSoC4/CyLib.c **** *
2502:.\Generated_Source\PSoC4/CyLib.c **** * Parameters:
2503:.\Generated_Source\PSoC4/CyLib.c **** *  reason: Value to be used during debugging.
2504:.\Generated_Source\PSoC4/CyLib.c **** *
2505:.\Generated_Source\PSoC4/CyLib.c **** * Return:
2506:.\Generated_Source\PSoC4/CyLib.c **** *  None
ARM GAS  C:\DOCUME~1\Owner\LOCALS~1\Temp\cc3gLjSb.s 			page 99


2507:.\Generated_Source\PSoC4/CyLib.c **** *
2508:.\Generated_Source\PSoC4/CyLib.c **** *******************************************************************************/
2509:.\Generated_Source\PSoC4/CyLib.c **** void CyHalt(uint8 reason)
2510:.\Generated_Source\PSoC4/CyLib.c **** {
 3068              		.loc 1 2510 0
 3069              		.cfi_startproc
 3070 0000 80B5     		push	{r7, lr}
 3071              		.cfi_def_cfa_offset 8
 3072              		.cfi_offset 7, -8
 3073              		.cfi_offset 14, -4
 3074 0002 82B0     		sub	sp, sp, #8
 3075              		.cfi_def_cfa_offset 16
 3076 0004 00AF     		add	r7, sp, #0
 3077              		.cfi_def_cfa_register 7
 3078 0006 021C     		mov	r2, r0
 3079 0008 FB1D     		add	r3, r7, #7
 3080 000a 1A70     		strb	r2, [r3]
2511:.\Generated_Source\PSoC4/CyLib.c ****     if(0u != reason)
2512:.\Generated_Source\PSoC4/CyLib.c ****     {
2513:.\Generated_Source\PSoC4/CyLib.c ****         /* To remove unreferenced local variable warning */
2514:.\Generated_Source\PSoC4/CyLib.c ****     }
2515:.\Generated_Source\PSoC4/CyLib.c **** 
2516:.\Generated_Source\PSoC4/CyLib.c ****     #if defined (__ARMCC_VERSION)
2517:.\Generated_Source\PSoC4/CyLib.c ****         __breakpoint(0x0);
2518:.\Generated_Source\PSoC4/CyLib.c ****     #elif defined(__GNUC__) || defined (__ICCARM__)
2519:.\Generated_Source\PSoC4/CyLib.c ****         __asm("    bkpt    1");
 3081              		.loc 1 2519 0
 3082              	@ 2519 ".\Generated_Source\PSoC4\CyLib.c" 1
 3083 000c 01BE     		    bkpt    1
 3084              	@ 0 "" 2
2520:.\Generated_Source\PSoC4/CyLib.c ****     #elif defined(__C51__)
2521:.\Generated_Source\PSoC4/CyLib.c ****         CYDEV_HALT_CPU;
2522:.\Generated_Source\PSoC4/CyLib.c ****     #endif  /* (__ARMCC_VERSION) */
2523:.\Generated_Source\PSoC4/CyLib.c **** }
 3085              		.loc 1 2523 0
 3086              		.code	16
 3087 000e BD46     		mov	sp, r7
 3088 0010 02B0     		add	sp, sp, #8
 3089              		@ sp needed
 3090 0012 80BD     		pop	{r7, pc}
 3091              		.cfi_endproc
 3092              	.LFE48:
 3093              		.size	CyHalt, .-CyHalt
 3094              		.section	.text.CySoftwareReset,"ax",%progbits
 3095              		.align	2
 3096              		.global	CySoftwareReset
 3097              		.code	16
 3098              		.thumb_func
 3099              		.type	CySoftwareReset, %function
 3100              	CySoftwareReset:
 3101              	.LFB49:
2524:.\Generated_Source\PSoC4/CyLib.c **** 
2525:.\Generated_Source\PSoC4/CyLib.c **** 
2526:.\Generated_Source\PSoC4/CyLib.c **** /*******************************************************************************
2527:.\Generated_Source\PSoC4/CyLib.c **** * Function Name: CySoftwareReset
2528:.\Generated_Source\PSoC4/CyLib.c **** ********************************************************************************
2529:.\Generated_Source\PSoC4/CyLib.c **** *
ARM GAS  C:\DOCUME~1\Owner\LOCALS~1\Temp\cc3gLjSb.s 			page 100


2530:.\Generated_Source\PSoC4/CyLib.c **** * Summary:
2531:.\Generated_Source\PSoC4/CyLib.c **** *  Forces a software reset of the device.
2532:.\Generated_Source\PSoC4/CyLib.c **** *
2533:.\Generated_Source\PSoC4/CyLib.c **** * Parameters:
2534:.\Generated_Source\PSoC4/CyLib.c **** *  None
2535:.\Generated_Source\PSoC4/CyLib.c **** *
2536:.\Generated_Source\PSoC4/CyLib.c **** * Return:
2537:.\Generated_Source\PSoC4/CyLib.c **** *  None
2538:.\Generated_Source\PSoC4/CyLib.c **** *
2539:.\Generated_Source\PSoC4/CyLib.c **** *******************************************************************************/
2540:.\Generated_Source\PSoC4/CyLib.c **** void CySoftwareReset(void)
2541:.\Generated_Source\PSoC4/CyLib.c **** {
 3102              		.loc 1 2541 0
 3103              		.cfi_startproc
 3104 0000 80B5     		push	{r7, lr}
 3105              		.cfi_def_cfa_offset 8
 3106              		.cfi_offset 7, -8
 3107              		.cfi_offset 14, -4
 3108 0002 00AF     		add	r7, sp, #0
 3109              		.cfi_def_cfa_register 7
2542:.\Generated_Source\PSoC4/CyLib.c ****     /***************************************************************************
2543:.\Generated_Source\PSoC4/CyLib.c ****     * Setting the system reset request bit. The vector key value must be written
2544:.\Generated_Source\PSoC4/CyLib.c ****     * to the register, otherwise the register write is unpredictable.
2545:.\Generated_Source\PSoC4/CyLib.c ****     ***************************************************************************/
2546:.\Generated_Source\PSoC4/CyLib.c ****     CY_SYS_CM0_AIRCR_REG = (CY_SYS_CM0_AIRCR_REG & (uint32)(~CY_SYS_CM0_AIRCR_VECTKEY_MASK)) |
 3110              		.loc 1 2546 0
 3111 0004 044B     		ldr	r3, .L230
 3112 0006 044A     		ldr	r2, .L230
 3113 0008 1268     		ldr	r2, [r2]
 3114 000a 1204     		lsl	r2, r2, #16
 3115 000c 120C     		lsr	r2, r2, #16
2547:.\Generated_Source\PSoC4/CyLib.c ****                             CY_SYS_CM0_AIRCR_VECTKEY | CY_SYS_CM0_AIRCR_SYSRESETREQ;
 3116              		.loc 1 2547 0
 3117 000e 0349     		ldr	r1, .L230+4
 3118 0010 0A43     		orr	r2, r1
2546:.\Generated_Source\PSoC4/CyLib.c ****     CY_SYS_CM0_AIRCR_REG = (CY_SYS_CM0_AIRCR_REG & (uint32)(~CY_SYS_CM0_AIRCR_VECTKEY_MASK)) |
 3119              		.loc 1 2546 0
 3120 0012 1A60     		str	r2, [r3]
2548:.\Generated_Source\PSoC4/CyLib.c **** }
 3121              		.loc 1 2548 0
 3122 0014 BD46     		mov	sp, r7
 3123              		@ sp needed
 3124 0016 80BD     		pop	{r7, pc}
 3125              	.L231:
 3126              		.align	2
 3127              	.L230:
 3128 0018 0CED00E0 		.word	-536810228
 3129 001c 0400FA05 		.word	100270084
 3130              		.cfi_endproc
 3131              	.LFE49:
 3132              		.size	CySoftwareReset, .-CySoftwareReset
 3133              		.section	.text.CyDelay,"ax",%progbits
 3134              		.align	2
 3135              		.global	CyDelay
 3136              		.code	16
 3137              		.thumb_func
 3138              		.type	CyDelay, %function
ARM GAS  C:\DOCUME~1\Owner\LOCALS~1\Temp\cc3gLjSb.s 			page 101


 3139              	CyDelay:
 3140              	.LFB50:
2549:.\Generated_Source\PSoC4/CyLib.c **** 
2550:.\Generated_Source\PSoC4/CyLib.c **** 
2551:.\Generated_Source\PSoC4/CyLib.c **** /*******************************************************************************
2552:.\Generated_Source\PSoC4/CyLib.c **** * Function Name: CyDelay
2553:.\Generated_Source\PSoC4/CyLib.c **** ********************************************************************************
2554:.\Generated_Source\PSoC4/CyLib.c **** *
2555:.\Generated_Source\PSoC4/CyLib.c **** * Summary:
2556:.\Generated_Source\PSoC4/CyLib.c **** *  Blocks for milliseconds.
2557:.\Generated_Source\PSoC4/CyLib.c **** *
2558:.\Generated_Source\PSoC4/CyLib.c **** * Parameters:
2559:.\Generated_Source\PSoC4/CyLib.c **** *  milliseconds: number of milliseconds to delay.
2560:.\Generated_Source\PSoC4/CyLib.c **** *
2561:.\Generated_Source\PSoC4/CyLib.c **** * Return:
2562:.\Generated_Source\PSoC4/CyLib.c **** *  None
2563:.\Generated_Source\PSoC4/CyLib.c **** *
2564:.\Generated_Source\PSoC4/CyLib.c **** *******************************************************************************/
2565:.\Generated_Source\PSoC4/CyLib.c **** void CyDelay(uint32 milliseconds)
2566:.\Generated_Source\PSoC4/CyLib.c **** {
 3141              		.loc 1 2566 0
 3142              		.cfi_startproc
 3143 0000 80B5     		push	{r7, lr}
 3144              		.cfi_def_cfa_offset 8
 3145              		.cfi_offset 7, -8
 3146              		.cfi_offset 14, -4
 3147 0002 82B0     		sub	sp, sp, #8
 3148              		.cfi_def_cfa_offset 16
 3149 0004 00AF     		add	r7, sp, #0
 3150              		.cfi_def_cfa_register 7
 3151 0006 7860     		str	r0, [r7, #4]
2567:.\Generated_Source\PSoC4/CyLib.c ****     while (milliseconds > CY_DELAY_MS_OVERFLOW)
 3152              		.loc 1 2567 0
 3153 0008 08E0     		b	.L233
 3154              	.L234:
2568:.\Generated_Source\PSoC4/CyLib.c ****     {
2569:.\Generated_Source\PSoC4/CyLib.c ****         /* This loop prevents overflow.
2570:.\Generated_Source\PSoC4/CyLib.c ****          * At 100MHz, milliseconds * cydelayFreqKhz overflows at about 42 seconds
2571:.\Generated_Source\PSoC4/CyLib.c ****          */
2572:.\Generated_Source\PSoC4/CyLib.c ****         CyDelayCycles(cydelay32kMs);
 3155              		.loc 1 2572 0
 3156 000a 0C4B     		ldr	r3, .L235
 3157 000c 1B68     		ldr	r3, [r3]
 3158 000e 181C     		mov	r0, r3
 3159 0010 FFF7FEFF 		bl	CyDelayCycles
2573:.\Generated_Source\PSoC4/CyLib.c ****         milliseconds -= CY_DELAY_MS_OVERFLOW;
 3160              		.loc 1 2573 0
 3161 0014 7B68     		ldr	r3, [r7, #4]
 3162 0016 0A4A     		ldr	r2, .L235+4
 3163 0018 9B18     		add	r3, r3, r2
 3164 001a 7B60     		str	r3, [r7, #4]
 3165              	.L233:
2567:.\Generated_Source\PSoC4/CyLib.c ****     while (milliseconds > CY_DELAY_MS_OVERFLOW)
 3166              		.loc 1 2567 0 discriminator 1
 3167 001c 7A68     		ldr	r2, [r7, #4]
 3168 001e 8023     		mov	r3, #128
 3169 0020 1B02     		lsl	r3, r3, #8
ARM GAS  C:\DOCUME~1\Owner\LOCALS~1\Temp\cc3gLjSb.s 			page 102


 3170 0022 9A42     		cmp	r2, r3
 3171 0024 F1D8     		bhi	.L234
2574:.\Generated_Source\PSoC4/CyLib.c ****     }
2575:.\Generated_Source\PSoC4/CyLib.c **** 
2576:.\Generated_Source\PSoC4/CyLib.c ****     CyDelayCycles(milliseconds * cydelayFreqKhz);
 3172              		.loc 1 2576 0
 3173 0026 074B     		ldr	r3, .L235+8
 3174 0028 1B68     		ldr	r3, [r3]
 3175 002a 7A68     		ldr	r2, [r7, #4]
 3176 002c 5343     		mul	r3, r2
 3177 002e 181C     		mov	r0, r3
 3178 0030 FFF7FEFF 		bl	CyDelayCycles
2577:.\Generated_Source\PSoC4/CyLib.c **** }
 3179              		.loc 1 2577 0
 3180 0034 BD46     		mov	sp, r7
 3181 0036 02B0     		add	sp, sp, #8
 3182              		@ sp needed
 3183 0038 80BD     		pop	{r7, pc}
 3184              	.L236:
 3185 003a C046     		.align	2
 3186              	.L235:
 3187 003c 00000000 		.word	cydelay32kMs
 3188 0040 0080FFFF 		.word	-32768
 3189 0044 00000000 		.word	cydelayFreqKhz
 3190              		.cfi_endproc
 3191              	.LFE50:
 3192              		.size	CyDelay, .-CyDelay
 3193              		.section	.text.CyDelayUs,"ax",%progbits
 3194              		.align	2
 3195              		.global	CyDelayUs
 3196              		.code	16
 3197              		.thumb_func
 3198              		.type	CyDelayUs, %function
 3199              	CyDelayUs:
 3200              	.LFB51:
2578:.\Generated_Source\PSoC4/CyLib.c **** 
2579:.\Generated_Source\PSoC4/CyLib.c **** 
2580:.\Generated_Source\PSoC4/CyLib.c **** /*******************************************************************************
2581:.\Generated_Source\PSoC4/CyLib.c **** * Function Name: CyDelayUs
2582:.\Generated_Source\PSoC4/CyLib.c **** ********************************************************************************
2583:.\Generated_Source\PSoC4/CyLib.c **** * Summary:
2584:.\Generated_Source\PSoC4/CyLib.c **** *  Blocks for microseconds.
2585:.\Generated_Source\PSoC4/CyLib.c **** *
2586:.\Generated_Source\PSoC4/CyLib.c **** * Parameters:
2587:.\Generated_Source\PSoC4/CyLib.c **** *  microseconds: number of microseconds to delay.
2588:.\Generated_Source\PSoC4/CyLib.c **** *
2589:.\Generated_Source\PSoC4/CyLib.c **** * Return:
2590:.\Generated_Source\PSoC4/CyLib.c **** *  None
2591:.\Generated_Source\PSoC4/CyLib.c **** *
2592:.\Generated_Source\PSoC4/CyLib.c **** *******************************************************************************/
2593:.\Generated_Source\PSoC4/CyLib.c **** void CyDelayUs(uint16 microseconds)
2594:.\Generated_Source\PSoC4/CyLib.c **** {
 3201              		.loc 1 2594 0
 3202              		.cfi_startproc
 3203 0000 80B5     		push	{r7, lr}
 3204              		.cfi_def_cfa_offset 8
 3205              		.cfi_offset 7, -8
ARM GAS  C:\DOCUME~1\Owner\LOCALS~1\Temp\cc3gLjSb.s 			page 103


 3206              		.cfi_offset 14, -4
 3207 0002 82B0     		sub	sp, sp, #8
 3208              		.cfi_def_cfa_offset 16
 3209 0004 00AF     		add	r7, sp, #0
 3210              		.cfi_def_cfa_register 7
 3211 0006 021C     		mov	r2, r0
 3212 0008 BB1D     		add	r3, r7, #6
 3213 000a 1A80     		strh	r2, [r3]
2595:.\Generated_Source\PSoC4/CyLib.c ****     CyDelayCycles((uint32)microseconds * cydelayFreqMhz);
 3214              		.loc 1 2595 0
 3215 000c BB1D     		add	r3, r7, #6
 3216 000e 1B88     		ldrh	r3, [r3]
 3217 0010 044A     		ldr	r2, .L238
 3218 0012 1278     		ldrb	r2, [r2]
 3219 0014 5343     		mul	r3, r2
 3220 0016 181C     		mov	r0, r3
 3221 0018 FFF7FEFF 		bl	CyDelayCycles
2596:.\Generated_Source\PSoC4/CyLib.c **** }
 3222              		.loc 1 2596 0
 3223 001c BD46     		mov	sp, r7
 3224 001e 02B0     		add	sp, sp, #8
 3225              		@ sp needed
 3226 0020 80BD     		pop	{r7, pc}
 3227              	.L239:
 3228 0022 C046     		.align	2
 3229              	.L238:
 3230 0024 00000000 		.word	cydelayFreqMhz
 3231              		.cfi_endproc
 3232              	.LFE51:
 3233              		.size	CyDelayUs, .-CyDelayUs
 3234              		.global	__aeabi_uidiv
 3235              		.section	.text.CyDelayFreq,"ax",%progbits
 3236              		.align	2
 3237              		.global	CyDelayFreq
 3238              		.code	16
 3239              		.thumb_func
 3240              		.type	CyDelayFreq, %function
 3241              	CyDelayFreq:
 3242              	.LFB52:
2597:.\Generated_Source\PSoC4/CyLib.c **** 
2598:.\Generated_Source\PSoC4/CyLib.c **** 
2599:.\Generated_Source\PSoC4/CyLib.c **** /*******************************************************************************
2600:.\Generated_Source\PSoC4/CyLib.c **** * Function Name: CyDelayFreq
2601:.\Generated_Source\PSoC4/CyLib.c **** ********************************************************************************
2602:.\Generated_Source\PSoC4/CyLib.c **** * Summary:
2603:.\Generated_Source\PSoC4/CyLib.c **** *  Sets clock frequency for CyDelay.
2604:.\Generated_Source\PSoC4/CyLib.c **** *
2605:.\Generated_Source\PSoC4/CyLib.c **** * Parameters:
2606:.\Generated_Source\PSoC4/CyLib.c **** *  freq: Frequency of bus clock in Hertz.
2607:.\Generated_Source\PSoC4/CyLib.c **** *
2608:.\Generated_Source\PSoC4/CyLib.c **** * Return:
2609:.\Generated_Source\PSoC4/CyLib.c **** *  None
2610:.\Generated_Source\PSoC4/CyLib.c **** *
2611:.\Generated_Source\PSoC4/CyLib.c **** *******************************************************************************/
2612:.\Generated_Source\PSoC4/CyLib.c **** void CyDelayFreq(uint32 freq)
2613:.\Generated_Source\PSoC4/CyLib.c **** {
 3243              		.loc 1 2613 0
ARM GAS  C:\DOCUME~1\Owner\LOCALS~1\Temp\cc3gLjSb.s 			page 104


 3244              		.cfi_startproc
 3245 0000 80B5     		push	{r7, lr}
 3246              		.cfi_def_cfa_offset 8
 3247              		.cfi_offset 7, -8
 3248              		.cfi_offset 14, -4
 3249 0002 82B0     		sub	sp, sp, #8
 3250              		.cfi_def_cfa_offset 16
 3251 0004 00AF     		add	r7, sp, #0
 3252              		.cfi_def_cfa_register 7
 3253 0006 7860     		str	r0, [r7, #4]
2614:.\Generated_Source\PSoC4/CyLib.c ****     if (freq != 0u)
 3254              		.loc 1 2614 0
 3255 0008 7B68     		ldr	r3, [r7, #4]
 3256 000a 002B     		cmp	r3, #0
 3257 000c 03D0     		beq	.L241
2615:.\Generated_Source\PSoC4/CyLib.c ****     {
2616:.\Generated_Source\PSoC4/CyLib.c ****         cydelayFreqHz = freq;
 3258              		.loc 1 2616 0
 3259 000e 144B     		ldr	r3, .L243
 3260 0010 7A68     		ldr	r2, [r7, #4]
 3261 0012 1A60     		str	r2, [r3]
 3262 0014 02E0     		b	.L242
 3263              	.L241:
2617:.\Generated_Source\PSoC4/CyLib.c ****     }
2618:.\Generated_Source\PSoC4/CyLib.c ****     else
2619:.\Generated_Source\PSoC4/CyLib.c ****     {
2620:.\Generated_Source\PSoC4/CyLib.c ****         cydelayFreqHz = CYDEV_BCLK__SYSCLK__HZ;
 3264              		.loc 1 2620 0
 3265 0016 124B     		ldr	r3, .L243
 3266 0018 124A     		ldr	r2, .L243+4
 3267 001a 1A60     		str	r2, [r3]
 3268              	.L242:
2621:.\Generated_Source\PSoC4/CyLib.c ****     }
2622:.\Generated_Source\PSoC4/CyLib.c **** 
2623:.\Generated_Source\PSoC4/CyLib.c ****     cydelayFreqMhz = (uint8)((cydelayFreqHz + CY_DELAY_1M_MINUS_1_THRESHOLD) / CY_DELAY_1M_THRESHOL
 3269              		.loc 1 2623 0
 3270 001c 104B     		ldr	r3, .L243
 3271 001e 1B68     		ldr	r3, [r3]
 3272 0020 114A     		ldr	r2, .L243+8
 3273 0022 9B18     		add	r3, r3, r2
 3274 0024 181C     		mov	r0, r3
 3275 0026 1149     		ldr	r1, .L243+12
 3276 0028 FFF7FEFF 		bl	__aeabi_uidiv
 3277 002c 031C     		mov	r3, r0
 3278 002e DAB2     		uxtb	r2, r3
 3279 0030 0F4B     		ldr	r3, .L243+16
 3280 0032 1A70     		strb	r2, [r3]
2624:.\Generated_Source\PSoC4/CyLib.c ****     cydelayFreqKhz = (cydelayFreqHz + CY_DELAY_1K_MINUS_1_THRESHOLD) / CY_DELAY_1K_THRESHOLD;
 3281              		.loc 1 2624 0
 3282 0034 0A4B     		ldr	r3, .L243
 3283 0036 1B68     		ldr	r3, [r3]
 3284 0038 0E4A     		ldr	r2, .L243+20
 3285 003a 9B18     		add	r3, r3, r2
 3286 003c 181C     		mov	r0, r3
 3287 003e FA23     		mov	r3, #250
 3288 0040 9900     		lsl	r1, r3, #2
 3289 0042 FFF7FEFF 		bl	__aeabi_uidiv
ARM GAS  C:\DOCUME~1\Owner\LOCALS~1\Temp\cc3gLjSb.s 			page 105


 3290 0046 031C     		mov	r3, r0
 3291 0048 1A1C     		mov	r2, r3
 3292 004a 0B4B     		ldr	r3, .L243+24
 3293 004c 1A60     		str	r2, [r3]
2625:.\Generated_Source\PSoC4/CyLib.c ****     cydelay32kMs   = CY_DELAY_MS_OVERFLOW * cydelayFreqKhz;
 3294              		.loc 1 2625 0
 3295 004e 0A4B     		ldr	r3, .L243+24
 3296 0050 1B68     		ldr	r3, [r3]
 3297 0052 DA03     		lsl	r2, r3, #15
 3298 0054 094B     		ldr	r3, .L243+28
 3299 0056 1A60     		str	r2, [r3]
2626:.\Generated_Source\PSoC4/CyLib.c **** }
 3300              		.loc 1 2626 0
 3301 0058 BD46     		mov	sp, r7
 3302 005a 02B0     		add	sp, sp, #8
 3303              		@ sp needed
 3304 005c 80BD     		pop	{r7, pc}
 3305              	.L244:
 3306 005e C046     		.align	2
 3307              	.L243:
 3308 0060 00000000 		.word	cydelayFreqHz
 3309 0064 00366E01 		.word	24000000
 3310 0068 3F420F00 		.word	999999
 3311 006c 40420F00 		.word	1000000
 3312 0070 00000000 		.word	cydelayFreqMhz
 3313 0074 E7030000 		.word	999
 3314 0078 00000000 		.word	cydelayFreqKhz
 3315 007c 00000000 		.word	cydelay32kMs
 3316              		.cfi_endproc
 3317              	.LFE52:
 3318              		.size	CyDelayFreq, .-CyDelayFreq
 3319              		.section	.text.CySysTickStart,"ax",%progbits
 3320              		.align	2
 3321              		.global	CySysTickStart
 3322              		.code	16
 3323              		.thumb_func
 3324              		.type	CySysTickStart, %function
 3325              	CySysTickStart:
 3326              	.LFB53:
2627:.\Generated_Source\PSoC4/CyLib.c **** 
2628:.\Generated_Source\PSoC4/CyLib.c **** 
2629:.\Generated_Source\PSoC4/CyLib.c **** /*******************************************************************************
2630:.\Generated_Source\PSoC4/CyLib.c **** * Function Name: CySysTick_Start
2631:.\Generated_Source\PSoC4/CyLib.c **** ********************************************************************************
2632:.\Generated_Source\PSoC4/CyLib.c **** *
2633:.\Generated_Source\PSoC4/CyLib.c **** * Summary:
2634:.\Generated_Source\PSoC4/CyLib.c **** *  Starts the system timer (SysTick): configures SysTick to generate interrupt
2635:.\Generated_Source\PSoC4/CyLib.c **** *  every 1 ms and enables the interrupt.
2636:.\Generated_Source\PSoC4/CyLib.c **** *
2637:.\Generated_Source\PSoC4/CyLib.c **** * Parameters:
2638:.\Generated_Source\PSoC4/CyLib.c **** *  None
2639:.\Generated_Source\PSoC4/CyLib.c **** *
2640:.\Generated_Source\PSoC4/CyLib.c **** * Return:
2641:.\Generated_Source\PSoC4/CyLib.c **** *  None
2642:.\Generated_Source\PSoC4/CyLib.c **** *
2643:.\Generated_Source\PSoC4/CyLib.c **** * Side Effects:
2644:.\Generated_Source\PSoC4/CyLib.c **** *  Clears SysTick count flag if it was set.
ARM GAS  C:\DOCUME~1\Owner\LOCALS~1\Temp\cc3gLjSb.s 			page 106


2645:.\Generated_Source\PSoC4/CyLib.c **** *
2646:.\Generated_Source\PSoC4/CyLib.c **** *******************************************************************************/
2647:.\Generated_Source\PSoC4/CyLib.c **** void CySysTickStart(void)
2648:.\Generated_Source\PSoC4/CyLib.c **** {
 3327              		.loc 1 2648 0
 3328              		.cfi_startproc
 3329 0000 80B5     		push	{r7, lr}
 3330              		.cfi_def_cfa_offset 8
 3331              		.cfi_offset 7, -8
 3332              		.cfi_offset 14, -4
 3333 0002 00AF     		add	r7, sp, #0
 3334              		.cfi_def_cfa_register 7
2649:.\Generated_Source\PSoC4/CyLib.c ****     if (0u == CySysTickInitVar)
 3335              		.loc 1 2649 0
 3336 0004 064B     		ldr	r3, .L247
 3337 0006 1B68     		ldr	r3, [r3]
 3338 0008 002B     		cmp	r3, #0
 3339 000a 04D1     		bne	.L246
2650:.\Generated_Source\PSoC4/CyLib.c ****     {
2651:.\Generated_Source\PSoC4/CyLib.c ****         CySysTickInit();
 3340              		.loc 1 2651 0
 3341 000c FFF7FEFF 		bl	CySysTickInit
2652:.\Generated_Source\PSoC4/CyLib.c ****         CySysTickInitVar = 1u;
 3342              		.loc 1 2652 0
 3343 0010 034B     		ldr	r3, .L247
 3344 0012 0122     		mov	r2, #1
 3345 0014 1A60     		str	r2, [r3]
 3346              	.L246:
2653:.\Generated_Source\PSoC4/CyLib.c ****     }
2654:.\Generated_Source\PSoC4/CyLib.c **** 
2655:.\Generated_Source\PSoC4/CyLib.c ****     CySysTickEnable();
 3347              		.loc 1 2655 0
 3348 0016 FFF7FEFF 		bl	CySysTickEnable
2656:.\Generated_Source\PSoC4/CyLib.c **** }
 3349              		.loc 1 2656 0
 3350 001a BD46     		mov	sp, r7
 3351              		@ sp needed
 3352 001c 80BD     		pop	{r7, pc}
 3353              	.L248:
 3354 001e C046     		.align	2
 3355              	.L247:
 3356 0020 00000000 		.word	CySysTickInitVar
 3357              		.cfi_endproc
 3358              	.LFE53:
 3359              		.size	CySysTickStart, .-CySysTickStart
 3360              		.section	.text.CySysTickInit,"ax",%progbits
 3361              		.align	2
 3362              		.global	CySysTickInit
 3363              		.code	16
 3364              		.thumb_func
 3365              		.type	CySysTickInit, %function
 3366              	CySysTickInit:
 3367              	.LFB54:
2657:.\Generated_Source\PSoC4/CyLib.c **** 
2658:.\Generated_Source\PSoC4/CyLib.c **** 
2659:.\Generated_Source\PSoC4/CyLib.c **** /*******************************************************************************
2660:.\Generated_Source\PSoC4/CyLib.c **** * Function Name: CySysTickInit
ARM GAS  C:\DOCUME~1\Owner\LOCALS~1\Temp\cc3gLjSb.s 			page 107


2661:.\Generated_Source\PSoC4/CyLib.c **** ********************************************************************************
2662:.\Generated_Source\PSoC4/CyLib.c **** *
2663:.\Generated_Source\PSoC4/CyLib.c **** * Summary:
2664:.\Generated_Source\PSoC4/CyLib.c **** *  Sets CySysTickServiceCallbacks() as an ISR for the SysTick exception.
2665:.\Generated_Source\PSoC4/CyLib.c **** *  The clock source for the SysTick counter is set to the System Clock.
2666:.\Generated_Source\PSoC4/CyLib.c **** *  The SysTick reload value is configured for the timer to generate interrupt
2667:.\Generated_Source\PSoC4/CyLib.c **** *  every 1 ms. The System clock value is on the global variables cydelayFreqHz.
2668:.\Generated_Source\PSoC4/CyLib.c **** *  User is responsible for calling CyDelayFreq() function.
2669:.\Generated_Source\PSoC4/CyLib.c **** *  Initializes CySysTickCallbacks array.
2670:.\Generated_Source\PSoC4/CyLib.c **** *
2671:.\Generated_Source\PSoC4/CyLib.c **** * Parameters:
2672:.\Generated_Source\PSoC4/CyLib.c **** *  None
2673:.\Generated_Source\PSoC4/CyLib.c **** *
2674:.\Generated_Source\PSoC4/CyLib.c **** * Return:
2675:.\Generated_Source\PSoC4/CyLib.c **** *  None
2676:.\Generated_Source\PSoC4/CyLib.c **** *
2677:.\Generated_Source\PSoC4/CyLib.c **** * Side Effects:
2678:.\Generated_Source\PSoC4/CyLib.c **** *  Clears SysTick count flag if it was set
2679:.\Generated_Source\PSoC4/CyLib.c **** *
2680:.\Generated_Source\PSoC4/CyLib.c **** *******************************************************************************/
2681:.\Generated_Source\PSoC4/CyLib.c **** void CySysTickInit(void)
2682:.\Generated_Source\PSoC4/CyLib.c **** {
 3368              		.loc 1 2682 0
 3369              		.cfi_startproc
 3370 0000 80B5     		push	{r7, lr}
 3371              		.cfi_def_cfa_offset 8
 3372              		.cfi_offset 7, -8
 3373              		.cfi_offset 14, -4
 3374 0002 82B0     		sub	sp, sp, #8
 3375              		.cfi_def_cfa_offset 16
 3376 0004 00AF     		add	r7, sp, #0
 3377              		.cfi_def_cfa_register 7
2683:.\Generated_Source\PSoC4/CyLib.c ****     uint32 i;
2684:.\Generated_Source\PSoC4/CyLib.c **** 
2685:.\Generated_Source\PSoC4/CyLib.c ****     for (i = 0u; i<CY_SYS_SYST_NUM_OF_CALLBACKS; i++)
 3378              		.loc 1 2685 0
 3379 0006 0023     		mov	r3, #0
 3380 0008 7B60     		str	r3, [r7, #4]
 3381 000a 07E0     		b	.L250
 3382              	.L251:
2686:.\Generated_Source\PSoC4/CyLib.c ****     {
2687:.\Generated_Source\PSoC4/CyLib.c ****         CySysTickCallbacks[i] = (void *) 0;
 3383              		.loc 1 2687 0 discriminator 2
 3384 000c 114B     		ldr	r3, .L252
 3385 000e 7A68     		ldr	r2, [r7, #4]
 3386 0010 9200     		lsl	r2, r2, #2
 3387 0012 0021     		mov	r1, #0
 3388 0014 D150     		str	r1, [r2, r3]
2685:.\Generated_Source\PSoC4/CyLib.c ****     for (i = 0u; i<CY_SYS_SYST_NUM_OF_CALLBACKS; i++)
 3389              		.loc 1 2685 0 discriminator 2
 3390 0016 7B68     		ldr	r3, [r7, #4]
 3391 0018 0133     		add	r3, r3, #1
 3392 001a 7B60     		str	r3, [r7, #4]
 3393              	.L250:
2685:.\Generated_Source\PSoC4/CyLib.c ****     for (i = 0u; i<CY_SYS_SYST_NUM_OF_CALLBACKS; i++)
 3394              		.loc 1 2685 0 is_stmt 0 discriminator 1
 3395 001c 7B68     		ldr	r3, [r7, #4]
ARM GAS  C:\DOCUME~1\Owner\LOCALS~1\Temp\cc3gLjSb.s 			page 108


 3396 001e 042B     		cmp	r3, #4
 3397 0020 F4D9     		bls	.L251
2688:.\Generated_Source\PSoC4/CyLib.c ****     }
2689:.\Generated_Source\PSoC4/CyLib.c **** 
2690:.\Generated_Source\PSoC4/CyLib.c ****     (void) CyIntSetSysVector(CY_INT_SYSTICK_IRQN, &CySysTickServiceCallbacks);
 3398              		.loc 1 2690 0 is_stmt 1
 3399 0022 0D4B     		ldr	r3, .L252+4
 3400 0024 0F20     		mov	r0, #15
 3401 0026 191C     		mov	r1, r3
 3402 0028 FFF7FEFF 		bl	CyIntSetSysVector
2691:.\Generated_Source\PSoC4/CyLib.c **** 
2692:.\Generated_Source\PSoC4/CyLib.c ****     #if(CY_PSOC4_4100BL || CY_PSOC4_4200BL || CY_PSOC5)
2693:.\Generated_Source\PSoC4/CyLib.c ****         CySysTickSetClockSource(CY_SYS_SYST_CSR_CLK_SRC_SYSCLK);
2694:.\Generated_Source\PSoC4/CyLib.c ****     #endif /* (CY_PSOC4_4100BL || CY_PSOC4_4200BL || CY_PSOC5) */
2695:.\Generated_Source\PSoC4/CyLib.c **** 
2696:.\Generated_Source\PSoC4/CyLib.c ****     CySysTickSetReload(cydelayFreqHz/1000u);
 3403              		.loc 1 2696 0
 3404 002c 0B4B     		ldr	r3, .L252+8
 3405 002e 1B68     		ldr	r3, [r3]
 3406 0030 181C     		mov	r0, r3
 3407 0032 FA23     		mov	r3, #250
 3408 0034 9900     		lsl	r1, r3, #2
 3409 0036 FFF7FEFF 		bl	__aeabi_uidiv
 3410 003a 031C     		mov	r3, r0
 3411 003c 181C     		mov	r0, r3
 3412 003e FFF7FEFF 		bl	CySysTickSetReload
2697:.\Generated_Source\PSoC4/CyLib.c ****     CySysTickClear();
 3413              		.loc 1 2697 0
 3414 0042 FFF7FEFF 		bl	CySysTickClear
2698:.\Generated_Source\PSoC4/CyLib.c ****     CyIntEnable(CY_INT_SYSTICK_IRQN);
 3415              		.loc 1 2698 0
 3416 0046 0F20     		mov	r0, #15
 3417 0048 FFF7FEFF 		bl	CyIntEnable
2699:.\Generated_Source\PSoC4/CyLib.c **** }
 3418              		.loc 1 2699 0
 3419 004c BD46     		mov	sp, r7
 3420 004e 02B0     		add	sp, sp, #8
 3421              		@ sp needed
 3422 0050 80BD     		pop	{r7, pc}
 3423              	.L253:
 3424 0052 C046     		.align	2
 3425              	.L252:
 3426 0054 0C000000 		.word	CySysTickCallbacks
 3427 0058 00000000 		.word	CySysTickServiceCallbacks
 3428 005c 00000000 		.word	cydelayFreqHz
 3429              		.cfi_endproc
 3430              	.LFE54:
 3431              		.size	CySysTickInit, .-CySysTickInit
 3432              		.section	.text.CySysTickEnable,"ax",%progbits
 3433              		.align	2
 3434              		.global	CySysTickEnable
 3435              		.code	16
 3436              		.thumb_func
 3437              		.type	CySysTickEnable, %function
 3438              	CySysTickEnable:
 3439              	.LFB55:
2700:.\Generated_Source\PSoC4/CyLib.c **** 
ARM GAS  C:\DOCUME~1\Owner\LOCALS~1\Temp\cc3gLjSb.s 			page 109


2701:.\Generated_Source\PSoC4/CyLib.c **** 
2702:.\Generated_Source\PSoC4/CyLib.c **** /*******************************************************************************
2703:.\Generated_Source\PSoC4/CyLib.c **** * Function Name: CySysTickEnable
2704:.\Generated_Source\PSoC4/CyLib.c **** ********************************************************************************
2705:.\Generated_Source\PSoC4/CyLib.c **** *
2706:.\Generated_Source\PSoC4/CyLib.c **** * Summary:
2707:.\Generated_Source\PSoC4/CyLib.c **** *  Enables the SysTick timer and its interrupt.
2708:.\Generated_Source\PSoC4/CyLib.c **** *
2709:.\Generated_Source\PSoC4/CyLib.c **** * Parameters:
2710:.\Generated_Source\PSoC4/CyLib.c **** *  None
2711:.\Generated_Source\PSoC4/CyLib.c **** *
2712:.\Generated_Source\PSoC4/CyLib.c **** * Return:
2713:.\Generated_Source\PSoC4/CyLib.c **** *  None
2714:.\Generated_Source\PSoC4/CyLib.c **** *
2715:.\Generated_Source\PSoC4/CyLib.c **** * Side Effects:
2716:.\Generated_Source\PSoC4/CyLib.c **** *  Clears SysTick count flag if it was set
2717:.\Generated_Source\PSoC4/CyLib.c **** *
2718:.\Generated_Source\PSoC4/CyLib.c **** *******************************************************************************/
2719:.\Generated_Source\PSoC4/CyLib.c **** void CySysTickEnable(void)
2720:.\Generated_Source\PSoC4/CyLib.c **** {
 3440              		.loc 1 2720 0
 3441              		.cfi_startproc
 3442 0000 80B5     		push	{r7, lr}
 3443              		.cfi_def_cfa_offset 8
 3444              		.cfi_offset 7, -8
 3445              		.cfi_offset 14, -4
 3446 0002 00AF     		add	r7, sp, #0
 3447              		.cfi_def_cfa_register 7
2721:.\Generated_Source\PSoC4/CyLib.c ****     CySysTickEnableInterrupt();
 3448              		.loc 1 2721 0
 3449 0004 FFF7FEFF 		bl	CySysTickEnableInterrupt
2722:.\Generated_Source\PSoC4/CyLib.c ****     CY_SYS_SYST_CSR_REG |= CY_SYS_SYST_CSR_ENABLE;
 3450              		.loc 1 2722 0
 3451 0008 034B     		ldr	r3, .L255
 3452 000a 034A     		ldr	r2, .L255
 3453 000c 1268     		ldr	r2, [r2]
 3454 000e 0121     		mov	r1, #1
 3455 0010 0A43     		orr	r2, r1
 3456 0012 1A60     		str	r2, [r3]
2723:.\Generated_Source\PSoC4/CyLib.c **** }
 3457              		.loc 1 2723 0
 3458 0014 BD46     		mov	sp, r7
 3459              		@ sp needed
 3460 0016 80BD     		pop	{r7, pc}
 3461              	.L256:
 3462              		.align	2
 3463              	.L255:
 3464 0018 10E000E0 		.word	-536813552
 3465              		.cfi_endproc
 3466              	.LFE55:
 3467              		.size	CySysTickEnable, .-CySysTickEnable
 3468              		.section	.text.CySysTickStop,"ax",%progbits
 3469              		.align	2
 3470              		.global	CySysTickStop
 3471              		.code	16
 3472              		.thumb_func
 3473              		.type	CySysTickStop, %function
ARM GAS  C:\DOCUME~1\Owner\LOCALS~1\Temp\cc3gLjSb.s 			page 110


 3474              	CySysTickStop:
 3475              	.LFB56:
2724:.\Generated_Source\PSoC4/CyLib.c **** 
2725:.\Generated_Source\PSoC4/CyLib.c **** 
2726:.\Generated_Source\PSoC4/CyLib.c **** /*******************************************************************************
2727:.\Generated_Source\PSoC4/CyLib.c **** * Function Name: CySysTickStop
2728:.\Generated_Source\PSoC4/CyLib.c **** ********************************************************************************
2729:.\Generated_Source\PSoC4/CyLib.c **** *
2730:.\Generated_Source\PSoC4/CyLib.c **** * Summary:
2731:.\Generated_Source\PSoC4/CyLib.c **** *  Stops the system timer (SysTick).
2732:.\Generated_Source\PSoC4/CyLib.c **** *
2733:.\Generated_Source\PSoC4/CyLib.c **** * Parameters:
2734:.\Generated_Source\PSoC4/CyLib.c **** *  None
2735:.\Generated_Source\PSoC4/CyLib.c **** *
2736:.\Generated_Source\PSoC4/CyLib.c **** * Return:
2737:.\Generated_Source\PSoC4/CyLib.c **** *  None
2738:.\Generated_Source\PSoC4/CyLib.c **** *
2739:.\Generated_Source\PSoC4/CyLib.c **** * Side Effects:
2740:.\Generated_Source\PSoC4/CyLib.c **** *  Clears SysTick count flag if it was set
2741:.\Generated_Source\PSoC4/CyLib.c **** *
2742:.\Generated_Source\PSoC4/CyLib.c **** *******************************************************************************/
2743:.\Generated_Source\PSoC4/CyLib.c **** void CySysTickStop(void)
2744:.\Generated_Source\PSoC4/CyLib.c **** {
 3476              		.loc 1 2744 0
 3477              		.cfi_startproc
 3478 0000 80B5     		push	{r7, lr}
 3479              		.cfi_def_cfa_offset 8
 3480              		.cfi_offset 7, -8
 3481              		.cfi_offset 14, -4
 3482 0002 00AF     		add	r7, sp, #0
 3483              		.cfi_def_cfa_register 7
2745:.\Generated_Source\PSoC4/CyLib.c ****     CY_SYS_SYST_CSR_REG &= ((uint32) ~(CY_SYS_SYST_CSR_ENABLE));
 3484              		.loc 1 2745 0
 3485 0004 034B     		ldr	r3, .L258
 3486 0006 034A     		ldr	r2, .L258
 3487 0008 1268     		ldr	r2, [r2]
 3488 000a 0121     		mov	r1, #1
 3489 000c 8A43     		bic	r2, r1
 3490 000e 1A60     		str	r2, [r3]
2746:.\Generated_Source\PSoC4/CyLib.c **** }
 3491              		.loc 1 2746 0
 3492 0010 BD46     		mov	sp, r7
 3493              		@ sp needed
 3494 0012 80BD     		pop	{r7, pc}
 3495              	.L259:
 3496              		.align	2
 3497              	.L258:
 3498 0014 10E000E0 		.word	-536813552
 3499              		.cfi_endproc
 3500              	.LFE56:
 3501              		.size	CySysTickStop, .-CySysTickStop
 3502              		.section	.text.CySysTickEnableInterrupt,"ax",%progbits
 3503              		.align	2
 3504              		.global	CySysTickEnableInterrupt
 3505              		.code	16
 3506              		.thumb_func
 3507              		.type	CySysTickEnableInterrupt, %function
ARM GAS  C:\DOCUME~1\Owner\LOCALS~1\Temp\cc3gLjSb.s 			page 111


 3508              	CySysTickEnableInterrupt:
 3509              	.LFB57:
2747:.\Generated_Source\PSoC4/CyLib.c **** 
2748:.\Generated_Source\PSoC4/CyLib.c **** 
2749:.\Generated_Source\PSoC4/CyLib.c **** /*******************************************************************************
2750:.\Generated_Source\PSoC4/CyLib.c **** * Function Name: CySysTickEnableInterrupt
2751:.\Generated_Source\PSoC4/CyLib.c **** ********************************************************************************
2752:.\Generated_Source\PSoC4/CyLib.c **** *
2753:.\Generated_Source\PSoC4/CyLib.c **** * Summary:
2754:.\Generated_Source\PSoC4/CyLib.c **** *  Enables the SysTick interrupt.
2755:.\Generated_Source\PSoC4/CyLib.c **** *
2756:.\Generated_Source\PSoC4/CyLib.c **** * Parameters:
2757:.\Generated_Source\PSoC4/CyLib.c **** *  None
2758:.\Generated_Source\PSoC4/CyLib.c **** *
2759:.\Generated_Source\PSoC4/CyLib.c **** * Return:
2760:.\Generated_Source\PSoC4/CyLib.c **** *  None
2761:.\Generated_Source\PSoC4/CyLib.c **** *
2762:.\Generated_Source\PSoC4/CyLib.c **** * Side Effects:
2763:.\Generated_Source\PSoC4/CyLib.c **** *  Clears SysTick count flag if it was set
2764:.\Generated_Source\PSoC4/CyLib.c **** *
2765:.\Generated_Source\PSoC4/CyLib.c **** *******************************************************************************/
2766:.\Generated_Source\PSoC4/CyLib.c **** void CySysTickEnableInterrupt(void)
2767:.\Generated_Source\PSoC4/CyLib.c **** {
 3510              		.loc 1 2767 0
 3511              		.cfi_startproc
 3512 0000 80B5     		push	{r7, lr}
 3513              		.cfi_def_cfa_offset 8
 3514              		.cfi_offset 7, -8
 3515              		.cfi_offset 14, -4
 3516 0002 00AF     		add	r7, sp, #0
 3517              		.cfi_def_cfa_register 7
2768:.\Generated_Source\PSoC4/CyLib.c ****     CY_SYS_SYST_CSR_REG |= CY_SYS_SYST_CSR_ENABLE_INT;
 3518              		.loc 1 2768 0
 3519 0004 034B     		ldr	r3, .L261
 3520 0006 034A     		ldr	r2, .L261
 3521 0008 1268     		ldr	r2, [r2]
 3522 000a 0221     		mov	r1, #2
 3523 000c 0A43     		orr	r2, r1
 3524 000e 1A60     		str	r2, [r3]
2769:.\Generated_Source\PSoC4/CyLib.c **** }
 3525              		.loc 1 2769 0
 3526 0010 BD46     		mov	sp, r7
 3527              		@ sp needed
 3528 0012 80BD     		pop	{r7, pc}
 3529              	.L262:
 3530              		.align	2
 3531              	.L261:
 3532 0014 10E000E0 		.word	-536813552
 3533              		.cfi_endproc
 3534              	.LFE57:
 3535              		.size	CySysTickEnableInterrupt, .-CySysTickEnableInterrupt
 3536              		.section	.text.CySysTickDisableInterrupt,"ax",%progbits
 3537              		.align	2
 3538              		.global	CySysTickDisableInterrupt
 3539              		.code	16
 3540              		.thumb_func
 3541              		.type	CySysTickDisableInterrupt, %function
ARM GAS  C:\DOCUME~1\Owner\LOCALS~1\Temp\cc3gLjSb.s 			page 112


 3542              	CySysTickDisableInterrupt:
 3543              	.LFB58:
2770:.\Generated_Source\PSoC4/CyLib.c **** 
2771:.\Generated_Source\PSoC4/CyLib.c **** 
2772:.\Generated_Source\PSoC4/CyLib.c **** /*******************************************************************************
2773:.\Generated_Source\PSoC4/CyLib.c **** * Function Name: CySysTickDisableInterrupt
2774:.\Generated_Source\PSoC4/CyLib.c **** ********************************************************************************
2775:.\Generated_Source\PSoC4/CyLib.c **** *
2776:.\Generated_Source\PSoC4/CyLib.c **** * Summary:
2777:.\Generated_Source\PSoC4/CyLib.c **** *  Disables the SysTick interrupt.
2778:.\Generated_Source\PSoC4/CyLib.c **** *
2779:.\Generated_Source\PSoC4/CyLib.c **** * Parameters:
2780:.\Generated_Source\PSoC4/CyLib.c **** *  None
2781:.\Generated_Source\PSoC4/CyLib.c **** *
2782:.\Generated_Source\PSoC4/CyLib.c **** * Return:
2783:.\Generated_Source\PSoC4/CyLib.c **** *  None
2784:.\Generated_Source\PSoC4/CyLib.c **** *
2785:.\Generated_Source\PSoC4/CyLib.c **** * Side Effects:
2786:.\Generated_Source\PSoC4/CyLib.c **** *  Clears SysTick count flag if it was set
2787:.\Generated_Source\PSoC4/CyLib.c **** *
2788:.\Generated_Source\PSoC4/CyLib.c **** *******************************************************************************/
2789:.\Generated_Source\PSoC4/CyLib.c **** void CySysTickDisableInterrupt(void)
2790:.\Generated_Source\PSoC4/CyLib.c **** {
 3544              		.loc 1 2790 0
 3545              		.cfi_startproc
 3546 0000 80B5     		push	{r7, lr}
 3547              		.cfi_def_cfa_offset 8
 3548              		.cfi_offset 7, -8
 3549              		.cfi_offset 14, -4
 3550 0002 00AF     		add	r7, sp, #0
 3551              		.cfi_def_cfa_register 7
2791:.\Generated_Source\PSoC4/CyLib.c ****     CY_SYS_SYST_CSR_REG &= ((uint32) ~(CY_SYS_SYST_CSR_ENABLE_INT));
 3552              		.loc 1 2791 0
 3553 0004 034B     		ldr	r3, .L264
 3554 0006 034A     		ldr	r2, .L264
 3555 0008 1268     		ldr	r2, [r2]
 3556 000a 0221     		mov	r1, #2
 3557 000c 8A43     		bic	r2, r1
 3558 000e 1A60     		str	r2, [r3]
2792:.\Generated_Source\PSoC4/CyLib.c **** }
 3559              		.loc 1 2792 0
 3560 0010 BD46     		mov	sp, r7
 3561              		@ sp needed
 3562 0012 80BD     		pop	{r7, pc}
 3563              	.L265:
 3564              		.align	2
 3565              	.L264:
 3566 0014 10E000E0 		.word	-536813552
 3567              		.cfi_endproc
 3568              	.LFE58:
 3569              		.size	CySysTickDisableInterrupt, .-CySysTickDisableInterrupt
 3570              		.section	.text.CySysTickSetReload,"ax",%progbits
 3571              		.align	2
 3572              		.global	CySysTickSetReload
 3573              		.code	16
 3574              		.thumb_func
 3575              		.type	CySysTickSetReload, %function
ARM GAS  C:\DOCUME~1\Owner\LOCALS~1\Temp\cc3gLjSb.s 			page 113


 3576              	CySysTickSetReload:
 3577              	.LFB59:
2793:.\Generated_Source\PSoC4/CyLib.c **** 
2794:.\Generated_Source\PSoC4/CyLib.c **** 
2795:.\Generated_Source\PSoC4/CyLib.c **** /*******************************************************************************
2796:.\Generated_Source\PSoC4/CyLib.c **** * Function Name: CySysTickSetReload
2797:.\Generated_Source\PSoC4/CyLib.c **** ********************************************************************************
2798:.\Generated_Source\PSoC4/CyLib.c **** *
2799:.\Generated_Source\PSoC4/CyLib.c **** * Summary:
2800:.\Generated_Source\PSoC4/CyLib.c **** *  Sets value the counter is set to on startup and after it reaches zero. This
2801:.\Generated_Source\PSoC4/CyLib.c **** *  function do not change or reset current sysTick counter value, so it should
2802:.\Generated_Source\PSoC4/CyLib.c **** *  be cleared using CySysTickClear() API.
2803:.\Generated_Source\PSoC4/CyLib.c **** *
2804:.\Generated_Source\PSoC4/CyLib.c **** * Parameters:
2805:.\Generated_Source\PSoC4/CyLib.c **** *  value: Valid range [0x0-0x00FFFFFF]. Counter reset value
2806:.\Generated_Source\PSoC4/CyLib.c **** *
2807:.\Generated_Source\PSoC4/CyLib.c **** * Return:
2808:.\Generated_Source\PSoC4/CyLib.c **** *  None
2809:.\Generated_Source\PSoC4/CyLib.c **** *
2810:.\Generated_Source\PSoC4/CyLib.c **** *******************************************************************************/
2811:.\Generated_Source\PSoC4/CyLib.c **** void CySysTickSetReload(uint32 value)
2812:.\Generated_Source\PSoC4/CyLib.c **** {
 3578              		.loc 1 2812 0
 3579              		.cfi_startproc
 3580 0000 80B5     		push	{r7, lr}
 3581              		.cfi_def_cfa_offset 8
 3582              		.cfi_offset 7, -8
 3583              		.cfi_offset 14, -4
 3584 0002 82B0     		sub	sp, sp, #8
 3585              		.cfi_def_cfa_offset 16
 3586 0004 00AF     		add	r7, sp, #0
 3587              		.cfi_def_cfa_register 7
 3588 0006 7860     		str	r0, [r7, #4]
2813:.\Generated_Source\PSoC4/CyLib.c ****     CY_SYS_SYST_RVR_REG = (value & CY_SYS_SYST_RVR_CNT_MASK);
 3589              		.loc 1 2813 0
 3590 0008 034B     		ldr	r3, .L267
 3591 000a 7A68     		ldr	r2, [r7, #4]
 3592 000c 1202     		lsl	r2, r2, #8
 3593 000e 120A     		lsr	r2, r2, #8
 3594 0010 1A60     		str	r2, [r3]
2814:.\Generated_Source\PSoC4/CyLib.c **** }
 3595              		.loc 1 2814 0
 3596 0012 BD46     		mov	sp, r7
 3597 0014 02B0     		add	sp, sp, #8
 3598              		@ sp needed
 3599 0016 80BD     		pop	{r7, pc}
 3600              	.L268:
 3601              		.align	2
 3602              	.L267:
 3603 0018 14E000E0 		.word	-536813548
 3604              		.cfi_endproc
 3605              	.LFE59:
 3606              		.size	CySysTickSetReload, .-CySysTickSetReload
 3607              		.section	.text.CySysTickGetReload,"ax",%progbits
 3608              		.align	2
 3609              		.global	CySysTickGetReload
 3610              		.code	16
ARM GAS  C:\DOCUME~1\Owner\LOCALS~1\Temp\cc3gLjSb.s 			page 114


 3611              		.thumb_func
 3612              		.type	CySysTickGetReload, %function
 3613              	CySysTickGetReload:
 3614              	.LFB60:
2815:.\Generated_Source\PSoC4/CyLib.c **** 
2816:.\Generated_Source\PSoC4/CyLib.c **** 
2817:.\Generated_Source\PSoC4/CyLib.c **** /*******************************************************************************
2818:.\Generated_Source\PSoC4/CyLib.c **** * Function Name: CySysTickGetReload
2819:.\Generated_Source\PSoC4/CyLib.c **** ********************************************************************************
2820:.\Generated_Source\PSoC4/CyLib.c **** *
2821:.\Generated_Source\PSoC4/CyLib.c **** * Summary:
2822:.\Generated_Source\PSoC4/CyLib.c **** *  Sets value the counter is set to on startup and after it reaches zero.
2823:.\Generated_Source\PSoC4/CyLib.c **** *
2824:.\Generated_Source\PSoC4/CyLib.c **** * Parameters:
2825:.\Generated_Source\PSoC4/CyLib.c **** *  None
2826:.\Generated_Source\PSoC4/CyLib.c **** *
2827:.\Generated_Source\PSoC4/CyLib.c **** * Return:
2828:.\Generated_Source\PSoC4/CyLib.c **** *  Counter reset value.
2829:.\Generated_Source\PSoC4/CyLib.c **** *
2830:.\Generated_Source\PSoC4/CyLib.c **** *******************************************************************************/
2831:.\Generated_Source\PSoC4/CyLib.c **** uint32 CySysTickGetReload(void)
2832:.\Generated_Source\PSoC4/CyLib.c **** {
 3615              		.loc 1 2832 0
 3616              		.cfi_startproc
 3617 0000 80B5     		push	{r7, lr}
 3618              		.cfi_def_cfa_offset 8
 3619              		.cfi_offset 7, -8
 3620              		.cfi_offset 14, -4
 3621 0002 00AF     		add	r7, sp, #0
 3622              		.cfi_def_cfa_register 7
2833:.\Generated_Source\PSoC4/CyLib.c ****     return(CY_SYS_SYST_RVR_REG & CY_SYS_SYST_RVR_CNT_MASK);
 3623              		.loc 1 2833 0
 3624 0004 034B     		ldr	r3, .L271
 3625 0006 1B68     		ldr	r3, [r3]
 3626 0008 1B02     		lsl	r3, r3, #8
 3627 000a 1B0A     		lsr	r3, r3, #8
2834:.\Generated_Source\PSoC4/CyLib.c **** }
 3628              		.loc 1 2834 0
 3629 000c 181C     		mov	r0, r3
 3630 000e BD46     		mov	sp, r7
 3631              		@ sp needed
 3632 0010 80BD     		pop	{r7, pc}
 3633              	.L272:
 3634 0012 C046     		.align	2
 3635              	.L271:
 3636 0014 14E000E0 		.word	-536813548
 3637              		.cfi_endproc
 3638              	.LFE60:
 3639              		.size	CySysTickGetReload, .-CySysTickGetReload
 3640              		.section	.text.CySysTickGetValue,"ax",%progbits
 3641              		.align	2
 3642              		.global	CySysTickGetValue
 3643              		.code	16
 3644              		.thumb_func
 3645              		.type	CySysTickGetValue, %function
 3646              	CySysTickGetValue:
 3647              	.LFB61:
ARM GAS  C:\DOCUME~1\Owner\LOCALS~1\Temp\cc3gLjSb.s 			page 115


2835:.\Generated_Source\PSoC4/CyLib.c **** 
2836:.\Generated_Source\PSoC4/CyLib.c **** 
2837:.\Generated_Source\PSoC4/CyLib.c **** /*******************************************************************************
2838:.\Generated_Source\PSoC4/CyLib.c **** * Function Name: CySysTickGetValue
2839:.\Generated_Source\PSoC4/CyLib.c **** ********************************************************************************
2840:.\Generated_Source\PSoC4/CyLib.c **** *
2841:.\Generated_Source\PSoC4/CyLib.c **** * Summary:
2842:.\Generated_Source\PSoC4/CyLib.c **** *  Gets current SysTick counter value.
2843:.\Generated_Source\PSoC4/CyLib.c **** *
2844:.\Generated_Source\PSoC4/CyLib.c **** * Parameters:
2845:.\Generated_Source\PSoC4/CyLib.c **** *  None
2846:.\Generated_Source\PSoC4/CyLib.c **** *
2847:.\Generated_Source\PSoC4/CyLib.c **** * Return:
2848:.\Generated_Source\PSoC4/CyLib.c **** *  Current SysTick counter value
2849:.\Generated_Source\PSoC4/CyLib.c **** *
2850:.\Generated_Source\PSoC4/CyLib.c **** *******************************************************************************/
2851:.\Generated_Source\PSoC4/CyLib.c **** uint32 CySysTickGetValue(void)
2852:.\Generated_Source\PSoC4/CyLib.c **** {
 3648              		.loc 1 2852 0
 3649              		.cfi_startproc
 3650 0000 80B5     		push	{r7, lr}
 3651              		.cfi_def_cfa_offset 8
 3652              		.cfi_offset 7, -8
 3653              		.cfi_offset 14, -4
 3654 0002 00AF     		add	r7, sp, #0
 3655              		.cfi_def_cfa_register 7
2853:.\Generated_Source\PSoC4/CyLib.c ****     return(CY_SYS_SYST_RVR_REG & CY_SYS_SYST_CVR_REG);
 3656              		.loc 1 2853 0
 3657 0004 034B     		ldr	r3, .L275
 3658 0006 1A68     		ldr	r2, [r3]
 3659 0008 034B     		ldr	r3, .L275+4
 3660 000a 1B68     		ldr	r3, [r3]
 3661 000c 1340     		and	r3, r2
2854:.\Generated_Source\PSoC4/CyLib.c **** }
 3662              		.loc 1 2854 0
 3663 000e 181C     		mov	r0, r3
 3664 0010 BD46     		mov	sp, r7
 3665              		@ sp needed
 3666 0012 80BD     		pop	{r7, pc}
 3667              	.L276:
 3668              		.align	2
 3669              	.L275:
 3670 0014 14E000E0 		.word	-536813548
 3671 0018 18E000E0 		.word	-536813544
 3672              		.cfi_endproc
 3673              	.LFE61:
 3674              		.size	CySysTickGetValue, .-CySysTickGetValue
 3675              		.section	.text.CySysTickGetCountFlag,"ax",%progbits
 3676              		.align	2
 3677              		.global	CySysTickGetCountFlag
 3678              		.code	16
 3679              		.thumb_func
 3680              		.type	CySysTickGetCountFlag, %function
 3681              	CySysTickGetCountFlag:
 3682              	.LFB62:
2855:.\Generated_Source\PSoC4/CyLib.c **** 
2856:.\Generated_Source\PSoC4/CyLib.c **** 
ARM GAS  C:\DOCUME~1\Owner\LOCALS~1\Temp\cc3gLjSb.s 			page 116


2857:.\Generated_Source\PSoC4/CyLib.c **** #if(CY_PSOC4_4100BL || CY_PSOC4_4200BL || CY_PSOC5)
2858:.\Generated_Source\PSoC4/CyLib.c ****     /*******************************************************************************
2859:.\Generated_Source\PSoC4/CyLib.c ****     * Function Name: CySysTickSetClockSource
2860:.\Generated_Source\PSoC4/CyLib.c ****     ********************************************************************************
2861:.\Generated_Source\PSoC4/CyLib.c ****     *
2862:.\Generated_Source\PSoC4/CyLib.c ****     * Summary:
2863:.\Generated_Source\PSoC4/CyLib.c ****     *  Sets the clock source for the SysTick counter.
2864:.\Generated_Source\PSoC4/CyLib.c ****     *
2865:.\Generated_Source\PSoC4/CyLib.c ****     * Parameters:
2866:.\Generated_Source\PSoC4/CyLib.c ****     *  clockSource: Clock source for SysTick counter
2867:.\Generated_Source\PSoC4/CyLib.c ****     *         Define                     Clock Source
2868:.\Generated_Source\PSoC4/CyLib.c ****     *   CY_SYS_SYST_CSR_CLK_SRC_SYSCLK     SysTick is clocked by CPU clock.
2869:.\Generated_Source\PSoC4/CyLib.c ****     *   CY_SYS_SYST_CSR_CLK_SRC_LFCLK      SysTick is clocked by the low frequency clock
2870:.\Generated_Source\PSoC4/CyLib.c ****     *                                 (ILO 100 KHz for PSoC 5LP, LFCLK for PSoC 4).
2871:.\Generated_Source\PSoC4/CyLib.c ****     *
2872:.\Generated_Source\PSoC4/CyLib.c ****     * Return:
2873:.\Generated_Source\PSoC4/CyLib.c ****     *  None
2874:.\Generated_Source\PSoC4/CyLib.c ****     *
2875:.\Generated_Source\PSoC4/CyLib.c ****     * Side Effects:
2876:.\Generated_Source\PSoC4/CyLib.c ****     *  Clears SysTick count flag if it was set. If clock source is not ready this
2877:.\Generated_Source\PSoC4/CyLib.c ****     *  function call will have no effect. After changing clock source to the low frequency
2878:.\Generated_Source\PSoC4/CyLib.c ****     *  clock the counter and reload register values will remain unchanged so time to
2879:.\Generated_Source\PSoC4/CyLib.c ****     *  the interrupt will be significantly bigger and vice versa.
2880:.\Generated_Source\PSoC4/CyLib.c ****     *
2881:.\Generated_Source\PSoC4/CyLib.c ****     *******************************************************************************/
2882:.\Generated_Source\PSoC4/CyLib.c ****     void CySysTickSetClockSource(uint32 clockSource)
2883:.\Generated_Source\PSoC4/CyLib.c ****     {
2884:.\Generated_Source\PSoC4/CyLib.c ****         if (clockSource == CY_SYS_SYST_CSR_CLK_SRC_SYSCLK)
2885:.\Generated_Source\PSoC4/CyLib.c ****         {
2886:.\Generated_Source\PSoC4/CyLib.c ****             CY_SYS_SYST_CSR_REG |= (uint32)(CY_SYS_SYST_CSR_CLK_SRC_SYSCLK << CY_SYS_SYST_CSR_CLK_S
2887:.\Generated_Source\PSoC4/CyLib.c ****         }
2888:.\Generated_Source\PSoC4/CyLib.c ****         else
2889:.\Generated_Source\PSoC4/CyLib.c ****         {
2890:.\Generated_Source\PSoC4/CyLib.c ****             CY_SYS_SYST_CSR_REG &= ((uint32) ~((uint32)(CY_SYS_SYST_CSR_CLK_SRC_SYSCLK << CY_SYS_SY
2891:.\Generated_Source\PSoC4/CyLib.c ****         }
2892:.\Generated_Source\PSoC4/CyLib.c ****     }
2893:.\Generated_Source\PSoC4/CyLib.c **** #endif /* (CY_PSOC4_4100BL || CY_PSOC4_4200BL || CY_PSOC5) */
2894:.\Generated_Source\PSoC4/CyLib.c **** 
2895:.\Generated_Source\PSoC4/CyLib.c **** 
2896:.\Generated_Source\PSoC4/CyLib.c **** /*******************************************************************************
2897:.\Generated_Source\PSoC4/CyLib.c **** * Function Name: CySysTickGetCountFlag
2898:.\Generated_Source\PSoC4/CyLib.c **** ********************************************************************************
2899:.\Generated_Source\PSoC4/CyLib.c **** *
2900:.\Generated_Source\PSoC4/CyLib.c **** * Summary:
2901:.\Generated_Source\PSoC4/CyLib.c **** *  The count flag is set once SysTick counter reaches zero.
2902:.\Generated_Source\PSoC4/CyLib.c **** *   The flag cleared on read.
2903:.\Generated_Source\PSoC4/CyLib.c **** *
2904:.\Generated_Source\PSoC4/CyLib.c **** * Parameters:
2905:.\Generated_Source\PSoC4/CyLib.c **** *  None
2906:.\Generated_Source\PSoC4/CyLib.c **** *
2907:.\Generated_Source\PSoC4/CyLib.c **** * Return:
2908:.\Generated_Source\PSoC4/CyLib.c **** *  Returns non-zero value is counter is set, otherwise zero is returned.
2909:.\Generated_Source\PSoC4/CyLib.c **** *
2910:.\Generated_Source\PSoC4/CyLib.c **** *
2911:.\Generated_Source\PSoC4/CyLib.c **** * Side Effects:
2912:.\Generated_Source\PSoC4/CyLib.c **** *  Clears SysTick count flag if it was set
2913:.\Generated_Source\PSoC4/CyLib.c **** *
ARM GAS  C:\DOCUME~1\Owner\LOCALS~1\Temp\cc3gLjSb.s 			page 117


2914:.\Generated_Source\PSoC4/CyLib.c **** *******************************************************************************/
2915:.\Generated_Source\PSoC4/CyLib.c **** uint32 CySysTickGetCountFlag(void)
2916:.\Generated_Source\PSoC4/CyLib.c **** {
 3683              		.loc 1 2916 0
 3684              		.cfi_startproc
 3685 0000 80B5     		push	{r7, lr}
 3686              		.cfi_def_cfa_offset 8
 3687              		.cfi_offset 7, -8
 3688              		.cfi_offset 14, -4
 3689 0002 00AF     		add	r7, sp, #0
 3690              		.cfi_def_cfa_register 7
2917:.\Generated_Source\PSoC4/CyLib.c ****     return ((CY_SYS_SYST_CSR_REG>>CY_SYS_SYST_CSR_COUNTFLAG_SHIFT) & 0x01u);
 3691              		.loc 1 2917 0
 3692 0004 034B     		ldr	r3, .L279
 3693 0006 1B68     		ldr	r3, [r3]
 3694 0008 1A0C     		lsr	r2, r3, #16
 3695 000a 0123     		mov	r3, #1
 3696 000c 1340     		and	r3, r2
2918:.\Generated_Source\PSoC4/CyLib.c **** }
 3697              		.loc 1 2918 0
 3698 000e 181C     		mov	r0, r3
 3699 0010 BD46     		mov	sp, r7
 3700              		@ sp needed
 3701 0012 80BD     		pop	{r7, pc}
 3702              	.L280:
 3703              		.align	2
 3704              	.L279:
 3705 0014 10E000E0 		.word	-536813552
 3706              		.cfi_endproc
 3707              	.LFE62:
 3708              		.size	CySysTickGetCountFlag, .-CySysTickGetCountFlag
 3709              		.section	.text.CySysTickClear,"ax",%progbits
 3710              		.align	2
 3711              		.global	CySysTickClear
 3712              		.code	16
 3713              		.thumb_func
 3714              		.type	CySysTickClear, %function
 3715              	CySysTickClear:
 3716              	.LFB63:
2919:.\Generated_Source\PSoC4/CyLib.c **** 
2920:.\Generated_Source\PSoC4/CyLib.c **** 
2921:.\Generated_Source\PSoC4/CyLib.c **** /*******************************************************************************
2922:.\Generated_Source\PSoC4/CyLib.c **** * Function Name: CySysTickClear
2923:.\Generated_Source\PSoC4/CyLib.c **** ********************************************************************************
2924:.\Generated_Source\PSoC4/CyLib.c **** *
2925:.\Generated_Source\PSoC4/CyLib.c **** * Summary:
2926:.\Generated_Source\PSoC4/CyLib.c **** *  Clears the SysTick counter for well-defined startup.
2927:.\Generated_Source\PSoC4/CyLib.c **** *
2928:.\Generated_Source\PSoC4/CyLib.c **** * Parameters:
2929:.\Generated_Source\PSoC4/CyLib.c **** *  None
2930:.\Generated_Source\PSoC4/CyLib.c **** *
2931:.\Generated_Source\PSoC4/CyLib.c **** * Return:
2932:.\Generated_Source\PSoC4/CyLib.c **** *  None
2933:.\Generated_Source\PSoC4/CyLib.c **** *
2934:.\Generated_Source\PSoC4/CyLib.c **** *******************************************************************************/
2935:.\Generated_Source\PSoC4/CyLib.c **** void CySysTickClear(void)
2936:.\Generated_Source\PSoC4/CyLib.c **** {
ARM GAS  C:\DOCUME~1\Owner\LOCALS~1\Temp\cc3gLjSb.s 			page 118


 3717              		.loc 1 2936 0
 3718              		.cfi_startproc
 3719 0000 80B5     		push	{r7, lr}
 3720              		.cfi_def_cfa_offset 8
 3721              		.cfi_offset 7, -8
 3722              		.cfi_offset 14, -4
 3723 0002 00AF     		add	r7, sp, #0
 3724              		.cfi_def_cfa_register 7
2937:.\Generated_Source\PSoC4/CyLib.c ****     CY_SYS_SYST_CVR_REG = 0u;
 3725              		.loc 1 2937 0
 3726 0004 024B     		ldr	r3, .L282
 3727 0006 0022     		mov	r2, #0
 3728 0008 1A60     		str	r2, [r3]
2938:.\Generated_Source\PSoC4/CyLib.c **** }
 3729              		.loc 1 2938 0
 3730 000a BD46     		mov	sp, r7
 3731              		@ sp needed
 3732 000c 80BD     		pop	{r7, pc}
 3733              	.L283:
 3734 000e C046     		.align	2
 3735              	.L282:
 3736 0010 18E000E0 		.word	-536813544
 3737              		.cfi_endproc
 3738              	.LFE63:
 3739              		.size	CySysTickClear, .-CySysTickClear
 3740              		.section	.text.CySysTickSetCallback,"ax",%progbits
 3741              		.align	2
 3742              		.global	CySysTickSetCallback
 3743              		.code	16
 3744              		.thumb_func
 3745              		.type	CySysTickSetCallback, %function
 3746              	CySysTickSetCallback:
 3747              	.LFB64:
2939:.\Generated_Source\PSoC4/CyLib.c **** 
2940:.\Generated_Source\PSoC4/CyLib.c **** 
2941:.\Generated_Source\PSoC4/CyLib.c **** /*******************************************************************************
2942:.\Generated_Source\PSoC4/CyLib.c **** * Function Name: CySysTickSetCallback
2943:.\Generated_Source\PSoC4/CyLib.c **** ********************************************************************************
2944:.\Generated_Source\PSoC4/CyLib.c **** *
2945:.\Generated_Source\PSoC4/CyLib.c **** * Summary:
2946:.\Generated_Source\PSoC4/CyLib.c **** *  The function set the pointers to the functions that will be called on
2947:.\Generated_Source\PSoC4/CyLib.c **** *  SysTick interrupt.
2948:.\Generated_Source\PSoC4/CyLib.c **** *
2949:.\Generated_Source\PSoC4/CyLib.c **** * Parameters:
2950:.\Generated_Source\PSoC4/CyLib.c **** *  number:  The number of callback function address to be set.
2951:.\Generated_Source\PSoC4/CyLib.c **** *           The valid range is from 0 to 4.
2952:.\Generated_Source\PSoC4/CyLib.c **** *  CallbackFunction: Function address.
2953:.\Generated_Source\PSoC4/CyLib.c **** *
2954:.\Generated_Source\PSoC4/CyLib.c **** * Return:
2955:.\Generated_Source\PSoC4/CyLib.c **** *  Returns the address of the previous callback function.
2956:.\Generated_Source\PSoC4/CyLib.c **** *  The NULL is returned if the specified address in not set.
2957:.\Generated_Source\PSoC4/CyLib.c **** *
2958:.\Generated_Source\PSoC4/CyLib.c **** *******************************************************************************/
2959:.\Generated_Source\PSoC4/CyLib.c **** cySysTickCallback CySysTickSetCallback(uint32 number, cySysTickCallback function)
2960:.\Generated_Source\PSoC4/CyLib.c **** {
 3748              		.loc 1 2960 0
 3749              		.cfi_startproc
ARM GAS  C:\DOCUME~1\Owner\LOCALS~1\Temp\cc3gLjSb.s 			page 119


 3750 0000 80B5     		push	{r7, lr}
 3751              		.cfi_def_cfa_offset 8
 3752              		.cfi_offset 7, -8
 3753              		.cfi_offset 14, -4
 3754 0002 84B0     		sub	sp, sp, #16
 3755              		.cfi_def_cfa_offset 24
 3756 0004 00AF     		add	r7, sp, #0
 3757              		.cfi_def_cfa_register 7
 3758 0006 7860     		str	r0, [r7, #4]
 3759 0008 3960     		str	r1, [r7]
2961:.\Generated_Source\PSoC4/CyLib.c ****     cySysTickCallback retVal;
2962:.\Generated_Source\PSoC4/CyLib.c **** 
2963:.\Generated_Source\PSoC4/CyLib.c ****     retVal = CySysTickCallbacks[number];
 3760              		.loc 1 2963 0
 3761 000a 074B     		ldr	r3, .L286
 3762 000c 7A68     		ldr	r2, [r7, #4]
 3763 000e 9200     		lsl	r2, r2, #2
 3764 0010 D358     		ldr	r3, [r2, r3]
 3765 0012 FB60     		str	r3, [r7, #12]
2964:.\Generated_Source\PSoC4/CyLib.c ****     CySysTickCallbacks[number] = function;
 3766              		.loc 1 2964 0
 3767 0014 044B     		ldr	r3, .L286
 3768 0016 7A68     		ldr	r2, [r7, #4]
 3769 0018 9200     		lsl	r2, r2, #2
 3770 001a 3968     		ldr	r1, [r7]
 3771 001c D150     		str	r1, [r2, r3]
2965:.\Generated_Source\PSoC4/CyLib.c ****     return (retVal);
 3772              		.loc 1 2965 0
 3773 001e FB68     		ldr	r3, [r7, #12]
2966:.\Generated_Source\PSoC4/CyLib.c **** }
 3774              		.loc 1 2966 0
 3775 0020 181C     		mov	r0, r3
 3776 0022 BD46     		mov	sp, r7
 3777 0024 04B0     		add	sp, sp, #16
 3778              		@ sp needed
 3779 0026 80BD     		pop	{r7, pc}
 3780              	.L287:
 3781              		.align	2
 3782              	.L286:
 3783 0028 0C000000 		.word	CySysTickCallbacks
 3784              		.cfi_endproc
 3785              	.LFE64:
 3786              		.size	CySysTickSetCallback, .-CySysTickSetCallback
 3787              		.section	.text.CySysTickGetCallback,"ax",%progbits
 3788              		.align	2
 3789              		.global	CySysTickGetCallback
 3790              		.code	16
 3791              		.thumb_func
 3792              		.type	CySysTickGetCallback, %function
 3793              	CySysTickGetCallback:
 3794              	.LFB65:
2967:.\Generated_Source\PSoC4/CyLib.c **** 
2968:.\Generated_Source\PSoC4/CyLib.c **** 
2969:.\Generated_Source\PSoC4/CyLib.c **** /*******************************************************************************
2970:.\Generated_Source\PSoC4/CyLib.c **** * Function Name: CySysTickGetCallback
2971:.\Generated_Source\PSoC4/CyLib.c **** ********************************************************************************
2972:.\Generated_Source\PSoC4/CyLib.c **** *
ARM GAS  C:\DOCUME~1\Owner\LOCALS~1\Temp\cc3gLjSb.s 			page 120


2973:.\Generated_Source\PSoC4/CyLib.c **** * Summary:
2974:.\Generated_Source\PSoC4/CyLib.c **** *  The function get the specified callback pointer.
2975:.\Generated_Source\PSoC4/CyLib.c **** *
2976:.\Generated_Source\PSoC4/CyLib.c **** * Parameters:
2977:.\Generated_Source\PSoC4/CyLib.c **** *  None
2978:.\Generated_Source\PSoC4/CyLib.c **** *
2979:.\Generated_Source\PSoC4/CyLib.c **** * Return:
2980:.\Generated_Source\PSoC4/CyLib.c **** *  None
2981:.\Generated_Source\PSoC4/CyLib.c **** *
2982:.\Generated_Source\PSoC4/CyLib.c **** *******************************************************************************/
2983:.\Generated_Source\PSoC4/CyLib.c **** cySysTickCallback CySysTickGetCallback(uint32 number)
2984:.\Generated_Source\PSoC4/CyLib.c **** {
 3795              		.loc 1 2984 0
 3796              		.cfi_startproc
 3797 0000 80B5     		push	{r7, lr}
 3798              		.cfi_def_cfa_offset 8
 3799              		.cfi_offset 7, -8
 3800              		.cfi_offset 14, -4
 3801 0002 82B0     		sub	sp, sp, #8
 3802              		.cfi_def_cfa_offset 16
 3803 0004 00AF     		add	r7, sp, #0
 3804              		.cfi_def_cfa_register 7
 3805 0006 7860     		str	r0, [r7, #4]
2985:.\Generated_Source\PSoC4/CyLib.c ****     return ((cySysTickCallback) CySysTickCallbacks[number]);
 3806              		.loc 1 2985 0
 3807 0008 034B     		ldr	r3, .L290
 3808 000a 7A68     		ldr	r2, [r7, #4]
 3809 000c 9200     		lsl	r2, r2, #2
 3810 000e D358     		ldr	r3, [r2, r3]
2986:.\Generated_Source\PSoC4/CyLib.c **** }
 3811              		.loc 1 2986 0
 3812 0010 181C     		mov	r0, r3
 3813 0012 BD46     		mov	sp, r7
 3814 0014 02B0     		add	sp, sp, #8
 3815              		@ sp needed
 3816 0016 80BD     		pop	{r7, pc}
 3817              	.L291:
 3818              		.align	2
 3819              	.L290:
 3820 0018 0C000000 		.word	CySysTickCallbacks
 3821              		.cfi_endproc
 3822              	.LFE65:
 3823              		.size	CySysTickGetCallback, .-CySysTickGetCallback
 3824              		.section	.text.CySysTickServiceCallbacks,"ax",%progbits
 3825              		.align	2
 3826              		.code	16
 3827              		.thumb_func
 3828              		.type	CySysTickServiceCallbacks, %function
 3829              	CySysTickServiceCallbacks:
 3830              	.LFB66:
2987:.\Generated_Source\PSoC4/CyLib.c **** 
2988:.\Generated_Source\PSoC4/CyLib.c **** 
2989:.\Generated_Source\PSoC4/CyLib.c **** /*******************************************************************************
2990:.\Generated_Source\PSoC4/CyLib.c **** * Function Name: CySysTickServiceCallbacks
2991:.\Generated_Source\PSoC4/CyLib.c **** ********************************************************************************
2992:.\Generated_Source\PSoC4/CyLib.c **** *
2993:.\Generated_Source\PSoC4/CyLib.c **** * Summary:
ARM GAS  C:\DOCUME~1\Owner\LOCALS~1\Temp\cc3gLjSb.s 			page 121


2994:.\Generated_Source\PSoC4/CyLib.c **** *  System Tick timer interrupt routine
2995:.\Generated_Source\PSoC4/CyLib.c **** *
2996:.\Generated_Source\PSoC4/CyLib.c **** * Parameters:
2997:.\Generated_Source\PSoC4/CyLib.c **** *  None
2998:.\Generated_Source\PSoC4/CyLib.c **** *
2999:.\Generated_Source\PSoC4/CyLib.c **** * Return:
3000:.\Generated_Source\PSoC4/CyLib.c **** *  None
3001:.\Generated_Source\PSoC4/CyLib.c **** *
3002:.\Generated_Source\PSoC4/CyLib.c **** *******************************************************************************/
3003:.\Generated_Source\PSoC4/CyLib.c **** static void CySysTickServiceCallbacks(void)
3004:.\Generated_Source\PSoC4/CyLib.c **** {
 3831              		.loc 1 3004 0
 3832              		.cfi_startproc
 3833 0000 80B5     		push	{r7, lr}
 3834              		.cfi_def_cfa_offset 8
 3835              		.cfi_offset 7, -8
 3836              		.cfi_offset 14, -4
 3837 0002 82B0     		sub	sp, sp, #8
 3838              		.cfi_def_cfa_offset 16
 3839 0004 00AF     		add	r7, sp, #0
 3840              		.cfi_def_cfa_register 7
3005:.\Generated_Source\PSoC4/CyLib.c ****     uint32 i;
3006:.\Generated_Source\PSoC4/CyLib.c **** 
3007:.\Generated_Source\PSoC4/CyLib.c ****     /* Verify that tick timer flag was set */
3008:.\Generated_Source\PSoC4/CyLib.c ****     if (1u == CySysTickGetCountFlag())
 3841              		.loc 1 3008 0
 3842 0006 FFF7FEFF 		bl	CySysTickGetCountFlag
 3843 000a 031C     		mov	r3, r0
 3844 000c 012B     		cmp	r3, #1
 3845 000e 13D1     		bne	.L292
3009:.\Generated_Source\PSoC4/CyLib.c ****     {
3010:.\Generated_Source\PSoC4/CyLib.c ****         for (i=0u; i < CY_SYS_SYST_NUM_OF_CALLBACKS; i++)
 3846              		.loc 1 3010 0
 3847 0010 0023     		mov	r3, #0
 3848 0012 7B60     		str	r3, [r7, #4]
 3849 0014 0DE0     		b	.L294
 3850              	.L296:
3011:.\Generated_Source\PSoC4/CyLib.c ****         {
3012:.\Generated_Source\PSoC4/CyLib.c ****             if (CySysTickCallbacks[i] != (void *) 0)
 3851              		.loc 1 3012 0
 3852 0016 0A4B     		ldr	r3, .L297
 3853 0018 7A68     		ldr	r2, [r7, #4]
 3854 001a 9200     		lsl	r2, r2, #2
 3855 001c D358     		ldr	r3, [r2, r3]
 3856 001e 002B     		cmp	r3, #0
 3857 0020 04D0     		beq	.L295
3013:.\Generated_Source\PSoC4/CyLib.c ****             {
3014:.\Generated_Source\PSoC4/CyLib.c ****                 (void)(CySysTickCallbacks[i])();
 3858              		.loc 1 3014 0
 3859 0022 074B     		ldr	r3, .L297
 3860 0024 7A68     		ldr	r2, [r7, #4]
 3861 0026 9200     		lsl	r2, r2, #2
 3862 0028 D358     		ldr	r3, [r2, r3]
 3863 002a 9847     		blx	r3
 3864              	.L295:
3010:.\Generated_Source\PSoC4/CyLib.c ****         for (i=0u; i < CY_SYS_SYST_NUM_OF_CALLBACKS; i++)
 3865              		.loc 1 3010 0
ARM GAS  C:\DOCUME~1\Owner\LOCALS~1\Temp\cc3gLjSb.s 			page 122


 3866 002c 7B68     		ldr	r3, [r7, #4]
 3867 002e 0133     		add	r3, r3, #1
 3868 0030 7B60     		str	r3, [r7, #4]
 3869              	.L294:
3010:.\Generated_Source\PSoC4/CyLib.c ****         for (i=0u; i < CY_SYS_SYST_NUM_OF_CALLBACKS; i++)
 3870              		.loc 1 3010 0 is_stmt 0 discriminator 1
 3871 0032 7B68     		ldr	r3, [r7, #4]
 3872 0034 042B     		cmp	r3, #4
 3873 0036 EED9     		bls	.L296
 3874              	.L292:
3015:.\Generated_Source\PSoC4/CyLib.c ****             }
3016:.\Generated_Source\PSoC4/CyLib.c ****         }
3017:.\Generated_Source\PSoC4/CyLib.c ****     }
3018:.\Generated_Source\PSoC4/CyLib.c **** }
 3875              		.loc 1 3018 0 is_stmt 1
 3876 0038 BD46     		mov	sp, r7
 3877 003a 02B0     		add	sp, sp, #8
 3878              		@ sp needed
 3879 003c 80BD     		pop	{r7, pc}
 3880              	.L298:
 3881 003e C046     		.align	2
 3882              	.L297:
 3883 0040 0C000000 		.word	CySysTickCallbacks
 3884              		.cfi_endproc
 3885              	.LFE66:
 3886              		.size	CySysTickServiceCallbacks, .-CySysTickServiceCallbacks
 3887              		.text
 3888              	.Letext0:
 3889              		.file 2 ".\\Generated_Source\\PSoC4\\cytypes.h"
 3890              		.file 3 ".\\Generated_Source\\PSoC4\\CyLib.h"
 3891              		.section	.debug_info,"",%progbits
 3892              	.Ldebug_info0:
 3893 0000 570C0000 		.4byte	0xc57
 3894 0004 0400     		.2byte	0x4
 3895 0006 00000000 		.4byte	.Ldebug_abbrev0
 3896 000a 04       		.byte	0x4
 3897 000b 01       		.uleb128 0x1
 3898 000c 29050000 		.4byte	.LASF133
 3899 0010 01       		.byte	0x1
 3900 0011 B7030000 		.4byte	.LASF134
 3901 0015 61040000 		.4byte	.LASF135
 3902 0019 00000000 		.4byte	.Ldebug_ranges0+0
 3903 001d 00000000 		.4byte	0
 3904 0021 00000000 		.4byte	.Ldebug_line0
 3905 0025 02       		.uleb128 0x2
 3906 0026 01       		.byte	0x1
 3907 0027 06       		.byte	0x6
 3908 0028 32010000 		.4byte	.LASF0
 3909 002c 02       		.uleb128 0x2
 3910 002d 01       		.byte	0x1
 3911 002e 08       		.byte	0x8
 3912 002f 0E060000 		.4byte	.LASF1
 3913 0033 02       		.uleb128 0x2
 3914 0034 02       		.byte	0x2
 3915 0035 05       		.byte	0x5
 3916 0036 3A060000 		.4byte	.LASF2
 3917 003a 02       		.uleb128 0x2
ARM GAS  C:\DOCUME~1\Owner\LOCALS~1\Temp\cc3gLjSb.s 			page 123


 3918 003b 02       		.byte	0x2
 3919 003c 07       		.byte	0x7
 3920 003d 95030000 		.4byte	.LASF3
 3921 0041 02       		.uleb128 0x2
 3922 0042 04       		.byte	0x4
 3923 0043 05       		.byte	0x5
 3924 0044 A5010000 		.4byte	.LASF4
 3925 0048 02       		.uleb128 0x2
 3926 0049 04       		.byte	0x4
 3927 004a 07       		.byte	0x7
 3928 004b 0A030000 		.4byte	.LASF5
 3929 004f 02       		.uleb128 0x2
 3930 0050 08       		.byte	0x8
 3931 0051 05       		.byte	0x5
 3932 0052 24010000 		.4byte	.LASF6
 3933 0056 02       		.uleb128 0x2
 3934 0057 08       		.byte	0x8
 3935 0058 07       		.byte	0x7
 3936 0059 B8000000 		.4byte	.LASF7
 3937 005d 03       		.uleb128 0x3
 3938 005e 04       		.byte	0x4
 3939 005f 05       		.byte	0x5
 3940 0060 696E7400 		.ascii	"int\000"
 3941 0064 02       		.uleb128 0x2
 3942 0065 04       		.byte	0x4
 3943 0066 07       		.byte	0x7
 3944 0067 E3020000 		.4byte	.LASF8
 3945 006b 04       		.uleb128 0x4
 3946 006c D0010000 		.4byte	.LASF9
 3947 0070 02       		.byte	0x2
 3948 0071 A1       		.byte	0xa1
 3949 0072 2C000000 		.4byte	0x2c
 3950 0076 04       		.uleb128 0x4
 3951 0077 1A000000 		.4byte	.LASF10
 3952 007b 02       		.byte	0x2
 3953 007c A2       		.byte	0xa2
 3954 007d 3A000000 		.4byte	0x3a
 3955 0081 04       		.uleb128 0x4
 3956 0082 42020000 		.4byte	.LASF11
 3957 0086 02       		.byte	0x2
 3958 0087 A3       		.byte	0xa3
 3959 0088 48000000 		.4byte	0x48
 3960 008c 02       		.uleb128 0x2
 3961 008d 04       		.byte	0x4
 3962 008e 04       		.byte	0x4
 3963 008f 23050000 		.4byte	.LASF12
 3964 0093 02       		.uleb128 0x2
 3965 0094 08       		.byte	0x8
 3966 0095 04       		.byte	0x4
 3967 0096 EC010000 		.4byte	.LASF13
 3968 009a 02       		.uleb128 0x2
 3969 009b 01       		.byte	0x1
 3970 009c 08       		.byte	0x8
 3971 009d E6060000 		.4byte	.LASF14
 3972 00a1 05       		.uleb128 0x5
 3973 00a2 F8050000 		.4byte	.LASF15
 3974 00a6 02       		.byte	0x2
ARM GAS  C:\DOCUME~1\Owner\LOCALS~1\Temp\cc3gLjSb.s 			page 124


 3975 00a7 4B01     		.2byte	0x14b
 3976 00a9 AD000000 		.4byte	0xad
 3977 00ad 06       		.uleb128 0x6
 3978 00ae 6B000000 		.4byte	0x6b
 3979 00b2 05       		.uleb128 0x5
 3980 00b3 10040000 		.4byte	.LASF16
 3981 00b7 02       		.byte	0x2
 3982 00b8 4D01     		.2byte	0x14d
 3983 00ba BE000000 		.4byte	0xbe
 3984 00be 06       		.uleb128 0x6
 3985 00bf 81000000 		.4byte	0x81
 3986 00c3 05       		.uleb128 0x5
 3987 00c4 F9060000 		.4byte	.LASF17
 3988 00c8 02       		.byte	0x2
 3989 00c9 5D01     		.2byte	0x15d
 3990 00cb CF000000 		.4byte	0xcf
 3991 00cf 07       		.uleb128 0x7
 3992 00d0 04       		.byte	0x4
 3993 00d1 D5000000 		.4byte	0xd5
 3994 00d5 08       		.uleb128 0x8
 3995 00d6 02       		.uleb128 0x2
 3996 00d7 04       		.byte	0x4
 3997 00d8 07       		.byte	0x7
 3998 00d9 58040000 		.4byte	.LASF18
 3999 00dd 04       		.uleb128 0x4
 4000 00de A5050000 		.4byte	.LASF19
 4001 00e2 03       		.byte	0x3
 4002 00e3 8B       		.byte	0x8b
 4003 00e4 CF000000 		.4byte	0xcf
 4004 00e8 09       		.uleb128 0x9
 4005 00e9 1A080000 		.4byte	.LASF20
 4006 00ed 01       		.byte	0x1
 4007 00ee 57       		.byte	0x57
 4008 00ef 00000000 		.4byte	.LFB0
 4009 00f3 1C000000 		.4byte	.LFE0-.LFB0
 4010 00f7 01       		.uleb128 0x1
 4011 00f8 9C       		.byte	0x9c
 4012 00f9 09       		.uleb128 0x9
 4013 00fa 37030000 		.4byte	.LASF21
 4014 00fe 01       		.byte	0x1
 4015 00ff 6B       		.byte	0x6b
 4016 0100 00000000 		.4byte	.LFB1
 4017 0104 18000000 		.4byte	.LFE1-.LFB1
 4018 0108 01       		.uleb128 0x1
 4019 0109 9C       		.byte	0x9c
 4020 010a 09       		.uleb128 0x9
 4021 010b D8030000 		.4byte	.LASF22
 4022 010f 01       		.byte	0x1
 4023 0110 7F       		.byte	0x7f
 4024 0111 00000000 		.4byte	.LFB2
 4025 0115 1C000000 		.4byte	.LFE2-.LFB2
 4026 0119 01       		.uleb128 0x1
 4027 011a 9C       		.byte	0x9c
 4028 011b 0A       		.uleb128 0xa
 4029 011c F3010000 		.4byte	.LASF23
 4030 0120 01       		.byte	0x1
 4031 0121 9E       		.byte	0x9e
ARM GAS  C:\DOCUME~1\Owner\LOCALS~1\Temp\cc3gLjSb.s 			page 125


 4032 0122 00000000 		.4byte	.LFB3
 4033 0126 4C000000 		.4byte	.LFE3-.LFB3
 4034 012a 01       		.uleb128 0x1
 4035 012b 9C       		.byte	0x9c
 4036 012c 3F010000 		.4byte	0x13f
 4037 0130 0B       		.uleb128 0xb
 4038 0131 61010000 		.4byte	.LASF25
 4039 0135 01       		.byte	0x1
 4040 0136 A1       		.byte	0xa1
 4041 0137 6B000000 		.4byte	0x6b
 4042 013b 02       		.uleb128 0x2
 4043 013c 91       		.byte	0x91
 4044 013d 6F       		.sleb128 -17
 4045 013e 00       		.byte	0
 4046 013f 0C       		.uleb128 0xc
 4047 0140 A2060000 		.4byte	.LASF36
 4048 0144 01       		.byte	0x1
 4049 0145 D2       		.byte	0xd2
 4050 0146 81000000 		.4byte	0x81
 4051 014a 00000000 		.4byte	.LFB4
 4052 014e 1C000000 		.4byte	.LFE4-.LFB4
 4053 0152 01       		.uleb128 0x1
 4054 0153 9C       		.byte	0x9c
 4055 0154 0D       		.uleb128 0xd
 4056 0155 30000000 		.4byte	.LASF24
 4057 0159 01       		.byte	0x1
 4058 015a 5501     		.2byte	0x155
 4059 015c 00000000 		.4byte	.LFB5
 4060 0160 44000000 		.4byte	.LFE5-.LFB5
 4061 0164 01       		.uleb128 0x1
 4062 0165 9C       		.byte	0x9c
 4063 0166 89010000 		.4byte	0x189
 4064 016a 0E       		.uleb128 0xe
 4065 016b 98060000 		.4byte	.LASF27
 4066 016f 01       		.byte	0x1
 4067 0170 5501     		.2byte	0x155
 4068 0172 81000000 		.4byte	0x81
 4069 0176 02       		.uleb128 0x2
 4070 0177 91       		.byte	0x91
 4071 0178 64       		.sleb128 -28
 4072 0179 0F       		.uleb128 0xf
 4073 017a 61010000 		.4byte	.LASF25
 4074 017e 01       		.byte	0x1
 4075 017f 5701     		.2byte	0x157
 4076 0181 6B000000 		.4byte	0x6b
 4077 0185 02       		.uleb128 0x2
 4078 0186 91       		.byte	0x91
 4079 0187 6F       		.sleb128 -17
 4080 0188 00       		.byte	0
 4081 0189 0D       		.uleb128 0xd
 4082 018a 23070000 		.4byte	.LASF26
 4083 018e 01       		.byte	0x1
 4084 018f 8601     		.2byte	0x186
 4085 0191 00000000 		.4byte	.LFB6
 4086 0195 44000000 		.4byte	.LFE6-.LFB6
 4087 0199 01       		.uleb128 0x1
 4088 019a 9C       		.byte	0x9c
ARM GAS  C:\DOCUME~1\Owner\LOCALS~1\Temp\cc3gLjSb.s 			page 126


 4089 019b BE010000 		.4byte	0x1be
 4090 019f 0E       		.uleb128 0xe
 4091 01a0 09080000 		.4byte	.LASF28
 4092 01a4 01       		.byte	0x1
 4093 01a5 8601     		.2byte	0x186
 4094 01a7 81000000 		.4byte	0x81
 4095 01ab 02       		.uleb128 0x2
 4096 01ac 91       		.byte	0x91
 4097 01ad 64       		.sleb128 -28
 4098 01ae 0F       		.uleb128 0xf
 4099 01af 61010000 		.4byte	.LASF25
 4100 01b3 01       		.byte	0x1
 4101 01b4 8801     		.2byte	0x188
 4102 01b6 6B000000 		.4byte	0x6b
 4103 01ba 02       		.uleb128 0x2
 4104 01bb 91       		.byte	0x91
 4105 01bc 6F       		.sleb128 -17
 4106 01bd 00       		.byte	0
 4107 01be 0D       		.uleb128 0xd
 4108 01bf E9030000 		.4byte	.LASF29
 4109 01c3 01       		.byte	0x1
 4110 01c4 AE01     		.2byte	0x1ae
 4111 01c6 00000000 		.4byte	.LFB7
 4112 01ca E0010000 		.4byte	.LFE7-.LFB7
 4113 01ce 01       		.uleb128 0x1
 4114 01cf 9C       		.byte	0x9c
 4115 01d0 2F020000 		.4byte	0x22f
 4116 01d4 0E       		.uleb128 0xe
 4117 01d5 3E010000 		.4byte	.LASF30
 4118 01d9 01       		.byte	0x1
 4119 01da AE01     		.2byte	0x1ae
 4120 01dc 81000000 		.4byte	0x81
 4121 01e0 02       		.uleb128 0x2
 4122 01e1 91       		.byte	0x91
 4123 01e2 64       		.sleb128 -28
 4124 01e3 0F       		.uleb128 0xf
 4125 01e4 12000000 		.4byte	.LASF31
 4126 01e8 01       		.byte	0x1
 4127 01e9 B001     		.2byte	0x1b0
 4128 01eb 6B000000 		.4byte	0x6b
 4129 01ef 02       		.uleb128 0x2
 4130 01f0 91       		.byte	0x91
 4131 01f1 6F       		.sleb128 -17
 4132 01f2 0F       		.uleb128 0xf
 4133 01f3 9F040000 		.4byte	.LASF32
 4134 01f7 01       		.byte	0x1
 4135 01f8 B101     		.2byte	0x1b1
 4136 01fa 6B000000 		.4byte	0x6b
 4137 01fe 02       		.uleb128 0x2
 4138 01ff 91       		.byte	0x91
 4139 0200 6E       		.sleb128 -18
 4140 0201 0F       		.uleb128 0xf
 4141 0202 61010000 		.4byte	.LASF25
 4142 0206 01       		.byte	0x1
 4143 0207 B201     		.2byte	0x1b2
 4144 0209 6B000000 		.4byte	0x6b
 4145 020d 02       		.uleb128 0x2
ARM GAS  C:\DOCUME~1\Owner\LOCALS~1\Temp\cc3gLjSb.s 			page 127


 4146 020e 91       		.byte	0x91
 4147 020f 6B       		.sleb128 -21
 4148 0210 0F       		.uleb128 0xf
 4149 0211 45080000 		.4byte	.LASF33
 4150 0215 01       		.byte	0x1
 4151 0216 B301     		.2byte	0x1b3
 4152 0218 6B000000 		.4byte	0x6b
 4153 021c 02       		.uleb128 0x2
 4154 021d 91       		.byte	0x91
 4155 021e 6C       		.sleb128 -20
 4156 021f 0F       		.uleb128 0xf
 4157 0220 84000000 		.4byte	.LASF34
 4158 0224 01       		.byte	0x1
 4159 0225 B401     		.2byte	0x1b4
 4160 0227 6B000000 		.4byte	0x6b
 4161 022b 02       		.uleb128 0x2
 4162 022c 91       		.byte	0x91
 4163 022d 6D       		.sleb128 -19
 4164 022e 00       		.byte	0
 4165 022f 0D       		.uleb128 0xd
 4166 0230 16070000 		.4byte	.LASF35
 4167 0234 01       		.byte	0x1
 4168 0235 C603     		.2byte	0x3c6
 4169 0237 00000000 		.4byte	.LFB8
 4170 023b 34000000 		.4byte	.LFE8-.LFB8
 4171 023f 01       		.uleb128 0x1
 4172 0240 9C       		.byte	0x9c
 4173 0241 55020000 		.4byte	0x255
 4174 0245 0F       		.uleb128 0xf
 4175 0246 61010000 		.4byte	.LASF25
 4176 024a 01       		.byte	0x1
 4177 024b C803     		.2byte	0x3c8
 4178 024d 6B000000 		.4byte	0x6b
 4179 0251 02       		.uleb128 0x2
 4180 0252 91       		.byte	0x91
 4181 0253 6F       		.sleb128 -17
 4182 0254 00       		.byte	0
 4183 0255 10       		.uleb128 0x10
 4184 0256 E9050000 		.4byte	.LASF37
 4185 025a 01       		.byte	0x1
 4186 025b E003     		.2byte	0x3e0
 4187 025d 81000000 		.4byte	0x81
 4188 0261 00000000 		.4byte	.LFB9
 4189 0265 20000000 		.4byte	.LFE9-.LFB9
 4190 0269 01       		.uleb128 0x1
 4191 026a 9C       		.byte	0x9c
 4192 026b 0D       		.uleb128 0xd
 4193 026c 49000000 		.4byte	.LASF38
 4194 0270 01       		.byte	0x1
 4195 0271 F503     		.2byte	0x3f5
 4196 0273 00000000 		.4byte	.LFB10
 4197 0277 4C000000 		.4byte	.LFE10-.LFB10
 4198 027b 01       		.uleb128 0x1
 4199 027c 9C       		.byte	0x9c
 4200 027d 91020000 		.4byte	0x291
 4201 0281 0F       		.uleb128 0xf
 4202 0282 61010000 		.4byte	.LASF25
ARM GAS  C:\DOCUME~1\Owner\LOCALS~1\Temp\cc3gLjSb.s 			page 128


 4203 0286 01       		.byte	0x1
 4204 0287 F703     		.2byte	0x3f7
 4205 0289 6B000000 		.4byte	0x6b
 4206 028d 02       		.uleb128 0x2
 4207 028e 91       		.byte	0x91
 4208 028f 6F       		.sleb128 -17
 4209 0290 00       		.byte	0
 4210 0291 11       		.uleb128 0x11
 4211 0292 2B080000 		.4byte	.LASF43
 4212 0296 01       		.byte	0x1
 4213 0297 1A04     		.2byte	0x41a
 4214 0299 81000000 		.4byte	0x81
 4215 029d 00000000 		.4byte	.LFB11
 4216 02a1 30000000 		.4byte	.LFE11-.LFB11
 4217 02a5 01       		.uleb128 0x1
 4218 02a6 9C       		.byte	0x9c
 4219 02a7 BB020000 		.4byte	0x2bb
 4220 02ab 0E       		.uleb128 0xe
 4221 02ac 5F000000 		.4byte	.LASF39
 4222 02b0 01       		.byte	0x1
 4223 02b1 1A04     		.2byte	0x41a
 4224 02b3 81000000 		.4byte	0x81
 4225 02b7 02       		.uleb128 0x2
 4226 02b8 91       		.byte	0x91
 4227 02b9 74       		.sleb128 -12
 4228 02ba 00       		.byte	0
 4229 02bb 0D       		.uleb128 0xd
 4230 02bc 00000000 		.4byte	.LASF40
 4231 02c0 01       		.byte	0x1
 4232 02c1 3E04     		.2byte	0x43e
 4233 02c3 00000000 		.4byte	.LFB12
 4234 02c7 60000000 		.4byte	.LFE12-.LFB12
 4235 02cb 01       		.uleb128 0x1
 4236 02cc 9C       		.byte	0x9c
 4237 02cd FF020000 		.4byte	0x2ff
 4238 02d1 0E       		.uleb128 0xe
 4239 02d2 5F000000 		.4byte	.LASF39
 4240 02d6 01       		.byte	0x1
 4241 02d7 3E04     		.2byte	0x43e
 4242 02d9 81000000 		.4byte	0x81
 4243 02dd 02       		.uleb128 0x2
 4244 02de 91       		.byte	0x91
 4245 02df 6C       		.sleb128 -20
 4246 02e0 0E       		.uleb128 0xe
 4247 02e1 F4060000 		.4byte	.LASF41
 4248 02e5 01       		.byte	0x1
 4249 02e6 3E04     		.2byte	0x43e
 4250 02e8 81000000 		.4byte	0x81
 4251 02ec 02       		.uleb128 0x2
 4252 02ed 91       		.byte	0x91
 4253 02ee 68       		.sleb128 -24
 4254 02ef 0F       		.uleb128 0xf
 4255 02f0 A1070000 		.4byte	.LASF42
 4256 02f4 01       		.byte	0x1
 4257 02f5 4004     		.2byte	0x440
 4258 02f7 81000000 		.4byte	0x81
 4259 02fb 02       		.uleb128 0x2
ARM GAS  C:\DOCUME~1\Owner\LOCALS~1\Temp\cc3gLjSb.s 			page 129


 4260 02fc 91       		.byte	0x91
 4261 02fd 74       		.sleb128 -12
 4262 02fe 00       		.byte	0
 4263 02ff 12       		.uleb128 0x12
 4264 0300 5E020000 		.4byte	.LASF44
 4265 0304 01       		.byte	0x1
 4266 0305 5D04     		.2byte	0x45d
 4267 0307 81000000 		.4byte	0x81
 4268 030b 00000000 		.4byte	.LFB13
 4269 030f 24000000 		.4byte	.LFE13-.LFB13
 4270 0313 01       		.uleb128 0x1
 4271 0314 9C       		.byte	0x9c
 4272 0315 29030000 		.4byte	0x329
 4273 0319 0E       		.uleb128 0xe
 4274 031a 5F000000 		.4byte	.LASF39
 4275 031e 01       		.byte	0x1
 4276 031f 5D04     		.2byte	0x45d
 4277 0321 81000000 		.4byte	0x81
 4278 0325 02       		.uleb128 0x2
 4279 0326 91       		.byte	0x91
 4280 0327 74       		.sleb128 -12
 4281 0328 00       		.byte	0
 4282 0329 0D       		.uleb128 0xd
 4283 032a 16040000 		.4byte	.LASF45
 4284 032e 01       		.byte	0x1
 4285 032f 7E04     		.2byte	0x47e
 4286 0331 00000000 		.4byte	.LFB14
 4287 0335 70000000 		.4byte	.LFE14-.LFB14
 4288 0339 01       		.uleb128 0x1
 4289 033a 9C       		.byte	0x9c
 4290 033b 6D030000 		.4byte	0x36d
 4291 033f 0E       		.uleb128 0xe
 4292 0340 5F000000 		.4byte	.LASF39
 4293 0344 01       		.byte	0x1
 4294 0345 7E04     		.2byte	0x47e
 4295 0347 81000000 		.4byte	0x81
 4296 034b 02       		.uleb128 0x2
 4297 034c 91       		.byte	0x91
 4298 034d 6C       		.sleb128 -20
 4299 034e 0E       		.uleb128 0xe
 4300 034f E5010000 		.4byte	.LASF46
 4301 0353 01       		.byte	0x1
 4302 0354 7E04     		.2byte	0x47e
 4303 0356 81000000 		.4byte	0x81
 4304 035a 02       		.uleb128 0x2
 4305 035b 91       		.byte	0x91
 4306 035c 68       		.sleb128 -24
 4307 035d 0F       		.uleb128 0xf
 4308 035e A1070000 		.4byte	.LASF42
 4309 0362 01       		.byte	0x1
 4310 0363 8004     		.2byte	0x480
 4311 0365 81000000 		.4byte	0x81
 4312 0369 02       		.uleb128 0x2
 4313 036a 91       		.byte	0x91
 4314 036b 74       		.sleb128 -12
 4315 036c 00       		.byte	0
 4316 036d 11       		.uleb128 0x11
ARM GAS  C:\DOCUME~1\Owner\LOCALS~1\Temp\cc3gLjSb.s 			page 130


 4317 036e 3F040000 		.4byte	.LASF47
 4318 0372 01       		.byte	0x1
 4319 0373 A104     		.2byte	0x4a1
 4320 0375 81000000 		.4byte	0x81
 4321 0379 00000000 		.4byte	.LFB15
 4322 037d 40000000 		.4byte	.LFE15-.LFB15
 4323 0381 01       		.uleb128 0x1
 4324 0382 9C       		.byte	0x9c
 4325 0383 97030000 		.4byte	0x397
 4326 0387 0E       		.uleb128 0xe
 4327 0388 5F000000 		.4byte	.LASF39
 4328 038c 01       		.byte	0x1
 4329 038d A104     		.2byte	0x4a1
 4330 038f 81000000 		.4byte	0x81
 4331 0393 02       		.uleb128 0x2
 4332 0394 91       		.byte	0x91
 4333 0395 74       		.sleb128 -12
 4334 0396 00       		.byte	0
 4335 0397 0D       		.uleb128 0xd
 4336 0398 B2020000 		.4byte	.LASF48
 4337 039c 01       		.byte	0x1
 4338 039d CF04     		.2byte	0x4cf
 4339 039f 00000000 		.4byte	.LFB16
 4340 03a3 68000000 		.4byte	.LFE16-.LFB16
 4341 03a7 01       		.uleb128 0x1
 4342 03a8 9C       		.byte	0x9c
 4343 03a9 BD030000 		.4byte	0x3bd
 4344 03ad 0E       		.uleb128 0xe
 4345 03ae C1020000 		.4byte	.LASF49
 4346 03b2 01       		.byte	0x1
 4347 03b3 CF04     		.2byte	0x4cf
 4348 03b5 81000000 		.4byte	0x81
 4349 03b9 02       		.uleb128 0x2
 4350 03ba 91       		.byte	0x91
 4351 03bb 74       		.sleb128 -12
 4352 03bc 00       		.byte	0
 4353 03bd 0D       		.uleb128 0xd
 4354 03be 58060000 		.4byte	.LASF50
 4355 03c2 01       		.byte	0x1
 4356 03c3 0405     		.2byte	0x504
 4357 03c5 00000000 		.4byte	.LFB17
 4358 03c9 68000000 		.4byte	.LFE17-.LFB17
 4359 03cd 01       		.uleb128 0x1
 4360 03ce 9C       		.byte	0x9c
 4361 03cf E3030000 		.4byte	0x3e3
 4362 03d3 0E       		.uleb128 0xe
 4363 03d4 C1020000 		.4byte	.LASF49
 4364 03d8 01       		.byte	0x1
 4365 03d9 0405     		.2byte	0x504
 4366 03db 81000000 		.4byte	0x81
 4367 03df 02       		.uleb128 0x2
 4368 03e0 91       		.byte	0x91
 4369 03e1 74       		.sleb128 -12
 4370 03e2 00       		.byte	0
 4371 03e3 0D       		.uleb128 0xd
 4372 03e4 03020000 		.4byte	.LASF51
 4373 03e8 01       		.byte	0x1
ARM GAS  C:\DOCUME~1\Owner\LOCALS~1\Temp\cc3gLjSb.s 			page 131


 4374 03e9 4305     		.2byte	0x543
 4375 03eb 00000000 		.4byte	.LFB18
 4376 03ef 58000000 		.4byte	.LFE18-.LFB18
 4377 03f3 01       		.uleb128 0x1
 4378 03f4 9C       		.byte	0x9c
 4379 03f5 27040000 		.4byte	0x427
 4380 03f9 0E       		.uleb128 0xe
 4381 03fa FD070000 		.4byte	.LASF52
 4382 03fe 01       		.byte	0x1
 4383 03ff 4305     		.2byte	0x543
 4384 0401 81000000 		.4byte	0x81
 4385 0405 02       		.uleb128 0x2
 4386 0406 91       		.byte	0x91
 4387 0407 64       		.sleb128 -28
 4388 0408 0F       		.uleb128 0xf
 4389 0409 A1070000 		.4byte	.LASF42
 4390 040d 01       		.byte	0x1
 4391 040e 4505     		.2byte	0x545
 4392 0410 81000000 		.4byte	0x81
 4393 0414 02       		.uleb128 0x2
 4394 0415 91       		.byte	0x91
 4395 0416 68       		.sleb128 -24
 4396 0417 0F       		.uleb128 0xf
 4397 0418 8F020000 		.4byte	.LASF53
 4398 041c 01       		.byte	0x1
 4399 041d 4605     		.2byte	0x546
 4400 041f 81000000 		.4byte	0x81
 4401 0423 02       		.uleb128 0x2
 4402 0424 91       		.byte	0x91
 4403 0425 6C       		.sleb128 -20
 4404 0426 00       		.byte	0
 4405 0427 13       		.uleb128 0x13
 4406 0428 44060000 		.4byte	.LASF59
 4407 042c 01       		.byte	0x1
 4408 042d 6805     		.2byte	0x568
 4409 042f 81000000 		.4byte	0x81
 4410 0433 00000000 		.4byte	.LFB19
 4411 0437 1C000000 		.4byte	.LFE19-.LFB19
 4412 043b 01       		.uleb128 0x1
 4413 043c 9C       		.byte	0x9c
 4414 043d 0D       		.uleb128 0xd
 4415 043e 8D010000 		.4byte	.LASF54
 4416 0442 01       		.byte	0x1
 4417 0443 8105     		.2byte	0x581
 4418 0445 00000000 		.4byte	.LFB20
 4419 0449 6C000000 		.4byte	.LFE20-.LFB20
 4420 044d 01       		.uleb128 0x1
 4421 044e 9C       		.byte	0x9c
 4422 044f 81040000 		.4byte	0x481
 4423 0453 0E       		.uleb128 0xe
 4424 0454 5F000000 		.4byte	.LASF39
 4425 0458 01       		.byte	0x1
 4426 0459 8105     		.2byte	0x581
 4427 045b 81000000 		.4byte	0x81
 4428 045f 02       		.uleb128 0x2
 4429 0460 91       		.byte	0x91
 4430 0461 6C       		.sleb128 -20
ARM GAS  C:\DOCUME~1\Owner\LOCALS~1\Temp\cc3gLjSb.s 			page 132


 4431 0462 0E       		.uleb128 0xe
 4432 0463 AE040000 		.4byte	.LASF55
 4433 0467 01       		.byte	0x1
 4434 0468 8105     		.2byte	0x581
 4435 046a 81000000 		.4byte	0x81
 4436 046e 02       		.uleb128 0x2
 4437 046f 91       		.byte	0x91
 4438 0470 68       		.sleb128 -24
 4439 0471 0F       		.uleb128 0xf
 4440 0472 55020000 		.4byte	.LASF56
 4441 0476 01       		.byte	0x1
 4442 0477 8305     		.2byte	0x583
 4443 0479 81000000 		.4byte	0x81
 4444 047d 02       		.uleb128 0x2
 4445 047e 91       		.byte	0x91
 4446 047f 74       		.sleb128 -12
 4447 0480 00       		.byte	0
 4448 0481 0D       		.uleb128 0xd
 4449 0482 90080000 		.4byte	.LASF57
 4450 0486 01       		.byte	0x1
 4451 0487 AD05     		.2byte	0x5ad
 4452 0489 00000000 		.4byte	.LFB21
 4453 048d 44000000 		.4byte	.LFE21-.LFB21
 4454 0491 01       		.uleb128 0x1
 4455 0492 9C       		.byte	0x9c
 4456 0493 B6040000 		.4byte	0x4b6
 4457 0497 0E       		.uleb128 0xe
 4458 0498 A0010000 		.4byte	.LASF58
 4459 049c 01       		.byte	0x1
 4460 049d AD05     		.2byte	0x5ad
 4461 049f 81000000 		.4byte	0x81
 4462 04a3 02       		.uleb128 0x2
 4463 04a4 91       		.byte	0x91
 4464 04a5 6C       		.sleb128 -20
 4465 04a6 0F       		.uleb128 0xf
 4466 04a7 A1070000 		.4byte	.LASF42
 4467 04ab 01       		.byte	0x1
 4468 04ac AF05     		.2byte	0x5af
 4469 04ae 81000000 		.4byte	0x81
 4470 04b2 02       		.uleb128 0x2
 4471 04b3 91       		.byte	0x91
 4472 04b4 74       		.sleb128 -12
 4473 04b5 00       		.byte	0
 4474 04b6 13       		.uleb128 0x13
 4475 04b7 D3050000 		.4byte	.LASF60
 4476 04bb 01       		.byte	0x1
 4477 04bc C905     		.2byte	0x5c9
 4478 04be 81000000 		.4byte	0x81
 4479 04c2 00000000 		.4byte	.LFB22
 4480 04c6 18000000 		.4byte	.LFE22-.LFB22
 4481 04ca 01       		.uleb128 0x1
 4482 04cb 9C       		.byte	0x9c
 4483 04cc 11       		.uleb128 0x11
 4484 04cd 86060000 		.4byte	.LASF61
 4485 04d1 01       		.byte	0x1
 4486 04d2 DE05     		.2byte	0x5de
 4487 04d4 81000000 		.4byte	0x81
ARM GAS  C:\DOCUME~1\Owner\LOCALS~1\Temp\cc3gLjSb.s 			page 133


 4488 04d8 00000000 		.4byte	.LFB23
 4489 04dc 44000000 		.4byte	.LFE23-.LFB23
 4490 04e0 01       		.uleb128 0x1
 4491 04e1 9C       		.byte	0x9c
 4492 04e2 F6040000 		.4byte	0x4f6
 4493 04e6 0E       		.uleb128 0xe
 4494 04e7 5F000000 		.4byte	.LASF39
 4495 04eb 01       		.byte	0x1
 4496 04ec DE05     		.2byte	0x5de
 4497 04ee 81000000 		.4byte	0x81
 4498 04f2 02       		.uleb128 0x2
 4499 04f3 91       		.byte	0x91
 4500 04f4 74       		.sleb128 -12
 4501 04f5 00       		.byte	0
 4502 04f6 11       		.uleb128 0x11
 4503 04f7 43010000 		.4byte	.LASF62
 4504 04fb 01       		.byte	0x1
 4505 04fc F605     		.2byte	0x5f6
 4506 04fe 81000000 		.4byte	0x81
 4507 0502 00000000 		.4byte	.LFB24
 4508 0506 54000000 		.4byte	.LFE24-.LFB24
 4509 050a 01       		.uleb128 0x1
 4510 050b 9C       		.byte	0x9c
 4511 050c 2F050000 		.4byte	0x52f
 4512 0510 0E       		.uleb128 0xe
 4513 0511 5F000000 		.4byte	.LASF39
 4514 0515 01       		.byte	0x1
 4515 0516 F605     		.2byte	0x5f6
 4516 0518 81000000 		.4byte	0x81
 4517 051c 02       		.uleb128 0x2
 4518 051d 91       		.byte	0x91
 4519 051e 6C       		.sleb128 -20
 4520 051f 0F       		.uleb128 0xf
 4521 0520 55020000 		.4byte	.LASF56
 4522 0524 01       		.byte	0x1
 4523 0525 F805     		.2byte	0x5f8
 4524 0527 81000000 		.4byte	0x81
 4525 052b 02       		.uleb128 0x2
 4526 052c 91       		.byte	0x91
 4527 052d 74       		.sleb128 -12
 4528 052e 00       		.byte	0
 4529 052f 13       		.uleb128 0x13
 4530 0530 B5060000 		.4byte	.LASF63
 4531 0534 01       		.byte	0x1
 4532 0535 2706     		.2byte	0x627
 4533 0537 81000000 		.4byte	0x81
 4534 053b 00000000 		.4byte	.LFB25
 4535 053f 1C000000 		.4byte	.LFE25-.LFB25
 4536 0543 01       		.uleb128 0x1
 4537 0544 9C       		.byte	0x9c
 4538 0545 0D       		.uleb128 0xd
 4539 0546 0C050000 		.4byte	.LASF64
 4540 054a 01       		.byte	0x1
 4541 054b 4906     		.2byte	0x649
 4542 054d 00000000 		.4byte	.LFB26
 4543 0551 6C000000 		.4byte	.LFE26-.LFB26
 4544 0555 01       		.uleb128 0x1
ARM GAS  C:\DOCUME~1\Owner\LOCALS~1\Temp\cc3gLjSb.s 			page 134


 4545 0556 9C       		.byte	0x9c
 4546 0557 89050000 		.4byte	0x589
 4547 055b 0E       		.uleb128 0xe
 4548 055c C1020000 		.4byte	.LASF49
 4549 0560 01       		.byte	0x1
 4550 0561 4906     		.2byte	0x649
 4551 0563 81000000 		.4byte	0x81
 4552 0567 02       		.uleb128 0x2
 4553 0568 91       		.byte	0x91
 4554 0569 64       		.sleb128 -28
 4555 056a 0F       		.uleb128 0xf
 4556 056b 61010000 		.4byte	.LASF25
 4557 056f 01       		.byte	0x1
 4558 0570 4B06     		.2byte	0x64b
 4559 0572 6B000000 		.4byte	0x6b
 4560 0576 02       		.uleb128 0x2
 4561 0577 91       		.byte	0x91
 4562 0578 6B       		.sleb128 -21
 4563 0579 0F       		.uleb128 0xf
 4564 057a BF070000 		.4byte	.LASF65
 4565 057e 01       		.byte	0x1
 4566 057f 4C06     		.2byte	0x64c
 4567 0581 81000000 		.4byte	0x81
 4568 0585 02       		.uleb128 0x2
 4569 0586 91       		.byte	0x91
 4570 0587 6C       		.sleb128 -20
 4571 0588 00       		.byte	0
 4572 0589 14       		.uleb128 0x14
 4573 058a E5040000 		.4byte	.LASF66
 4574 058e 01       		.byte	0x1
 4575 058f 8106     		.2byte	0x681
 4576 0591 00000000 		.4byte	.LFB27
 4577 0595 28000000 		.4byte	.LFE27-.LFB27
 4578 0599 01       		.uleb128 0x1
 4579 059a 9C       		.byte	0x9c
 4580 059b AF050000 		.4byte	0x5af
 4581 059f 0E       		.uleb128 0xe
 4582 05a0 1E020000 		.4byte	.LASF67
 4583 05a4 01       		.byte	0x1
 4584 05a5 8106     		.2byte	0x681
 4585 05a7 81000000 		.4byte	0x81
 4586 05ab 02       		.uleb128 0x2
 4587 05ac 91       		.byte	0x91
 4588 05ad 74       		.sleb128 -12
 4589 05ae 00       		.byte	0
 4590 05af 15       		.uleb128 0x15
 4591 05b0 6A000000 		.4byte	.LASF121
 4592 05b4 01       		.byte	0x1
 4593 05b5 A806     		.2byte	0x6a8
 4594 05b7 00000000 		.4byte	.LFB28
 4595 05bb 9C000000 		.4byte	.LFE28-.LFB28
 4596 05bf 01       		.uleb128 0x1
 4597 05c0 9C       		.byte	0x9c
 4598 05c1 D5050000 		.4byte	0x5d5
 4599 05c5 0F       		.uleb128 0xf
 4600 05c6 F0020000 		.4byte	.LASF68
 4601 05ca 01       		.byte	0x1
ARM GAS  C:\DOCUME~1\Owner\LOCALS~1\Temp\cc3gLjSb.s 			page 135


 4602 05cb AA06     		.2byte	0x6aa
 4603 05cd 81000000 		.4byte	0x81
 4604 05d1 02       		.uleb128 0x2
 4605 05d2 91       		.byte	0x91
 4606 05d3 74       		.sleb128 -12
 4607 05d4 00       		.byte	0
 4608 05d5 16       		.uleb128 0x16
 4609 05d6 47030000 		.4byte	.LASF136
 4610 05da 01       		.byte	0x1
 4611 05db E206     		.2byte	0x6e2
 4612 05dd 00000000 		.4byte	.LFB29
 4613 05e1 3C000000 		.4byte	.LFE29-.LFB29
 4614 05e5 01       		.uleb128 0x1
 4615 05e6 9C       		.byte	0x9c
 4616 05e7 14       		.uleb128 0x14
 4617 05e8 6F020000 		.4byte	.LASF69
 4618 05ec 01       		.byte	0x1
 4619 05ed 0408     		.2byte	0x804
 4620 05ef 00000000 		.4byte	.LFB30
 4621 05f3 48000000 		.4byte	.LFE30-.LFB30
 4622 05f7 01       		.uleb128 0x1
 4623 05f8 9C       		.byte	0x9c
 4624 05f9 0D060000 		.4byte	0x60d
 4625 05fd 0E       		.uleb128 0xe
 4626 05fe FD050000 		.4byte	.LASF70
 4627 0602 01       		.byte	0x1
 4628 0603 0408     		.2byte	0x804
 4629 0605 81000000 		.4byte	0x81
 4630 0609 02       		.uleb128 0x2
 4631 060a 91       		.byte	0x91
 4632 060b 74       		.sleb128 -12
 4633 060c 00       		.byte	0
 4634 060d 17       		.uleb128 0x17
 4635 060e 91070000 		.4byte	.LASF71
 4636 0612 01       		.byte	0x1
 4637 0613 1D08     		.2byte	0x81d
 4638 0615 00000000 		.4byte	.LFB31
 4639 0619 28000000 		.4byte	.LFE31-.LFB31
 4640 061d 01       		.uleb128 0x1
 4641 061e 9C       		.byte	0x9c
 4642 061f 13       		.uleb128 0x13
 4643 0620 1C030000 		.4byte	.LASF72
 4644 0624 01       		.byte	0x1
 4645 0625 3308     		.2byte	0x833
 4646 0627 81000000 		.4byte	0x81
 4647 062b 00000000 		.4byte	.LFB32
 4648 062f 18000000 		.4byte	.LFE32-.LFB32
 4649 0633 01       		.uleb128 0x1
 4650 0634 9C       		.byte	0x9c
 4651 0635 17       		.uleb128 0x17
 4652 0636 2B020000 		.4byte	.LASF73
 4653 063a 01       		.byte	0x1
 4654 063b 4708     		.2byte	0x847
 4655 063d 00000000 		.4byte	.LFB33
 4656 0641 14000000 		.4byte	.LFE33-.LFB33
 4657 0645 01       		.uleb128 0x1
 4658 0646 9C       		.byte	0x9c
ARM GAS  C:\DOCUME~1\Owner\LOCALS~1\Temp\cc3gLjSb.s 			page 136


 4659 0647 12       		.uleb128 0x12
 4660 0648 81030000 		.4byte	.LASF74
 4661 064c 01       		.byte	0x1
 4662 064d 6308     		.2byte	0x863
 4663 064f 81000000 		.4byte	0x81
 4664 0653 00000000 		.4byte	.LFB34
 4665 0657 30000000 		.4byte	.LFE34-.LFB34
 4666 065b 01       		.uleb128 0x1
 4667 065c 9C       		.byte	0x9c
 4668 065d 80060000 		.4byte	0x680
 4669 0661 0E       		.uleb128 0xe
 4670 0662 D0060000 		.4byte	.LASF75
 4671 0666 01       		.byte	0x1
 4672 0667 6308     		.2byte	0x863
 4673 0669 81000000 		.4byte	0x81
 4674 066d 02       		.uleb128 0x2
 4675 066e 91       		.byte	0x91
 4676 066f 6C       		.sleb128 -20
 4677 0670 0F       		.uleb128 0xf
 4678 0671 CC070000 		.4byte	.LASF76
 4679 0675 01       		.byte	0x1
 4680 0676 6508     		.2byte	0x865
 4681 0678 81000000 		.4byte	0x81
 4682 067c 02       		.uleb128 0x2
 4683 067d 91       		.byte	0x91
 4684 067e 74       		.sleb128 -12
 4685 067f 00       		.byte	0
 4686 0680 12       		.uleb128 0x12
 4687 0681 73030000 		.4byte	.LASF77
 4688 0685 01       		.byte	0x1
 4689 0686 7E08     		.2byte	0x87e
 4690 0688 81000000 		.4byte	0x81
 4691 068c 00000000 		.4byte	.LFB35
 4692 0690 24000000 		.4byte	.LFE35-.LFB35
 4693 0694 01       		.uleb128 0x1
 4694 0695 9C       		.byte	0x9c
 4695 0696 AA060000 		.4byte	0x6aa
 4696 069a 0F       		.uleb128 0xf
 4697 069b 21000000 		.4byte	.LASF78
 4698 069f 01       		.byte	0x1
 4699 06a0 8008     		.2byte	0x880
 4700 06a2 81000000 		.4byte	0x81
 4701 06a6 02       		.uleb128 0x2
 4702 06a7 91       		.byte	0x91
 4703 06a8 74       		.sleb128 -12
 4704 06a9 00       		.byte	0
 4705 06aa 14       		.uleb128 0x14
 4706 06ab E0000000 		.4byte	.LASF79
 4707 06af 01       		.byte	0x1
 4708 06b0 9A08     		.2byte	0x89a
 4709 06b2 00000000 		.4byte	.LFB36
 4710 06b6 18000000 		.4byte	.LFE36-.LFB36
 4711 06ba 01       		.uleb128 0x1
 4712 06bb 9C       		.byte	0x9c
 4713 06bc D0060000 		.4byte	0x6d0
 4714 06c0 0E       		.uleb128 0xe
 4715 06c1 50020000 		.4byte	.LASF80
ARM GAS  C:\DOCUME~1\Owner\LOCALS~1\Temp\cc3gLjSb.s 			page 137


 4716 06c5 01       		.byte	0x1
 4717 06c6 9A08     		.2byte	0x89a
 4718 06c8 81000000 		.4byte	0x81
 4719 06cc 02       		.uleb128 0x2
 4720 06cd 91       		.byte	0x91
 4721 06ce 74       		.sleb128 -12
 4722 06cf 00       		.byte	0
 4723 06d0 11       		.uleb128 0x11
 4724 06d1 FE030000 		.4byte	.LASF81
 4725 06d5 01       		.byte	0x1
 4726 06d6 B608     		.2byte	0x8b6
 4727 06d8 C3000000 		.4byte	0xc3
 4728 06dc 00000000 		.4byte	.LFB37
 4729 06e0 48000000 		.4byte	.LFE37-.LFB37
 4730 06e4 01       		.uleb128 0x1
 4731 06e5 9C       		.byte	0x9c
 4732 06e6 27070000 		.4byte	0x727
 4733 06ea 0E       		.uleb128 0xe
 4734 06eb 49020000 		.4byte	.LASF82
 4735 06ef 01       		.byte	0x1
 4736 06f0 B608     		.2byte	0x8b6
 4737 06f2 6B000000 		.4byte	0x6b
 4738 06f6 02       		.uleb128 0x2
 4739 06f7 91       		.byte	0x91
 4740 06f8 6F       		.sleb128 -17
 4741 06f9 0E       		.uleb128 0xe
 4742 06fa 97040000 		.4byte	.LASF83
 4743 06fe 01       		.byte	0x1
 4744 06ff B608     		.2byte	0x8b6
 4745 0701 C3000000 		.4byte	0xc3
 4746 0705 02       		.uleb128 0x2
 4747 0706 91       		.byte	0x91
 4748 0707 68       		.sleb128 -24
 4749 0708 0F       		.uleb128 0xf
 4750 0709 58000000 		.4byte	.LASF84
 4751 070d 01       		.byte	0x1
 4752 070e B808     		.2byte	0x8b8
 4753 0710 C3000000 		.4byte	0xc3
 4754 0714 02       		.uleb128 0x2
 4755 0715 91       		.byte	0x91
 4756 0716 70       		.sleb128 -16
 4757 0717 0F       		.uleb128 0xf
 4758 0718 D7060000 		.4byte	.LASF85
 4759 071c 01       		.byte	0x1
 4760 071d B908     		.2byte	0x8b9
 4761 071f 27070000 		.4byte	0x727
 4762 0723 02       		.uleb128 0x2
 4763 0724 91       		.byte	0x91
 4764 0725 74       		.sleb128 -12
 4765 0726 00       		.byte	0
 4766 0727 07       		.uleb128 0x7
 4767 0728 04       		.byte	0x4
 4768 0729 C3000000 		.4byte	0xc3
 4769 072d 11       		.uleb128 0x11
 4770 072e 74060000 		.4byte	.LASF86
 4771 0732 01       		.byte	0x1
 4772 0733 DB08     		.2byte	0x8db
ARM GAS  C:\DOCUME~1\Owner\LOCALS~1\Temp\cc3gLjSb.s 			page 138


 4773 0735 C3000000 		.4byte	0xc3
 4774 0739 00000000 		.4byte	.LFB38
 4775 073d 34000000 		.4byte	.LFE38-.LFB38
 4776 0741 01       		.uleb128 0x1
 4777 0742 9C       		.byte	0x9c
 4778 0743 66070000 		.4byte	0x766
 4779 0747 0E       		.uleb128 0xe
 4780 0748 49020000 		.4byte	.LASF82
 4781 074c 01       		.byte	0x1
 4782 074d DB08     		.2byte	0x8db
 4783 074f 6B000000 		.4byte	0x6b
 4784 0753 02       		.uleb128 0x2
 4785 0754 91       		.byte	0x91
 4786 0755 6F       		.sleb128 -17
 4787 0756 0F       		.uleb128 0xf
 4788 0757 D7060000 		.4byte	.LASF85
 4789 075b 01       		.byte	0x1
 4790 075c DD08     		.2byte	0x8dd
 4791 075e 27070000 		.4byte	0x727
 4792 0762 02       		.uleb128 0x2
 4793 0763 91       		.byte	0x91
 4794 0764 74       		.sleb128 -12
 4795 0765 00       		.byte	0
 4796 0766 11       		.uleb128 0x11
 4797 0767 A8030000 		.4byte	.LASF87
 4798 076b 01       		.byte	0x1
 4799 076c F408     		.2byte	0x8f4
 4800 076e C3000000 		.4byte	0xc3
 4801 0772 00000000 		.4byte	.LFB39
 4802 0776 4C000000 		.4byte	.LFE39-.LFB39
 4803 077a 01       		.uleb128 0x1
 4804 077b 9C       		.byte	0x9c
 4805 077c BD070000 		.4byte	0x7bd
 4806 0780 0E       		.uleb128 0xe
 4807 0781 49020000 		.4byte	.LASF82
 4808 0785 01       		.byte	0x1
 4809 0786 F408     		.2byte	0x8f4
 4810 0788 6B000000 		.4byte	0x6b
 4811 078c 02       		.uleb128 0x2
 4812 078d 91       		.byte	0x91
 4813 078e 6F       		.sleb128 -17
 4814 078f 0E       		.uleb128 0xe
 4815 0790 97040000 		.4byte	.LASF83
 4816 0794 01       		.byte	0x1
 4817 0795 F408     		.2byte	0x8f4
 4818 0797 C3000000 		.4byte	0xc3
 4819 079b 02       		.uleb128 0x2
 4820 079c 91       		.byte	0x91
 4821 079d 68       		.sleb128 -24
 4822 079e 0F       		.uleb128 0xf
 4823 079f 58000000 		.4byte	.LASF84
 4824 07a3 01       		.byte	0x1
 4825 07a4 F608     		.2byte	0x8f6
 4826 07a6 C3000000 		.4byte	0xc3
 4827 07aa 02       		.uleb128 0x2
 4828 07ab 91       		.byte	0x91
 4829 07ac 70       		.sleb128 -16
ARM GAS  C:\DOCUME~1\Owner\LOCALS~1\Temp\cc3gLjSb.s 			page 139


 4830 07ad 0F       		.uleb128 0xf
 4831 07ae D7060000 		.4byte	.LASF85
 4832 07b2 01       		.byte	0x1
 4833 07b3 F708     		.2byte	0x8f7
 4834 07b5 27070000 		.4byte	0x727
 4835 07b9 02       		.uleb128 0x2
 4836 07ba 91       		.byte	0x91
 4837 07bb 74       		.sleb128 -12
 4838 07bc 00       		.byte	0
 4839 07bd 11       		.uleb128 0x11
 4840 07be B7050000 		.4byte	.LASF88
 4841 07c2 01       		.byte	0x1
 4842 07c3 1309     		.2byte	0x913
 4843 07c5 C3000000 		.4byte	0xc3
 4844 07c9 00000000 		.4byte	.LFB40
 4845 07cd 36000000 		.4byte	.LFE40-.LFB40
 4846 07d1 01       		.uleb128 0x1
 4847 07d2 9C       		.byte	0x9c
 4848 07d3 F6070000 		.4byte	0x7f6
 4849 07d7 0E       		.uleb128 0xe
 4850 07d8 49020000 		.4byte	.LASF82
 4851 07dc 01       		.byte	0x1
 4852 07dd 1309     		.2byte	0x913
 4853 07df 6B000000 		.4byte	0x6b
 4854 07e3 02       		.uleb128 0x2
 4855 07e4 91       		.byte	0x91
 4856 07e5 6F       		.sleb128 -17
 4857 07e6 0F       		.uleb128 0xf
 4858 07e7 D7060000 		.4byte	.LASF85
 4859 07eb 01       		.byte	0x1
 4860 07ec 1509     		.2byte	0x915
 4861 07ee 27070000 		.4byte	0x727
 4862 07f2 02       		.uleb128 0x2
 4863 07f3 91       		.byte	0x91
 4864 07f4 74       		.sleb128 -12
 4865 07f5 00       		.byte	0
 4866 07f6 0D       		.uleb128 0xd
 4867 07f7 FB040000 		.4byte	.LASF89
 4868 07fb 01       		.byte	0x1
 4869 07fc 2B09     		.2byte	0x92b
 4870 07fe 00000000 		.4byte	.LFB41
 4871 0802 A8000000 		.4byte	.LFE41-.LFB41
 4872 0806 01       		.uleb128 0x1
 4873 0807 9C       		.byte	0x9c
 4874 0808 58080000 		.4byte	0x858
 4875 080c 0E       		.uleb128 0xe
 4876 080d 49020000 		.4byte	.LASF82
 4877 0811 01       		.byte	0x1
 4878 0812 2B09     		.2byte	0x92b
 4879 0814 6B000000 		.4byte	0x6b
 4880 0818 02       		.uleb128 0x2
 4881 0819 91       		.byte	0x91
 4882 081a 5F       		.sleb128 -33
 4883 081b 0E       		.uleb128 0xe
 4884 081c EB060000 		.4byte	.LASF90
 4885 0820 01       		.byte	0x1
 4886 0821 2B09     		.2byte	0x92b
ARM GAS  C:\DOCUME~1\Owner\LOCALS~1\Temp\cc3gLjSb.s 			page 140


 4887 0823 6B000000 		.4byte	0x6b
 4888 0827 02       		.uleb128 0x2
 4889 0828 91       		.byte	0x91
 4890 0829 5E       		.sleb128 -34
 4891 082a 0F       		.uleb128 0xf
 4892 082b 61010000 		.4byte	.LASF25
 4893 082f 01       		.byte	0x1
 4894 0830 2D09     		.2byte	0x92d
 4895 0832 6B000000 		.4byte	0x6b
 4896 0836 02       		.uleb128 0x2
 4897 0837 91       		.byte	0x91
 4898 0838 6B       		.sleb128 -21
 4899 0839 0F       		.uleb128 0xf
 4900 083a 18020000 		.4byte	.LASF91
 4901 083e 01       		.byte	0x1
 4902 083f 2E09     		.2byte	0x92e
 4903 0841 81000000 		.4byte	0x81
 4904 0845 02       		.uleb128 0x2
 4905 0846 91       		.byte	0x91
 4906 0847 6C       		.sleb128 -20
 4907 0848 0F       		.uleb128 0xf
 4908 0849 2A000000 		.4byte	.LASF92
 4909 084d 01       		.byte	0x1
 4910 084e 2F09     		.2byte	0x92f
 4911 0850 81000000 		.4byte	0x81
 4912 0854 02       		.uleb128 0x2
 4913 0855 91       		.byte	0x91
 4914 0856 64       		.sleb128 -28
 4915 0857 00       		.byte	0
 4916 0858 11       		.uleb128 0x11
 4917 0859 7E020000 		.4byte	.LASF93
 4918 085d 01       		.byte	0x1
 4919 085e 4F09     		.2byte	0x94f
 4920 0860 6B000000 		.4byte	0x6b
 4921 0864 00000000 		.4byte	.LFB42
 4922 0868 58000000 		.4byte	.LFE42-.LFB42
 4923 086c 01       		.uleb128 0x1
 4924 086d 9C       		.byte	0x9c
 4925 086e 91080000 		.4byte	0x891
 4926 0872 0E       		.uleb128 0xe
 4927 0873 49020000 		.4byte	.LASF82
 4928 0877 01       		.byte	0x1
 4929 0878 4F09     		.2byte	0x94f
 4930 087a 6B000000 		.4byte	0x6b
 4931 087e 02       		.uleb128 0x2
 4932 087f 91       		.byte	0x91
 4933 0880 6F       		.sleb128 -17
 4934 0881 0F       		.uleb128 0xf
 4935 0882 EB060000 		.4byte	.LASF90
 4936 0886 01       		.byte	0x1
 4937 0887 5109     		.2byte	0x951
 4938 0889 6B000000 		.4byte	0x6b
 4939 088d 02       		.uleb128 0x2
 4940 088e 91       		.byte	0x91
 4941 088f 77       		.sleb128 -9
 4942 0890 00       		.byte	0
 4943 0891 14       		.uleb128 0x14
ARM GAS  C:\DOCUME~1\Owner\LOCALS~1\Temp\cc3gLjSb.s 			page 141


 4944 0892 68060000 		.4byte	.LASF94
 4945 0896 01       		.byte	0x1
 4946 0897 6909     		.2byte	0x969
 4947 0899 00000000 		.4byte	.LFB43
 4948 089d 2C000000 		.4byte	.LFE43-.LFB43
 4949 08a1 01       		.uleb128 0x1
 4950 08a2 9C       		.byte	0x9c
 4951 08a3 B7080000 		.4byte	0x8b7
 4952 08a7 0E       		.uleb128 0xe
 4953 08a8 49020000 		.4byte	.LASF82
 4954 08ac 01       		.byte	0x1
 4955 08ad 6909     		.2byte	0x969
 4956 08af 6B000000 		.4byte	0x6b
 4957 08b3 02       		.uleb128 0x2
 4958 08b4 91       		.byte	0x91
 4959 08b5 77       		.sleb128 -9
 4960 08b6 00       		.byte	0
 4961 08b7 12       		.uleb128 0x12
 4962 08b8 16010000 		.4byte	.LASF95
 4963 08bc 01       		.byte	0x1
 4964 08bd 7D09     		.2byte	0x97d
 4965 08bf 6B000000 		.4byte	0x6b
 4966 08c3 00000000 		.4byte	.LFB44
 4967 08c7 34000000 		.4byte	.LFE44-.LFB44
 4968 08cb 01       		.uleb128 0x1
 4969 08cc 9C       		.byte	0x9c
 4970 08cd E1080000 		.4byte	0x8e1
 4971 08d1 0E       		.uleb128 0xe
 4972 08d2 49020000 		.4byte	.LASF82
 4973 08d6 01       		.byte	0x1
 4974 08d7 7D09     		.2byte	0x97d
 4975 08d9 6B000000 		.4byte	0x6b
 4976 08dd 02       		.uleb128 0x2
 4977 08de 91       		.byte	0x91
 4978 08df 77       		.sleb128 -9
 4979 08e0 00       		.byte	0
 4980 08e1 14       		.uleb128 0x14
 4981 08e2 AE010000 		.4byte	.LASF96
 4982 08e6 01       		.byte	0x1
 4983 08e7 9209     		.2byte	0x992
 4984 08e9 00000000 		.4byte	.LFB45
 4985 08ed 2C000000 		.4byte	.LFE45-.LFB45
 4986 08f1 01       		.uleb128 0x1
 4987 08f2 9C       		.byte	0x9c
 4988 08f3 07090000 		.4byte	0x907
 4989 08f7 0E       		.uleb128 0xe
 4990 08f8 49020000 		.4byte	.LASF82
 4991 08fc 01       		.byte	0x1
 4992 08fd 9209     		.2byte	0x992
 4993 08ff 6B000000 		.4byte	0x6b
 4994 0903 02       		.uleb128 0x2
 4995 0904 91       		.byte	0x91
 4996 0905 77       		.sleb128 -9
 4997 0906 00       		.byte	0
 4998 0907 14       		.uleb128 0x14
 4999 0908 63030000 		.4byte	.LASF97
 5000 090c 01       		.byte	0x1
ARM GAS  C:\DOCUME~1\Owner\LOCALS~1\Temp\cc3gLjSb.s 			page 142


 5001 090d A509     		.2byte	0x9a5
 5002 090f 00000000 		.4byte	.LFB46
 5003 0913 2C000000 		.4byte	.LFE46-.LFB46
 5004 0917 01       		.uleb128 0x1
 5005 0918 9C       		.byte	0x9c
 5006 0919 2D090000 		.4byte	0x92d
 5007 091d 0E       		.uleb128 0xe
 5008 091e 49020000 		.4byte	.LASF82
 5009 0922 01       		.byte	0x1
 5010 0923 A509     		.2byte	0x9a5
 5011 0925 6B000000 		.4byte	0x6b
 5012 0929 02       		.uleb128 0x2
 5013 092a 91       		.byte	0x91
 5014 092b 77       		.sleb128 -9
 5015 092c 00       		.byte	0
 5016 092d 14       		.uleb128 0x14
 5017 092e 85040000 		.4byte	.LASF98
 5018 0932 01       		.byte	0x1
 5019 0933 B909     		.2byte	0x9b9
 5020 0935 00000000 		.4byte	.LFB47
 5021 0939 2C000000 		.4byte	.LFE47-.LFB47
 5022 093d 01       		.uleb128 0x1
 5023 093e 9C       		.byte	0x9c
 5024 093f 53090000 		.4byte	0x953
 5025 0943 0E       		.uleb128 0xe
 5026 0944 49020000 		.4byte	.LASF82
 5027 0948 01       		.byte	0x1
 5028 0949 B909     		.2byte	0x9b9
 5029 094b 6B000000 		.4byte	0x6b
 5030 094f 02       		.uleb128 0x2
 5031 0950 91       		.byte	0x91
 5032 0951 77       		.sleb128 -9
 5033 0952 00       		.byte	0
 5034 0953 14       		.uleb128 0x14
 5035 0954 07060000 		.4byte	.LASF99
 5036 0958 01       		.byte	0x1
 5037 0959 CD09     		.2byte	0x9cd
 5038 095b 00000000 		.4byte	.LFB48
 5039 095f 14000000 		.4byte	.LFE48-.LFB48
 5040 0963 01       		.uleb128 0x1
 5041 0964 9C       		.byte	0x9c
 5042 0965 79090000 		.4byte	0x979
 5043 0969 0E       		.uleb128 0xe
 5044 096a D0060000 		.4byte	.LASF75
 5045 096e 01       		.byte	0x1
 5046 096f CD09     		.2byte	0x9cd
 5047 0971 6B000000 		.4byte	0x6b
 5048 0975 02       		.uleb128 0x2
 5049 0976 91       		.byte	0x91
 5050 0977 77       		.sleb128 -9
 5051 0978 00       		.byte	0
 5052 0979 17       		.uleb128 0x17
 5053 097a ED000000 		.4byte	.LASF100
 5054 097e 01       		.byte	0x1
 5055 097f EC09     		.2byte	0x9ec
 5056 0981 00000000 		.4byte	.LFB49
 5057 0985 20000000 		.4byte	.LFE49-.LFB49
ARM GAS  C:\DOCUME~1\Owner\LOCALS~1\Temp\cc3gLjSb.s 			page 143


 5058 0989 01       		.uleb128 0x1
 5059 098a 9C       		.byte	0x9c
 5060 098b 0D       		.uleb128 0xd
 5061 098c 62070000 		.4byte	.LASF101
 5062 0990 01       		.byte	0x1
 5063 0991 050A     		.2byte	0xa05
 5064 0993 00000000 		.4byte	.LFB50
 5065 0997 48000000 		.4byte	.LFE50-.LFB50
 5066 099b 01       		.uleb128 0x1
 5067 099c 9C       		.byte	0x9c
 5068 099d B1090000 		.4byte	0x9b1
 5069 09a1 0E       		.uleb128 0xe
 5070 09a2 C6050000 		.4byte	.LASF102
 5071 09a6 01       		.byte	0x1
 5072 09a7 050A     		.2byte	0xa05
 5073 09a9 81000000 		.4byte	0x81
 5074 09ad 02       		.uleb128 0x2
 5075 09ae 91       		.byte	0x91
 5076 09af 74       		.sleb128 -12
 5077 09b0 00       		.byte	0
 5078 09b1 0D       		.uleb128 0xd
 5079 09b2 70010000 		.4byte	.LASF103
 5080 09b6 01       		.byte	0x1
 5081 09b7 210A     		.2byte	0xa21
 5082 09b9 00000000 		.4byte	.LFB51
 5083 09bd 28000000 		.4byte	.LFE51-.LFB51
 5084 09c1 01       		.uleb128 0x1
 5085 09c2 9C       		.byte	0x9c
 5086 09c3 D7090000 		.4byte	0x9d7
 5087 09c7 0E       		.uleb128 0xe
 5088 09c8 56080000 		.4byte	.LASF104
 5089 09cc 01       		.byte	0x1
 5090 09cd 210A     		.2byte	0xa21
 5091 09cf 76000000 		.4byte	0x76
 5092 09d3 02       		.uleb128 0x2
 5093 09d4 91       		.byte	0x91
 5094 09d5 76       		.sleb128 -10
 5095 09d6 00       		.byte	0
 5096 09d7 0D       		.uleb128 0xd
 5097 09d8 55010000 		.4byte	.LASF105
 5098 09dc 01       		.byte	0x1
 5099 09dd 340A     		.2byte	0xa34
 5100 09df 00000000 		.4byte	.LFB52
 5101 09e3 80000000 		.4byte	.LFE52-.LFB52
 5102 09e7 01       		.uleb128 0x1
 5103 09e8 9C       		.byte	0x9c
 5104 09e9 FD090000 		.4byte	0x9fd
 5105 09ed 0E       		.uleb128 0xe
 5106 09ee 3E010000 		.4byte	.LASF30
 5107 09f2 01       		.byte	0x1
 5108 09f3 340A     		.2byte	0xa34
 5109 09f5 81000000 		.4byte	0x81
 5110 09f9 02       		.uleb128 0x2
 5111 09fa 91       		.byte	0x91
 5112 09fb 74       		.sleb128 -12
 5113 09fc 00       		.byte	0
 5114 09fd 18       		.uleb128 0x18
ARM GAS  C:\DOCUME~1\Owner\LOCALS~1\Temp\cc3gLjSb.s 			page 144


 5115 09fe 30040000 		.4byte	.LASF106
 5116 0a02 01       		.byte	0x1
 5117 0a03 570A     		.2byte	0xa57
 5118 0a05 00000000 		.4byte	.LFB53
 5119 0a09 24000000 		.4byte	.LFE53-.LFB53
 5120 0a0d 01       		.uleb128 0x1
 5121 0a0e 9C       		.byte	0x9c
 5122 0a0f 0D       		.uleb128 0xd
 5123 0a10 A4020000 		.4byte	.LASF107
 5124 0a14 01       		.byte	0x1
 5125 0a15 790A     		.2byte	0xa79
 5126 0a17 00000000 		.4byte	.LFB54
 5127 0a1b 60000000 		.4byte	.LFE54-.LFB54
 5128 0a1f 01       		.uleb128 0x1
 5129 0a20 9C       		.byte	0x9c
 5130 0a21 330A0000 		.4byte	0xa33
 5131 0a25 19       		.uleb128 0x19
 5132 0a26 6900     		.ascii	"i\000"
 5133 0a28 01       		.byte	0x1
 5134 0a29 7B0A     		.2byte	0xa7b
 5135 0a2b 81000000 		.4byte	0x81
 5136 0a2f 02       		.uleb128 0x2
 5137 0a30 91       		.byte	0x91
 5138 0a31 74       		.sleb128 -12
 5139 0a32 00       		.byte	0
 5140 0a33 18       		.uleb128 0x18
 5141 0a34 06070000 		.4byte	.LASF108
 5142 0a38 01       		.byte	0x1
 5143 0a39 9F0A     		.2byte	0xa9f
 5144 0a3b 00000000 		.4byte	.LFB55
 5145 0a3f 1C000000 		.4byte	.LFE55-.LFB55
 5146 0a43 01       		.uleb128 0x1
 5147 0a44 9C       		.byte	0x9c
 5148 0a45 17       		.uleb128 0x17
 5149 0a46 EF070000 		.4byte	.LASF109
 5150 0a4a 01       		.byte	0x1
 5151 0a4b B70A     		.2byte	0xab7
 5152 0a4d 00000000 		.4byte	.LFB56
 5153 0a51 18000000 		.4byte	.LFE56-.LFB56
 5154 0a55 01       		.uleb128 0x1
 5155 0a56 9C       		.byte	0x9c
 5156 0a57 17       		.uleb128 0x17
 5157 0a58 FD000000 		.4byte	.LASF110
 5158 0a5c 01       		.byte	0x1
 5159 0a5d CE0A     		.2byte	0xace
 5160 0a5f 00000000 		.4byte	.LFB57
 5161 0a63 18000000 		.4byte	.LFE57-.LFB57
 5162 0a67 01       		.uleb128 0x1
 5163 0a68 9C       		.byte	0x9c
 5164 0a69 17       		.uleb128 0x17
 5165 0a6a 6A070000 		.4byte	.LASF111
 5166 0a6e 01       		.byte	0x1
 5167 0a6f E50A     		.2byte	0xae5
 5168 0a71 00000000 		.4byte	.LFB58
 5169 0a75 18000000 		.4byte	.LFE58-.LFB58
 5170 0a79 01       		.uleb128 0x1
 5171 0a7a 9C       		.byte	0x9c
ARM GAS  C:\DOCUME~1\Owner\LOCALS~1\Temp\cc3gLjSb.s 			page 145


 5172 0a7b 14       		.uleb128 0x14
 5173 0a7c 63080000 		.4byte	.LASF112
 5174 0a80 01       		.byte	0x1
 5175 0a81 FB0A     		.2byte	0xafb
 5176 0a83 00000000 		.4byte	.LFB59
 5177 0a87 1C000000 		.4byte	.LFE59-.LFB59
 5178 0a8b 01       		.uleb128 0x1
 5179 0a8c 9C       		.byte	0x9c
 5180 0a8d A10A0000 		.4byte	0xaa1
 5181 0a91 0E       		.uleb128 0xe
 5182 0a92 2A000000 		.4byte	.LASF92
 5183 0a96 01       		.byte	0x1
 5184 0a97 FB0A     		.2byte	0xafb
 5185 0a99 81000000 		.4byte	0x81
 5186 0a9d 02       		.uleb128 0x2
 5187 0a9e 91       		.byte	0x91
 5188 0a9f 74       		.sleb128 -12
 5189 0aa0 00       		.byte	0
 5190 0aa1 13       		.uleb128 0x13
 5191 0aa2 7A010000 		.4byte	.LASF113
 5192 0aa6 01       		.byte	0x1
 5193 0aa7 0F0B     		.2byte	0xb0f
 5194 0aa9 81000000 		.4byte	0x81
 5195 0aad 00000000 		.4byte	.LFB60
 5196 0ab1 18000000 		.4byte	.LFE60-.LFB60
 5197 0ab5 01       		.uleb128 0x1
 5198 0ab6 9C       		.byte	0x9c
 5199 0ab7 13       		.uleb128 0x13
 5200 0ab8 C5040000 		.4byte	.LASF114
 5201 0abc 01       		.byte	0x1
 5202 0abd 230B     		.2byte	0xb23
 5203 0abf 81000000 		.4byte	0x81
 5204 0ac3 00000000 		.4byte	.LFB61
 5205 0ac7 1C000000 		.4byte	.LFE61-.LFB61
 5206 0acb 01       		.uleb128 0x1
 5207 0acc 9C       		.byte	0x9c
 5208 0acd 13       		.uleb128 0x13
 5209 0ace CD020000 		.4byte	.LASF115
 5210 0ad2 01       		.byte	0x1
 5211 0ad3 630B     		.2byte	0xb63
 5212 0ad5 81000000 		.4byte	0x81
 5213 0ad9 00000000 		.4byte	.LFB62
 5214 0add 18000000 		.4byte	.LFE62-.LFB62
 5215 0ae1 01       		.uleb128 0x1
 5216 0ae2 9C       		.byte	0x9c
 5217 0ae3 17       		.uleb128 0x17
 5218 0ae4 FB020000 		.4byte	.LASF116
 5219 0ae8 01       		.byte	0x1
 5220 0ae9 770B     		.2byte	0xb77
 5221 0aeb 00000000 		.4byte	.LFB63
 5222 0aef 14000000 		.4byte	.LFE63-.LFB63
 5223 0af3 01       		.uleb128 0x1
 5224 0af4 9C       		.byte	0x9c
 5225 0af5 12       		.uleb128 0x12
 5226 0af6 3A070000 		.4byte	.LASF117
 5227 0afa 01       		.byte	0x1
 5228 0afb 8F0B     		.2byte	0xb8f
ARM GAS  C:\DOCUME~1\Owner\LOCALS~1\Temp\cc3gLjSb.s 			page 146


 5229 0afd DD000000 		.4byte	0xdd
 5230 0b01 00000000 		.4byte	.LFB64
 5231 0b05 2C000000 		.4byte	.LFE64-.LFB64
 5232 0b09 01       		.uleb128 0x1
 5233 0b0a 9C       		.byte	0x9c
 5234 0b0b 3D0B0000 		.4byte	0xb3d
 5235 0b0f 0E       		.uleb128 0xe
 5236 0b10 49020000 		.4byte	.LASF82
 5237 0b14 01       		.byte	0x1
 5238 0b15 8F0B     		.2byte	0xb8f
 5239 0b17 81000000 		.4byte	0x81
 5240 0b1b 02       		.uleb128 0x2
 5241 0b1c 91       		.byte	0x91
 5242 0b1d 6C       		.sleb128 -20
 5243 0b1e 0E       		.uleb128 0xe
 5244 0b1f 11080000 		.4byte	.LASF118
 5245 0b23 01       		.byte	0x1
 5246 0b24 8F0B     		.2byte	0xb8f
 5247 0b26 DD000000 		.4byte	0xdd
 5248 0b2a 02       		.uleb128 0x2
 5249 0b2b 91       		.byte	0x91
 5250 0b2c 68       		.sleb128 -24
 5251 0b2d 0F       		.uleb128 0xf
 5252 0b2e A7040000 		.4byte	.LASF119
 5253 0b32 01       		.byte	0x1
 5254 0b33 910B     		.2byte	0xb91
 5255 0b35 DD000000 		.4byte	0xdd
 5256 0b39 02       		.uleb128 0x2
 5257 0b3a 91       		.byte	0x91
 5258 0b3b 74       		.sleb128 -12
 5259 0b3c 00       		.byte	0
 5260 0b3d 12       		.uleb128 0x12
 5261 0b3e BB010000 		.4byte	.LASF120
 5262 0b42 01       		.byte	0x1
 5263 0b43 A70B     		.2byte	0xba7
 5264 0b45 DD000000 		.4byte	0xdd
 5265 0b49 00000000 		.4byte	.LFB65
 5266 0b4d 1C000000 		.4byte	.LFE65-.LFB65
 5267 0b51 01       		.uleb128 0x1
 5268 0b52 9C       		.byte	0x9c
 5269 0b53 670B0000 		.4byte	0xb67
 5270 0b57 0E       		.uleb128 0xe
 5271 0b58 49020000 		.4byte	.LASF82
 5272 0b5c 01       		.byte	0x1
 5273 0b5d A70B     		.2byte	0xba7
 5274 0b5f 81000000 		.4byte	0x81
 5275 0b63 02       		.uleb128 0x2
 5276 0b64 91       		.byte	0x91
 5277 0b65 74       		.sleb128 -12
 5278 0b66 00       		.byte	0
 5279 0b67 15       		.uleb128 0x15
 5280 0b68 76080000 		.4byte	.LASF122
 5281 0b6c 01       		.byte	0x1
 5282 0b6d BB0B     		.2byte	0xbbb
 5283 0b6f 00000000 		.4byte	.LFB66
 5284 0b73 44000000 		.4byte	.LFE66-.LFB66
 5285 0b77 01       		.uleb128 0x1
ARM GAS  C:\DOCUME~1\Owner\LOCALS~1\Temp\cc3gLjSb.s 			page 147


 5286 0b78 9C       		.byte	0x9c
 5287 0b79 8B0B0000 		.4byte	0xb8b
 5288 0b7d 19       		.uleb128 0x19
 5289 0b7e 6900     		.ascii	"i\000"
 5290 0b80 01       		.byte	0x1
 5291 0b81 BD0B     		.2byte	0xbbd
 5292 0b83 81000000 		.4byte	0x81
 5293 0b87 02       		.uleb128 0x2
 5294 0b88 91       		.byte	0x91
 5295 0b89 74       		.sleb128 -12
 5296 0b8a 00       		.byte	0
 5297 0b8b 1A       		.uleb128 0x1a
 5298 0b8c DD000000 		.4byte	0xdd
 5299 0b90 9B0B0000 		.4byte	0xb9b
 5300 0b94 1B       		.uleb128 0x1b
 5301 0b95 D6000000 		.4byte	0xd6
 5302 0b99 04       		.byte	0x4
 5303 0b9a 00       		.byte	0
 5304 0b9b 0B       		.uleb128 0xb
 5305 0b9c 4F070000 		.4byte	.LASF123
 5306 0ba0 01       		.byte	0x1
 5307 0ba1 32       		.byte	0x32
 5308 0ba2 8B0B0000 		.4byte	0xb8b
 5309 0ba6 05       		.uleb128 0x5
 5310 0ba7 03       		.byte	0x3
 5311 0ba8 0C000000 		.4byte	CySysTickCallbacks
 5312 0bac 1C       		.uleb128 0x1c
 5313 0bad CF000000 		.4byte	.LASF124
 5314 0bb1 01       		.byte	0x1
 5315 0bb2 34       		.byte	0x34
 5316 0bb3 81000000 		.4byte	0x81
 5317 0bb7 05       		.uleb128 0x5
 5318 0bb8 03       		.byte	0x3
 5319 0bb9 00000000 		.4byte	CySysTickInitVar
 5320 0bbd 1C       		.uleb128 0x1c
 5321 0bbe D7040000 		.4byte	.LASF125
 5322 0bc2 01       		.byte	0x1
 5323 0bc3 17       		.byte	0x17
 5324 0bc4 81000000 		.4byte	0x81
 5325 0bc8 05       		.uleb128 0x5
 5326 0bc9 03       		.byte	0x3
 5327 0bca 00000000 		.4byte	cydelayFreqHz
 5328 0bce 1C       		.uleb128 0x1c
 5329 0bcf D6010000 		.4byte	.LASF126
 5330 0bd3 01       		.byte	0x1
 5331 0bd4 18       		.byte	0x18
 5332 0bd5 81000000 		.4byte	0x81
 5333 0bd9 05       		.uleb128 0x5
 5334 0bda 03       		.byte	0x3
 5335 0bdb 00000000 		.4byte	cydelayFreqKhz
 5336 0bdf 1C       		.uleb128 0x1c
 5337 0be0 B0070000 		.4byte	.LASF127
 5338 0be4 01       		.byte	0x1
 5339 0be5 19       		.byte	0x19
 5340 0be6 6B000000 		.4byte	0x6b
 5341 0bea 05       		.uleb128 0x5
 5342 0beb 03       		.byte	0x3
ARM GAS  C:\DOCUME~1\Owner\LOCALS~1\Temp\cc3gLjSb.s 			page 148


 5343 0bec 00000000 		.4byte	cydelayFreqMhz
 5344 0bf0 1C       		.uleb128 0x1c
 5345 0bf1 84070000 		.4byte	.LASF128
 5346 0bf5 01       		.byte	0x1
 5347 0bf6 1A       		.byte	0x1a
 5348 0bf7 81000000 		.4byte	0x81
 5349 0bfb 05       		.uleb128 0x5
 5350 0bfc 03       		.byte	0x3
 5351 0bfd 00000000 		.4byte	cydelay32kMs
 5352 0c01 1C       		.uleb128 0x1c
 5353 0c02 99000000 		.4byte	.LASF129
 5354 0c06 01       		.byte	0x1
 5355 0c07 23       		.byte	0x23
 5356 0c08 81000000 		.4byte	0x81
 5357 0c0c 05       		.uleb128 0x5
 5358 0c0d 03       		.byte	0x3
 5359 0c0e 00000000 		.4byte	lfclkPosedgeWdtCounter0Enabled
 5360 0c12 1C       		.uleb128 0x1c
 5361 0c13 1C060000 		.4byte	.LASF130
 5362 0c17 01       		.byte	0x1
 5363 0c18 24       		.byte	0x24
 5364 0c19 81000000 		.4byte	0x81
 5365 0c1d 05       		.uleb128 0x5
 5366 0c1e 03       		.byte	0x3
 5367 0c1f 00000000 		.4byte	lfclkPosedgeEnabledWdtCounter
 5368 0c23 1C       		.uleb128 0x1c
 5369 0c24 D3070000 		.4byte	.LASF131
 5370 0c28 01       		.byte	0x1
 5371 0c29 25       		.byte	0x25
 5372 0c2a 81000000 		.4byte	0x81
 5373 0c2e 05       		.uleb128 0x5
 5374 0c2f 03       		.byte	0x3
 5375 0c30 00000000 		.4byte	lfclkPosedgeWdtCounter0Mode
 5376 0c34 1A       		.uleb128 0x1a
 5377 0c35 6B000000 		.4byte	0x6b
 5378 0c39 440C0000 		.4byte	0xc44
 5379 0c3d 1B       		.uleb128 0x1b
 5380 0c3e D6000000 		.4byte	0xd6
 5381 0c42 2D       		.byte	0x2d
 5382 0c43 00       		.byte	0
 5383 0c44 1C       		.uleb128 0x1c
 5384 0c45 B4040000 		.4byte	.LASF132
 5385 0c49 01       		.byte	0x1
 5386 0c4a 39       		.byte	0x39
 5387 0c4b 550C0000 		.4byte	0xc55
 5388 0c4f 05       		.uleb128 0x5
 5389 0c50 03       		.byte	0x3
 5390 0c51 00000000 		.4byte	cyImoFreqMhz2Reg
 5391 0c55 1D       		.uleb128 0x1d
 5392 0c56 340C0000 		.4byte	0xc34
 5393 0c5a 00       		.byte	0
 5394              		.section	.debug_abbrev,"",%progbits
 5395              	.Ldebug_abbrev0:
 5396 0000 01       		.uleb128 0x1
 5397 0001 11       		.uleb128 0x11
 5398 0002 01       		.byte	0x1
 5399 0003 25       		.uleb128 0x25
ARM GAS  C:\DOCUME~1\Owner\LOCALS~1\Temp\cc3gLjSb.s 			page 149


 5400 0004 0E       		.uleb128 0xe
 5401 0005 13       		.uleb128 0x13
 5402 0006 0B       		.uleb128 0xb
 5403 0007 03       		.uleb128 0x3
 5404 0008 0E       		.uleb128 0xe
 5405 0009 1B       		.uleb128 0x1b
 5406 000a 0E       		.uleb128 0xe
 5407 000b 55       		.uleb128 0x55
 5408 000c 17       		.uleb128 0x17
 5409 000d 11       		.uleb128 0x11
 5410 000e 01       		.uleb128 0x1
 5411 000f 10       		.uleb128 0x10
 5412 0010 17       		.uleb128 0x17
 5413 0011 00       		.byte	0
 5414 0012 00       		.byte	0
 5415 0013 02       		.uleb128 0x2
 5416 0014 24       		.uleb128 0x24
 5417 0015 00       		.byte	0
 5418 0016 0B       		.uleb128 0xb
 5419 0017 0B       		.uleb128 0xb
 5420 0018 3E       		.uleb128 0x3e
 5421 0019 0B       		.uleb128 0xb
 5422 001a 03       		.uleb128 0x3
 5423 001b 0E       		.uleb128 0xe
 5424 001c 00       		.byte	0
 5425 001d 00       		.byte	0
 5426 001e 03       		.uleb128 0x3
 5427 001f 24       		.uleb128 0x24
 5428 0020 00       		.byte	0
 5429 0021 0B       		.uleb128 0xb
 5430 0022 0B       		.uleb128 0xb
 5431 0023 3E       		.uleb128 0x3e
 5432 0024 0B       		.uleb128 0xb
 5433 0025 03       		.uleb128 0x3
 5434 0026 08       		.uleb128 0x8
 5435 0027 00       		.byte	0
 5436 0028 00       		.byte	0
 5437 0029 04       		.uleb128 0x4
 5438 002a 16       		.uleb128 0x16
 5439 002b 00       		.byte	0
 5440 002c 03       		.uleb128 0x3
 5441 002d 0E       		.uleb128 0xe
 5442 002e 3A       		.uleb128 0x3a
 5443 002f 0B       		.uleb128 0xb
 5444 0030 3B       		.uleb128 0x3b
 5445 0031 0B       		.uleb128 0xb
 5446 0032 49       		.uleb128 0x49
 5447 0033 13       		.uleb128 0x13
 5448 0034 00       		.byte	0
 5449 0035 00       		.byte	0
 5450 0036 05       		.uleb128 0x5
 5451 0037 16       		.uleb128 0x16
 5452 0038 00       		.byte	0
 5453 0039 03       		.uleb128 0x3
 5454 003a 0E       		.uleb128 0xe
 5455 003b 3A       		.uleb128 0x3a
 5456 003c 0B       		.uleb128 0xb
ARM GAS  C:\DOCUME~1\Owner\LOCALS~1\Temp\cc3gLjSb.s 			page 150


 5457 003d 3B       		.uleb128 0x3b
 5458 003e 05       		.uleb128 0x5
 5459 003f 49       		.uleb128 0x49
 5460 0040 13       		.uleb128 0x13
 5461 0041 00       		.byte	0
 5462 0042 00       		.byte	0
 5463 0043 06       		.uleb128 0x6
 5464 0044 35       		.uleb128 0x35
 5465 0045 00       		.byte	0
 5466 0046 49       		.uleb128 0x49
 5467 0047 13       		.uleb128 0x13
 5468 0048 00       		.byte	0
 5469 0049 00       		.byte	0
 5470 004a 07       		.uleb128 0x7
 5471 004b 0F       		.uleb128 0xf
 5472 004c 00       		.byte	0
 5473 004d 0B       		.uleb128 0xb
 5474 004e 0B       		.uleb128 0xb
 5475 004f 49       		.uleb128 0x49
 5476 0050 13       		.uleb128 0x13
 5477 0051 00       		.byte	0
 5478 0052 00       		.byte	0
 5479 0053 08       		.uleb128 0x8
 5480 0054 15       		.uleb128 0x15
 5481 0055 00       		.byte	0
 5482 0056 27       		.uleb128 0x27
 5483 0057 19       		.uleb128 0x19
 5484 0058 00       		.byte	0
 5485 0059 00       		.byte	0
 5486 005a 09       		.uleb128 0x9
 5487 005b 2E       		.uleb128 0x2e
 5488 005c 00       		.byte	0
 5489 005d 3F       		.uleb128 0x3f
 5490 005e 19       		.uleb128 0x19
 5491 005f 03       		.uleb128 0x3
 5492 0060 0E       		.uleb128 0xe
 5493 0061 3A       		.uleb128 0x3a
 5494 0062 0B       		.uleb128 0xb
 5495 0063 3B       		.uleb128 0x3b
 5496 0064 0B       		.uleb128 0xb
 5497 0065 27       		.uleb128 0x27
 5498 0066 19       		.uleb128 0x19
 5499 0067 11       		.uleb128 0x11
 5500 0068 01       		.uleb128 0x1
 5501 0069 12       		.uleb128 0x12
 5502 006a 06       		.uleb128 0x6
 5503 006b 40       		.uleb128 0x40
 5504 006c 18       		.uleb128 0x18
 5505 006d 9742     		.uleb128 0x2117
 5506 006f 19       		.uleb128 0x19
 5507 0070 00       		.byte	0
 5508 0071 00       		.byte	0
 5509 0072 0A       		.uleb128 0xa
 5510 0073 2E       		.uleb128 0x2e
 5511 0074 01       		.byte	0x1
 5512 0075 3F       		.uleb128 0x3f
 5513 0076 19       		.uleb128 0x19
ARM GAS  C:\DOCUME~1\Owner\LOCALS~1\Temp\cc3gLjSb.s 			page 151


 5514 0077 03       		.uleb128 0x3
 5515 0078 0E       		.uleb128 0xe
 5516 0079 3A       		.uleb128 0x3a
 5517 007a 0B       		.uleb128 0xb
 5518 007b 3B       		.uleb128 0x3b
 5519 007c 0B       		.uleb128 0xb
 5520 007d 27       		.uleb128 0x27
 5521 007e 19       		.uleb128 0x19
 5522 007f 11       		.uleb128 0x11
 5523 0080 01       		.uleb128 0x1
 5524 0081 12       		.uleb128 0x12
 5525 0082 06       		.uleb128 0x6
 5526 0083 40       		.uleb128 0x40
 5527 0084 18       		.uleb128 0x18
 5528 0085 9642     		.uleb128 0x2116
 5529 0087 19       		.uleb128 0x19
 5530 0088 01       		.uleb128 0x1
 5531 0089 13       		.uleb128 0x13
 5532 008a 00       		.byte	0
 5533 008b 00       		.byte	0
 5534 008c 0B       		.uleb128 0xb
 5535 008d 34       		.uleb128 0x34
 5536 008e 00       		.byte	0
 5537 008f 03       		.uleb128 0x3
 5538 0090 0E       		.uleb128 0xe
 5539 0091 3A       		.uleb128 0x3a
 5540 0092 0B       		.uleb128 0xb
 5541 0093 3B       		.uleb128 0x3b
 5542 0094 0B       		.uleb128 0xb
 5543 0095 49       		.uleb128 0x49
 5544 0096 13       		.uleb128 0x13
 5545 0097 02       		.uleb128 0x2
 5546 0098 18       		.uleb128 0x18
 5547 0099 00       		.byte	0
 5548 009a 00       		.byte	0
 5549 009b 0C       		.uleb128 0xc
 5550 009c 2E       		.uleb128 0x2e
 5551 009d 00       		.byte	0
 5552 009e 03       		.uleb128 0x3
 5553 009f 0E       		.uleb128 0xe
 5554 00a0 3A       		.uleb128 0x3a
 5555 00a1 0B       		.uleb128 0xb
 5556 00a2 3B       		.uleb128 0x3b
 5557 00a3 0B       		.uleb128 0xb
 5558 00a4 27       		.uleb128 0x27
 5559 00a5 19       		.uleb128 0x19
 5560 00a6 49       		.uleb128 0x49
 5561 00a7 13       		.uleb128 0x13
 5562 00a8 11       		.uleb128 0x11
 5563 00a9 01       		.uleb128 0x1
 5564 00aa 12       		.uleb128 0x12
 5565 00ab 06       		.uleb128 0x6
 5566 00ac 40       		.uleb128 0x40
 5567 00ad 18       		.uleb128 0x18
 5568 00ae 9742     		.uleb128 0x2117
 5569 00b0 19       		.uleb128 0x19
 5570 00b1 00       		.byte	0
ARM GAS  C:\DOCUME~1\Owner\LOCALS~1\Temp\cc3gLjSb.s 			page 152


 5571 00b2 00       		.byte	0
 5572 00b3 0D       		.uleb128 0xd
 5573 00b4 2E       		.uleb128 0x2e
 5574 00b5 01       		.byte	0x1
 5575 00b6 3F       		.uleb128 0x3f
 5576 00b7 19       		.uleb128 0x19
 5577 00b8 03       		.uleb128 0x3
 5578 00b9 0E       		.uleb128 0xe
 5579 00ba 3A       		.uleb128 0x3a
 5580 00bb 0B       		.uleb128 0xb
 5581 00bc 3B       		.uleb128 0x3b
 5582 00bd 05       		.uleb128 0x5
 5583 00be 27       		.uleb128 0x27
 5584 00bf 19       		.uleb128 0x19
 5585 00c0 11       		.uleb128 0x11
 5586 00c1 01       		.uleb128 0x1
 5587 00c2 12       		.uleb128 0x12
 5588 00c3 06       		.uleb128 0x6
 5589 00c4 40       		.uleb128 0x40
 5590 00c5 18       		.uleb128 0x18
 5591 00c6 9642     		.uleb128 0x2116
 5592 00c8 19       		.uleb128 0x19
 5593 00c9 01       		.uleb128 0x1
 5594 00ca 13       		.uleb128 0x13
 5595 00cb 00       		.byte	0
 5596 00cc 00       		.byte	0
 5597 00cd 0E       		.uleb128 0xe
 5598 00ce 05       		.uleb128 0x5
 5599 00cf 00       		.byte	0
 5600 00d0 03       		.uleb128 0x3
 5601 00d1 0E       		.uleb128 0xe
 5602 00d2 3A       		.uleb128 0x3a
 5603 00d3 0B       		.uleb128 0xb
 5604 00d4 3B       		.uleb128 0x3b
 5605 00d5 05       		.uleb128 0x5
 5606 00d6 49       		.uleb128 0x49
 5607 00d7 13       		.uleb128 0x13
 5608 00d8 02       		.uleb128 0x2
 5609 00d9 18       		.uleb128 0x18
 5610 00da 00       		.byte	0
 5611 00db 00       		.byte	0
 5612 00dc 0F       		.uleb128 0xf
 5613 00dd 34       		.uleb128 0x34
 5614 00de 00       		.byte	0
 5615 00df 03       		.uleb128 0x3
 5616 00e0 0E       		.uleb128 0xe
 5617 00e1 3A       		.uleb128 0x3a
 5618 00e2 0B       		.uleb128 0xb
 5619 00e3 3B       		.uleb128 0x3b
 5620 00e4 05       		.uleb128 0x5
 5621 00e5 49       		.uleb128 0x49
 5622 00e6 13       		.uleb128 0x13
 5623 00e7 02       		.uleb128 0x2
 5624 00e8 18       		.uleb128 0x18
 5625 00e9 00       		.byte	0
 5626 00ea 00       		.byte	0
 5627 00eb 10       		.uleb128 0x10
ARM GAS  C:\DOCUME~1\Owner\LOCALS~1\Temp\cc3gLjSb.s 			page 153


 5628 00ec 2E       		.uleb128 0x2e
 5629 00ed 00       		.byte	0
 5630 00ee 03       		.uleb128 0x3
 5631 00ef 0E       		.uleb128 0xe
 5632 00f0 3A       		.uleb128 0x3a
 5633 00f1 0B       		.uleb128 0xb
 5634 00f2 3B       		.uleb128 0x3b
 5635 00f3 05       		.uleb128 0x5
 5636 00f4 27       		.uleb128 0x27
 5637 00f5 19       		.uleb128 0x19
 5638 00f6 49       		.uleb128 0x49
 5639 00f7 13       		.uleb128 0x13
 5640 00f8 11       		.uleb128 0x11
 5641 00f9 01       		.uleb128 0x1
 5642 00fa 12       		.uleb128 0x12
 5643 00fb 06       		.uleb128 0x6
 5644 00fc 40       		.uleb128 0x40
 5645 00fd 18       		.uleb128 0x18
 5646 00fe 9742     		.uleb128 0x2117
 5647 0100 19       		.uleb128 0x19
 5648 0101 00       		.byte	0
 5649 0102 00       		.byte	0
 5650 0103 11       		.uleb128 0x11
 5651 0104 2E       		.uleb128 0x2e
 5652 0105 01       		.byte	0x1
 5653 0106 3F       		.uleb128 0x3f
 5654 0107 19       		.uleb128 0x19
 5655 0108 03       		.uleb128 0x3
 5656 0109 0E       		.uleb128 0xe
 5657 010a 3A       		.uleb128 0x3a
 5658 010b 0B       		.uleb128 0xb
 5659 010c 3B       		.uleb128 0x3b
 5660 010d 05       		.uleb128 0x5
 5661 010e 27       		.uleb128 0x27
 5662 010f 19       		.uleb128 0x19
 5663 0110 49       		.uleb128 0x49
 5664 0111 13       		.uleb128 0x13
 5665 0112 11       		.uleb128 0x11
 5666 0113 01       		.uleb128 0x1
 5667 0114 12       		.uleb128 0x12
 5668 0115 06       		.uleb128 0x6
 5669 0116 40       		.uleb128 0x40
 5670 0117 18       		.uleb128 0x18
 5671 0118 9642     		.uleb128 0x2116
 5672 011a 19       		.uleb128 0x19
 5673 011b 01       		.uleb128 0x1
 5674 011c 13       		.uleb128 0x13
 5675 011d 00       		.byte	0
 5676 011e 00       		.byte	0
 5677 011f 12       		.uleb128 0x12
 5678 0120 2E       		.uleb128 0x2e
 5679 0121 01       		.byte	0x1
 5680 0122 3F       		.uleb128 0x3f
 5681 0123 19       		.uleb128 0x19
 5682 0124 03       		.uleb128 0x3
 5683 0125 0E       		.uleb128 0xe
 5684 0126 3A       		.uleb128 0x3a
ARM GAS  C:\DOCUME~1\Owner\LOCALS~1\Temp\cc3gLjSb.s 			page 154


 5685 0127 0B       		.uleb128 0xb
 5686 0128 3B       		.uleb128 0x3b
 5687 0129 05       		.uleb128 0x5
 5688 012a 27       		.uleb128 0x27
 5689 012b 19       		.uleb128 0x19
 5690 012c 49       		.uleb128 0x49
 5691 012d 13       		.uleb128 0x13
 5692 012e 11       		.uleb128 0x11
 5693 012f 01       		.uleb128 0x1
 5694 0130 12       		.uleb128 0x12
 5695 0131 06       		.uleb128 0x6
 5696 0132 40       		.uleb128 0x40
 5697 0133 18       		.uleb128 0x18
 5698 0134 9742     		.uleb128 0x2117
 5699 0136 19       		.uleb128 0x19
 5700 0137 01       		.uleb128 0x1
 5701 0138 13       		.uleb128 0x13
 5702 0139 00       		.byte	0
 5703 013a 00       		.byte	0
 5704 013b 13       		.uleb128 0x13
 5705 013c 2E       		.uleb128 0x2e
 5706 013d 00       		.byte	0
 5707 013e 3F       		.uleb128 0x3f
 5708 013f 19       		.uleb128 0x19
 5709 0140 03       		.uleb128 0x3
 5710 0141 0E       		.uleb128 0xe
 5711 0142 3A       		.uleb128 0x3a
 5712 0143 0B       		.uleb128 0xb
 5713 0144 3B       		.uleb128 0x3b
 5714 0145 05       		.uleb128 0x5
 5715 0146 27       		.uleb128 0x27
 5716 0147 19       		.uleb128 0x19
 5717 0148 49       		.uleb128 0x49
 5718 0149 13       		.uleb128 0x13
 5719 014a 11       		.uleb128 0x11
 5720 014b 01       		.uleb128 0x1
 5721 014c 12       		.uleb128 0x12
 5722 014d 06       		.uleb128 0x6
 5723 014e 40       		.uleb128 0x40
 5724 014f 18       		.uleb128 0x18
 5725 0150 9742     		.uleb128 0x2117
 5726 0152 19       		.uleb128 0x19
 5727 0153 00       		.byte	0
 5728 0154 00       		.byte	0
 5729 0155 14       		.uleb128 0x14
 5730 0156 2E       		.uleb128 0x2e
 5731 0157 01       		.byte	0x1
 5732 0158 3F       		.uleb128 0x3f
 5733 0159 19       		.uleb128 0x19
 5734 015a 03       		.uleb128 0x3
 5735 015b 0E       		.uleb128 0xe
 5736 015c 3A       		.uleb128 0x3a
 5737 015d 0B       		.uleb128 0xb
 5738 015e 3B       		.uleb128 0x3b
 5739 015f 05       		.uleb128 0x5
 5740 0160 27       		.uleb128 0x27
 5741 0161 19       		.uleb128 0x19
ARM GAS  C:\DOCUME~1\Owner\LOCALS~1\Temp\cc3gLjSb.s 			page 155


 5742 0162 11       		.uleb128 0x11
 5743 0163 01       		.uleb128 0x1
 5744 0164 12       		.uleb128 0x12
 5745 0165 06       		.uleb128 0x6
 5746 0166 40       		.uleb128 0x40
 5747 0167 18       		.uleb128 0x18
 5748 0168 9742     		.uleb128 0x2117
 5749 016a 19       		.uleb128 0x19
 5750 016b 01       		.uleb128 0x1
 5751 016c 13       		.uleb128 0x13
 5752 016d 00       		.byte	0
 5753 016e 00       		.byte	0
 5754 016f 15       		.uleb128 0x15
 5755 0170 2E       		.uleb128 0x2e
 5756 0171 01       		.byte	0x1
 5757 0172 03       		.uleb128 0x3
 5758 0173 0E       		.uleb128 0xe
 5759 0174 3A       		.uleb128 0x3a
 5760 0175 0B       		.uleb128 0xb
 5761 0176 3B       		.uleb128 0x3b
 5762 0177 05       		.uleb128 0x5
 5763 0178 27       		.uleb128 0x27
 5764 0179 19       		.uleb128 0x19
 5765 017a 11       		.uleb128 0x11
 5766 017b 01       		.uleb128 0x1
 5767 017c 12       		.uleb128 0x12
 5768 017d 06       		.uleb128 0x6
 5769 017e 40       		.uleb128 0x40
 5770 017f 18       		.uleb128 0x18
 5771 0180 9642     		.uleb128 0x2116
 5772 0182 19       		.uleb128 0x19
 5773 0183 01       		.uleb128 0x1
 5774 0184 13       		.uleb128 0x13
 5775 0185 00       		.byte	0
 5776 0186 00       		.byte	0
 5777 0187 16       		.uleb128 0x16
 5778 0188 2E       		.uleb128 0x2e
 5779 0189 00       		.byte	0
 5780 018a 03       		.uleb128 0x3
 5781 018b 0E       		.uleb128 0xe
 5782 018c 3A       		.uleb128 0x3a
 5783 018d 0B       		.uleb128 0xb
 5784 018e 3B       		.uleb128 0x3b
 5785 018f 05       		.uleb128 0x5
 5786 0190 27       		.uleb128 0x27
 5787 0191 19       		.uleb128 0x19
 5788 0192 11       		.uleb128 0x11
 5789 0193 01       		.uleb128 0x1
 5790 0194 12       		.uleb128 0x12
 5791 0195 06       		.uleb128 0x6
 5792 0196 40       		.uleb128 0x40
 5793 0197 18       		.uleb128 0x18
 5794 0198 9642     		.uleb128 0x2116
 5795 019a 19       		.uleb128 0x19
 5796 019b 00       		.byte	0
 5797 019c 00       		.byte	0
 5798 019d 17       		.uleb128 0x17
ARM GAS  C:\DOCUME~1\Owner\LOCALS~1\Temp\cc3gLjSb.s 			page 156


 5799 019e 2E       		.uleb128 0x2e
 5800 019f 00       		.byte	0
 5801 01a0 3F       		.uleb128 0x3f
 5802 01a1 19       		.uleb128 0x19
 5803 01a2 03       		.uleb128 0x3
 5804 01a3 0E       		.uleb128 0xe
 5805 01a4 3A       		.uleb128 0x3a
 5806 01a5 0B       		.uleb128 0xb
 5807 01a6 3B       		.uleb128 0x3b
 5808 01a7 05       		.uleb128 0x5
 5809 01a8 27       		.uleb128 0x27
 5810 01a9 19       		.uleb128 0x19
 5811 01aa 11       		.uleb128 0x11
 5812 01ab 01       		.uleb128 0x1
 5813 01ac 12       		.uleb128 0x12
 5814 01ad 06       		.uleb128 0x6
 5815 01ae 40       		.uleb128 0x40
 5816 01af 18       		.uleb128 0x18
 5817 01b0 9742     		.uleb128 0x2117
 5818 01b2 19       		.uleb128 0x19
 5819 01b3 00       		.byte	0
 5820 01b4 00       		.byte	0
 5821 01b5 18       		.uleb128 0x18
 5822 01b6 2E       		.uleb128 0x2e
 5823 01b7 00       		.byte	0
 5824 01b8 3F       		.uleb128 0x3f
 5825 01b9 19       		.uleb128 0x19
 5826 01ba 03       		.uleb128 0x3
 5827 01bb 0E       		.uleb128 0xe
 5828 01bc 3A       		.uleb128 0x3a
 5829 01bd 0B       		.uleb128 0xb
 5830 01be 3B       		.uleb128 0x3b
 5831 01bf 05       		.uleb128 0x5
 5832 01c0 27       		.uleb128 0x27
 5833 01c1 19       		.uleb128 0x19
 5834 01c2 11       		.uleb128 0x11
 5835 01c3 01       		.uleb128 0x1
 5836 01c4 12       		.uleb128 0x12
 5837 01c5 06       		.uleb128 0x6
 5838 01c6 40       		.uleb128 0x40
 5839 01c7 18       		.uleb128 0x18
 5840 01c8 9642     		.uleb128 0x2116
 5841 01ca 19       		.uleb128 0x19
 5842 01cb 00       		.byte	0
 5843 01cc 00       		.byte	0
 5844 01cd 19       		.uleb128 0x19
 5845 01ce 34       		.uleb128 0x34
 5846 01cf 00       		.byte	0
 5847 01d0 03       		.uleb128 0x3
 5848 01d1 08       		.uleb128 0x8
 5849 01d2 3A       		.uleb128 0x3a
 5850 01d3 0B       		.uleb128 0xb
 5851 01d4 3B       		.uleb128 0x3b
 5852 01d5 05       		.uleb128 0x5
 5853 01d6 49       		.uleb128 0x49
 5854 01d7 13       		.uleb128 0x13
 5855 01d8 02       		.uleb128 0x2
ARM GAS  C:\DOCUME~1\Owner\LOCALS~1\Temp\cc3gLjSb.s 			page 157


 5856 01d9 18       		.uleb128 0x18
 5857 01da 00       		.byte	0
 5858 01db 00       		.byte	0
 5859 01dc 1A       		.uleb128 0x1a
 5860 01dd 01       		.uleb128 0x1
 5861 01de 01       		.byte	0x1
 5862 01df 49       		.uleb128 0x49
 5863 01e0 13       		.uleb128 0x13
 5864 01e1 01       		.uleb128 0x1
 5865 01e2 13       		.uleb128 0x13
 5866 01e3 00       		.byte	0
 5867 01e4 00       		.byte	0
 5868 01e5 1B       		.uleb128 0x1b
 5869 01e6 21       		.uleb128 0x21
 5870 01e7 00       		.byte	0
 5871 01e8 49       		.uleb128 0x49
 5872 01e9 13       		.uleb128 0x13
 5873 01ea 2F       		.uleb128 0x2f
 5874 01eb 0B       		.uleb128 0xb
 5875 01ec 00       		.byte	0
 5876 01ed 00       		.byte	0
 5877 01ee 1C       		.uleb128 0x1c
 5878 01ef 34       		.uleb128 0x34
 5879 01f0 00       		.byte	0
 5880 01f1 03       		.uleb128 0x3
 5881 01f2 0E       		.uleb128 0xe
 5882 01f3 3A       		.uleb128 0x3a
 5883 01f4 0B       		.uleb128 0xb
 5884 01f5 3B       		.uleb128 0x3b
 5885 01f6 0B       		.uleb128 0xb
 5886 01f7 49       		.uleb128 0x49
 5887 01f8 13       		.uleb128 0x13
 5888 01f9 3F       		.uleb128 0x3f
 5889 01fa 19       		.uleb128 0x19
 5890 01fb 02       		.uleb128 0x2
 5891 01fc 18       		.uleb128 0x18
 5892 01fd 00       		.byte	0
 5893 01fe 00       		.byte	0
 5894 01ff 1D       		.uleb128 0x1d
 5895 0200 26       		.uleb128 0x26
 5896 0201 00       		.byte	0
 5897 0202 49       		.uleb128 0x49
 5898 0203 13       		.uleb128 0x13
 5899 0204 00       		.byte	0
 5900 0205 00       		.byte	0
 5901 0206 00       		.byte	0
 5902              		.section	.debug_aranges,"",%progbits
 5903 0000 2C020000 		.4byte	0x22c
 5904 0004 0200     		.2byte	0x2
 5905 0006 00000000 		.4byte	.Ldebug_info0
 5906 000a 04       		.byte	0x4
 5907 000b 00       		.byte	0
 5908 000c 0000     		.2byte	0
 5909 000e 0000     		.2byte	0
 5910 0010 00000000 		.4byte	.LFB0
 5911 0014 1C000000 		.4byte	.LFE0-.LFB0
 5912 0018 00000000 		.4byte	.LFB1
ARM GAS  C:\DOCUME~1\Owner\LOCALS~1\Temp\cc3gLjSb.s 			page 158


 5913 001c 18000000 		.4byte	.LFE1-.LFB1
 5914 0020 00000000 		.4byte	.LFB2
 5915 0024 1C000000 		.4byte	.LFE2-.LFB2
 5916 0028 00000000 		.4byte	.LFB3
 5917 002c 4C000000 		.4byte	.LFE3-.LFB3
 5918 0030 00000000 		.4byte	.LFB4
 5919 0034 1C000000 		.4byte	.LFE4-.LFB4
 5920 0038 00000000 		.4byte	.LFB5
 5921 003c 44000000 		.4byte	.LFE5-.LFB5
 5922 0040 00000000 		.4byte	.LFB6
 5923 0044 44000000 		.4byte	.LFE6-.LFB6
 5924 0048 00000000 		.4byte	.LFB7
 5925 004c E0010000 		.4byte	.LFE7-.LFB7
 5926 0050 00000000 		.4byte	.LFB8
 5927 0054 34000000 		.4byte	.LFE8-.LFB8
 5928 0058 00000000 		.4byte	.LFB9
 5929 005c 20000000 		.4byte	.LFE9-.LFB9
 5930 0060 00000000 		.4byte	.LFB10
 5931 0064 4C000000 		.4byte	.LFE10-.LFB10
 5932 0068 00000000 		.4byte	.LFB11
 5933 006c 30000000 		.4byte	.LFE11-.LFB11
 5934 0070 00000000 		.4byte	.LFB12
 5935 0074 60000000 		.4byte	.LFE12-.LFB12
 5936 0078 00000000 		.4byte	.LFB13
 5937 007c 24000000 		.4byte	.LFE13-.LFB13
 5938 0080 00000000 		.4byte	.LFB14
 5939 0084 70000000 		.4byte	.LFE14-.LFB14
 5940 0088 00000000 		.4byte	.LFB15
 5941 008c 40000000 		.4byte	.LFE15-.LFB15
 5942 0090 00000000 		.4byte	.LFB16
 5943 0094 68000000 		.4byte	.LFE16-.LFB16
 5944 0098 00000000 		.4byte	.LFB17
 5945 009c 68000000 		.4byte	.LFE17-.LFB17
 5946 00a0 00000000 		.4byte	.LFB18
 5947 00a4 58000000 		.4byte	.LFE18-.LFB18
 5948 00a8 00000000 		.4byte	.LFB19
 5949 00ac 1C000000 		.4byte	.LFE19-.LFB19
 5950 00b0 00000000 		.4byte	.LFB20
 5951 00b4 6C000000 		.4byte	.LFE20-.LFB20
 5952 00b8 00000000 		.4byte	.LFB21
 5953 00bc 44000000 		.4byte	.LFE21-.LFB21
 5954 00c0 00000000 		.4byte	.LFB22
 5955 00c4 18000000 		.4byte	.LFE22-.LFB22
 5956 00c8 00000000 		.4byte	.LFB23
 5957 00cc 44000000 		.4byte	.LFE23-.LFB23
 5958 00d0 00000000 		.4byte	.LFB24
 5959 00d4 54000000 		.4byte	.LFE24-.LFB24
 5960 00d8 00000000 		.4byte	.LFB25
 5961 00dc 1C000000 		.4byte	.LFE25-.LFB25
 5962 00e0 00000000 		.4byte	.LFB26
 5963 00e4 6C000000 		.4byte	.LFE26-.LFB26
 5964 00e8 00000000 		.4byte	.LFB27
 5965 00ec 28000000 		.4byte	.LFE27-.LFB27
 5966 00f0 00000000 		.4byte	.LFB28
 5967 00f4 9C000000 		.4byte	.LFE28-.LFB28
 5968 00f8 00000000 		.4byte	.LFB29
 5969 00fc 3C000000 		.4byte	.LFE29-.LFB29
ARM GAS  C:\DOCUME~1\Owner\LOCALS~1\Temp\cc3gLjSb.s 			page 159


 5970 0100 00000000 		.4byte	.LFB30
 5971 0104 48000000 		.4byte	.LFE30-.LFB30
 5972 0108 00000000 		.4byte	.LFB31
 5973 010c 28000000 		.4byte	.LFE31-.LFB31
 5974 0110 00000000 		.4byte	.LFB32
 5975 0114 18000000 		.4byte	.LFE32-.LFB32
 5976 0118 00000000 		.4byte	.LFB33
 5977 011c 14000000 		.4byte	.LFE33-.LFB33
 5978 0120 00000000 		.4byte	.LFB34
 5979 0124 30000000 		.4byte	.LFE34-.LFB34
 5980 0128 00000000 		.4byte	.LFB35
 5981 012c 24000000 		.4byte	.LFE35-.LFB35
 5982 0130 00000000 		.4byte	.LFB36
 5983 0134 18000000 		.4byte	.LFE36-.LFB36
 5984 0138 00000000 		.4byte	.LFB37
 5985 013c 48000000 		.4byte	.LFE37-.LFB37
 5986 0140 00000000 		.4byte	.LFB38
 5987 0144 34000000 		.4byte	.LFE38-.LFB38
 5988 0148 00000000 		.4byte	.LFB39
 5989 014c 4C000000 		.4byte	.LFE39-.LFB39
 5990 0150 00000000 		.4byte	.LFB40
 5991 0154 36000000 		.4byte	.LFE40-.LFB40
 5992 0158 00000000 		.4byte	.LFB41
 5993 015c A8000000 		.4byte	.LFE41-.LFB41
 5994 0160 00000000 		.4byte	.LFB42
 5995 0164 58000000 		.4byte	.LFE42-.LFB42
 5996 0168 00000000 		.4byte	.LFB43
 5997 016c 2C000000 		.4byte	.LFE43-.LFB43
 5998 0170 00000000 		.4byte	.LFB44
 5999 0174 34000000 		.4byte	.LFE44-.LFB44
 6000 0178 00000000 		.4byte	.LFB45
 6001 017c 2C000000 		.4byte	.LFE45-.LFB45
 6002 0180 00000000 		.4byte	.LFB46
 6003 0184 2C000000 		.4byte	.LFE46-.LFB46
 6004 0188 00000000 		.4byte	.LFB47
 6005 018c 2C000000 		.4byte	.LFE47-.LFB47
 6006 0190 00000000 		.4byte	.LFB48
 6007 0194 14000000 		.4byte	.LFE48-.LFB48
 6008 0198 00000000 		.4byte	.LFB49
 6009 019c 20000000 		.4byte	.LFE49-.LFB49
 6010 01a0 00000000 		.4byte	.LFB50
 6011 01a4 48000000 		.4byte	.LFE50-.LFB50
 6012 01a8 00000000 		.4byte	.LFB51
 6013 01ac 28000000 		.4byte	.LFE51-.LFB51
 6014 01b0 00000000 		.4byte	.LFB52
 6015 01b4 80000000 		.4byte	.LFE52-.LFB52
 6016 01b8 00000000 		.4byte	.LFB53
 6017 01bc 24000000 		.4byte	.LFE53-.LFB53
 6018 01c0 00000000 		.4byte	.LFB54
 6019 01c4 60000000 		.4byte	.LFE54-.LFB54
 6020 01c8 00000000 		.4byte	.LFB55
 6021 01cc 1C000000 		.4byte	.LFE55-.LFB55
 6022 01d0 00000000 		.4byte	.LFB56
 6023 01d4 18000000 		.4byte	.LFE56-.LFB56
 6024 01d8 00000000 		.4byte	.LFB57
 6025 01dc 18000000 		.4byte	.LFE57-.LFB57
 6026 01e0 00000000 		.4byte	.LFB58
ARM GAS  C:\DOCUME~1\Owner\LOCALS~1\Temp\cc3gLjSb.s 			page 160


 6027 01e4 18000000 		.4byte	.LFE58-.LFB58
 6028 01e8 00000000 		.4byte	.LFB59
 6029 01ec 1C000000 		.4byte	.LFE59-.LFB59
 6030 01f0 00000000 		.4byte	.LFB60
 6031 01f4 18000000 		.4byte	.LFE60-.LFB60
 6032 01f8 00000000 		.4byte	.LFB61
 6033 01fc 1C000000 		.4byte	.LFE61-.LFB61
 6034 0200 00000000 		.4byte	.LFB62
 6035 0204 18000000 		.4byte	.LFE62-.LFB62
 6036 0208 00000000 		.4byte	.LFB63
 6037 020c 14000000 		.4byte	.LFE63-.LFB63
 6038 0210 00000000 		.4byte	.LFB64
 6039 0214 2C000000 		.4byte	.LFE64-.LFB64
 6040 0218 00000000 		.4byte	.LFB65
 6041 021c 1C000000 		.4byte	.LFE65-.LFB65
 6042 0220 00000000 		.4byte	.LFB66
 6043 0224 44000000 		.4byte	.LFE66-.LFB66
 6044 0228 00000000 		.4byte	0
 6045 022c 00000000 		.4byte	0
 6046              		.section	.debug_ranges,"",%progbits
 6047              	.Ldebug_ranges0:
 6048 0000 00000000 		.4byte	.LFB0
 6049 0004 1C000000 		.4byte	.LFE0
 6050 0008 00000000 		.4byte	.LFB1
 6051 000c 18000000 		.4byte	.LFE1
 6052 0010 00000000 		.4byte	.LFB2
 6053 0014 1C000000 		.4byte	.LFE2
 6054 0018 00000000 		.4byte	.LFB3
 6055 001c 4C000000 		.4byte	.LFE3
 6056 0020 00000000 		.4byte	.LFB4
 6057 0024 1C000000 		.4byte	.LFE4
 6058 0028 00000000 		.4byte	.LFB5
 6059 002c 44000000 		.4byte	.LFE5
 6060 0030 00000000 		.4byte	.LFB6
 6061 0034 44000000 		.4byte	.LFE6
 6062 0038 00000000 		.4byte	.LFB7
 6063 003c E0010000 		.4byte	.LFE7
 6064 0040 00000000 		.4byte	.LFB8
 6065 0044 34000000 		.4byte	.LFE8
 6066 0048 00000000 		.4byte	.LFB9
 6067 004c 20000000 		.4byte	.LFE9
 6068 0050 00000000 		.4byte	.LFB10
 6069 0054 4C000000 		.4byte	.LFE10
 6070 0058 00000000 		.4byte	.LFB11
 6071 005c 30000000 		.4byte	.LFE11
 6072 0060 00000000 		.4byte	.LFB12
 6073 0064 60000000 		.4byte	.LFE12
 6074 0068 00000000 		.4byte	.LFB13
 6075 006c 24000000 		.4byte	.LFE13
 6076 0070 00000000 		.4byte	.LFB14
 6077 0074 70000000 		.4byte	.LFE14
 6078 0078 00000000 		.4byte	.LFB15
 6079 007c 40000000 		.4byte	.LFE15
 6080 0080 00000000 		.4byte	.LFB16
 6081 0084 68000000 		.4byte	.LFE16
 6082 0088 00000000 		.4byte	.LFB17
 6083 008c 68000000 		.4byte	.LFE17
ARM GAS  C:\DOCUME~1\Owner\LOCALS~1\Temp\cc3gLjSb.s 			page 161


 6084 0090 00000000 		.4byte	.LFB18
 6085 0094 58000000 		.4byte	.LFE18
 6086 0098 00000000 		.4byte	.LFB19
 6087 009c 1C000000 		.4byte	.LFE19
 6088 00a0 00000000 		.4byte	.LFB20
 6089 00a4 6C000000 		.4byte	.LFE20
 6090 00a8 00000000 		.4byte	.LFB21
 6091 00ac 44000000 		.4byte	.LFE21
 6092 00b0 00000000 		.4byte	.LFB22
 6093 00b4 18000000 		.4byte	.LFE22
 6094 00b8 00000000 		.4byte	.LFB23
 6095 00bc 44000000 		.4byte	.LFE23
 6096 00c0 00000000 		.4byte	.LFB24
 6097 00c4 54000000 		.4byte	.LFE24
 6098 00c8 00000000 		.4byte	.LFB25
 6099 00cc 1C000000 		.4byte	.LFE25
 6100 00d0 00000000 		.4byte	.LFB26
 6101 00d4 6C000000 		.4byte	.LFE26
 6102 00d8 00000000 		.4byte	.LFB27
 6103 00dc 28000000 		.4byte	.LFE27
 6104 00e0 00000000 		.4byte	.LFB28
 6105 00e4 9C000000 		.4byte	.LFE28
 6106 00e8 00000000 		.4byte	.LFB29
 6107 00ec 3C000000 		.4byte	.LFE29
 6108 00f0 00000000 		.4byte	.LFB30
 6109 00f4 48000000 		.4byte	.LFE30
 6110 00f8 00000000 		.4byte	.LFB31
 6111 00fc 28000000 		.4byte	.LFE31
 6112 0100 00000000 		.4byte	.LFB32
 6113 0104 18000000 		.4byte	.LFE32
 6114 0108 00000000 		.4byte	.LFB33
 6115 010c 14000000 		.4byte	.LFE33
 6116 0110 00000000 		.4byte	.LFB34
 6117 0114 30000000 		.4byte	.LFE34
 6118 0118 00000000 		.4byte	.LFB35
 6119 011c 24000000 		.4byte	.LFE35
 6120 0120 00000000 		.4byte	.LFB36
 6121 0124 18000000 		.4byte	.LFE36
 6122 0128 00000000 		.4byte	.LFB37
 6123 012c 48000000 		.4byte	.LFE37
 6124 0130 00000000 		.4byte	.LFB38
 6125 0134 34000000 		.4byte	.LFE38
 6126 0138 00000000 		.4byte	.LFB39
 6127 013c 4C000000 		.4byte	.LFE39
 6128 0140 00000000 		.4byte	.LFB40
 6129 0144 36000000 		.4byte	.LFE40
 6130 0148 00000000 		.4byte	.LFB41
 6131 014c A8000000 		.4byte	.LFE41
 6132 0150 00000000 		.4byte	.LFB42
 6133 0154 58000000 		.4byte	.LFE42
 6134 0158 00000000 		.4byte	.LFB43
 6135 015c 2C000000 		.4byte	.LFE43
 6136 0160 00000000 		.4byte	.LFB44
 6137 0164 34000000 		.4byte	.LFE44
 6138 0168 00000000 		.4byte	.LFB45
 6139 016c 2C000000 		.4byte	.LFE45
 6140 0170 00000000 		.4byte	.LFB46
ARM GAS  C:\DOCUME~1\Owner\LOCALS~1\Temp\cc3gLjSb.s 			page 162


 6141 0174 2C000000 		.4byte	.LFE46
 6142 0178 00000000 		.4byte	.LFB47
 6143 017c 2C000000 		.4byte	.LFE47
 6144 0180 00000000 		.4byte	.LFB48
 6145 0184 14000000 		.4byte	.LFE48
 6146 0188 00000000 		.4byte	.LFB49
 6147 018c 20000000 		.4byte	.LFE49
 6148 0190 00000000 		.4byte	.LFB50
 6149 0194 48000000 		.4byte	.LFE50
 6150 0198 00000000 		.4byte	.LFB51
 6151 019c 28000000 		.4byte	.LFE51
 6152 01a0 00000000 		.4byte	.LFB52
 6153 01a4 80000000 		.4byte	.LFE52
 6154 01a8 00000000 		.4byte	.LFB53
 6155 01ac 24000000 		.4byte	.LFE53
 6156 01b0 00000000 		.4byte	.LFB54
 6157 01b4 60000000 		.4byte	.LFE54
 6158 01b8 00000000 		.4byte	.LFB55
 6159 01bc 1C000000 		.4byte	.LFE55
 6160 01c0 00000000 		.4byte	.LFB56
 6161 01c4 18000000 		.4byte	.LFE56
 6162 01c8 00000000 		.4byte	.LFB57
 6163 01cc 18000000 		.4byte	.LFE57
 6164 01d0 00000000 		.4byte	.LFB58
 6165 01d4 18000000 		.4byte	.LFE58
 6166 01d8 00000000 		.4byte	.LFB59
 6167 01dc 1C000000 		.4byte	.LFE59
 6168 01e0 00000000 		.4byte	.LFB60
 6169 01e4 18000000 		.4byte	.LFE60
 6170 01e8 00000000 		.4byte	.LFB61
 6171 01ec 1C000000 		.4byte	.LFE61
 6172 01f0 00000000 		.4byte	.LFB62
 6173 01f4 18000000 		.4byte	.LFE62
 6174 01f8 00000000 		.4byte	.LFB63
 6175 01fc 14000000 		.4byte	.LFE63
 6176 0200 00000000 		.4byte	.LFB64
 6177 0204 2C000000 		.4byte	.LFE64
 6178 0208 00000000 		.4byte	.LFB65
 6179 020c 1C000000 		.4byte	.LFE65
 6180 0210 00000000 		.4byte	.LFB66
 6181 0214 44000000 		.4byte	.LFE66
 6182 0218 00000000 		.4byte	0
 6183 021c 00000000 		.4byte	0
 6184              		.section	.debug_line,"",%progbits
 6185              	.Ldebug_line0:
 6186 0000 FF060000 		.section	.debug_str,"MS",%progbits,1
 6186      02004F00 
 6186      00000201 
 6186      FB0E0D00 
 6186      01010101 
 6187              	.LASF40:
 6188 0000 43795379 		.ascii	"CySysWdtWriteMode\000"
 6188      73576474 
 6188      57726974 
 6188      654D6F64 
 6188      6500
 6189              	.LASF31:
ARM GAS  C:\DOCUME~1\Owner\LOCALS~1\Temp\cc3gLjSb.s 			page 163


 6190 0012 62675472 		.ascii	"bgTrim4\000"
 6190      696D3400 
 6191              	.LASF10:
 6192 001a 75696E74 		.ascii	"uint16\000"
 6192      313600
 6193              	.LASF78:
 6194 0021 696E7453 		.ascii	"intState\000"
 6194      74617465 
 6194      00
 6195              	.LASF92:
 6196 002a 76616C75 		.ascii	"value\000"
 6196      6500
 6197              	.LASF24:
 6198 0030 43795379 		.ascii	"CySysClkWriteHfclkDirect\000"
 6198      73436C6B 
 6198      57726974 
 6198      65486663 
 6198      6C6B4469 
 6199              	.LASF38:
 6200 0049 43795379 		.ascii	"CySysWdtUnlock\000"
 6200      73576474 
 6200      556E6C6F 
 6200      636B00
 6201              	.LASF84:
 6202 0058 6F6C6449 		.ascii	"oldIsr\000"
 6202      737200
 6203              	.LASF39:
 6204 005f 636F756E 		.ascii	"counterNum\000"
 6204      7465724E 
 6204      756D00
 6205              	.LASF121:
 6206 006a 43795379 		.ascii	"CySysClkLfclkPosedgeCatch\000"
 6206      73436C6B 
 6206      4C66636C 
 6206      6B506F73 
 6206      65646765 
 6207              	.LASF34:
 6208 0084 63757272 		.ascii	"currentImoTrim2Value\000"
 6208      656E7449 
 6208      6D6F5472 
 6208      696D3256 
 6208      616C7565 
 6209              	.LASF129:
 6210 0099 6C66636C 		.ascii	"lfclkPosedgeWdtCounter0Enabled\000"
 6210      6B506F73 
 6210      65646765 
 6210      57647443 
 6210      6F756E74 
 6211              	.LASF7:
 6212 00b8 6C6F6E67 		.ascii	"long long unsigned int\000"
 6212      206C6F6E 
 6212      6720756E 
 6212      7369676E 
 6212      65642069 
 6213              	.LASF124:
 6214 00cf 43795379 		.ascii	"CySysTickInitVar\000"
 6214      73546963 
ARM GAS  C:\DOCUME~1\Owner\LOCALS~1\Temp\cc3gLjSb.s 			page 164


 6214      6B496E69 
 6214      74566172 
 6214      00
 6215              	.LASF79:
 6216 00e0 4379456E 		.ascii	"CyEnableInts\000"
 6216      61626C65 
 6216      496E7473 
 6216      00
 6217              	.LASF100:
 6218 00ed 4379536F 		.ascii	"CySoftwareReset\000"
 6218      66747761 
 6218      72655265 
 6218      73657400 
 6219              	.LASF110:
 6220 00fd 43795379 		.ascii	"CySysTickEnableInterrupt\000"
 6220      73546963 
 6220      6B456E61 
 6220      626C6549 
 6220      6E746572 
 6221              	.LASF95:
 6222 0116 4379496E 		.ascii	"CyIntGetState\000"
 6222      74476574 
 6222      53746174 
 6222      6500
 6223              	.LASF6:
 6224 0124 6C6F6E67 		.ascii	"long long int\000"
 6224      206C6F6E 
 6224      6720696E 
 6224      7400
 6225              	.LASF0:
 6226 0132 7369676E 		.ascii	"signed char\000"
 6226      65642063 
 6226      68617200 
 6227              	.LASF30:
 6228 013e 66726571 		.ascii	"freq\000"
 6228      00
 6229              	.LASF62:
 6230 0143 43795379 		.ascii	"CySysWdtReadCount\000"
 6230      73576474 
 6230      52656164 
 6230      436F756E 
 6230      7400
 6231              	.LASF105:
 6232 0155 43794465 		.ascii	"CyDelayFreq\000"
 6232      6C617946 
 6232      72657100 
 6233              	.LASF25:
 6234 0161 696E7465 		.ascii	"interruptState\000"
 6234      72727570 
 6234      74537461 
 6234      746500
 6235              	.LASF103:
 6236 0170 43794465 		.ascii	"CyDelayUs\000"
 6236      6C617955 
 6236      7300
 6237              	.LASF113:
 6238 017a 43795379 		.ascii	"CySysTickGetReload\000"
ARM GAS  C:\DOCUME~1\Owner\LOCALS~1\Temp\cc3gLjSb.s 			page 165


 6238      73546963 
 6238      6B476574 
 6238      52656C6F 
 6238      616400
 6239              	.LASF54:
 6240 018d 43795379 		.ascii	"CySysWdtWriteMatch\000"
 6240      73576474 
 6240      57726974 
 6240      654D6174 
 6240      636800
 6241              	.LASF58:
 6242 01a0 62697473 		.ascii	"bits\000"
 6242      00
 6243              	.LASF4:
 6244 01a5 6C6F6E67 		.ascii	"long int\000"
 6244      20696E74 
 6244      00
 6245              	.LASF96:
 6246 01ae 4379496E 		.ascii	"CyIntDisable\000"
 6246      74446973 
 6246      61626C65 
 6246      00
 6247              	.LASF120:
 6248 01bb 43795379 		.ascii	"CySysTickGetCallback\000"
 6248      73546963 
 6248      6B476574 
 6248      43616C6C 
 6248      6261636B 
 6249              	.LASF9:
 6250 01d0 75696E74 		.ascii	"uint8\000"
 6250      3800
 6251              	.LASF126:
 6252 01d6 63796465 		.ascii	"cydelayFreqKhz\000"
 6252      6C617946 
 6252      7265714B 
 6252      687A00
 6253              	.LASF46:
 6254 01e5 656E6162 		.ascii	"enable\000"
 6254      6C6500
 6255              	.LASF13:
 6256 01ec 646F7562 		.ascii	"double\000"
 6256      6C6500
 6257              	.LASF23:
 6258 01f3 43795379 		.ascii	"CySysClkIloStop\000"
 6258      73436C6B 
 6258      496C6F53 
 6258      746F7000 
 6259              	.LASF51:
 6260 0203 43795379 		.ascii	"CySysWdtWriteCascade\000"
 6260      73576474 
 6260      57726974 
 6260      65436173 
 6260      63616465 
 6261              	.LASF91:
 6262 0218 73686966 		.ascii	"shift\000"
 6262      7400
 6263              	.LASF67:
ARM GAS  C:\DOCUME~1\Owner\LOCALS~1\Temp\cc3gLjSb.s 			page 166


 6264 021e 636F756E 		.ascii	"countersMask\000"
 6264      74657273 
 6264      4D61736B 
 6264      00
 6265              	.LASF73:
 6266 022b 43795379 		.ascii	"CySysLvdClearInterrupt\000"
 6266      734C7664 
 6266      436C6561 
 6266      72496E74 
 6266      65727275 
 6267              	.LASF11:
 6268 0242 75696E74 		.ascii	"uint32\000"
 6268      333200
 6269              	.LASF82:
 6270 0249 6E756D62 		.ascii	"number\000"
 6270      657200
 6271              	.LASF80:
 6272 0250 6D61736B 		.ascii	"mask\000"
 6272      00
 6273              	.LASF56:
 6274 0255 72656756 		.ascii	"regValue\000"
 6274      616C7565 
 6274      00
 6275              	.LASF44:
 6276 025e 43795379 		.ascii	"CySysWdtReadMode\000"
 6276      73576474 
 6276      52656164 
 6276      4D6F6465 
 6276      00
 6277              	.LASF69:
 6278 026f 43795379 		.ascii	"CySysLvdEnable\000"
 6278      734C7664 
 6278      456E6162 
 6278      6C6500
 6279              	.LASF93:
 6280 027e 4379496E 		.ascii	"CyIntGetPriority\000"
 6280      74476574 
 6280      5072696F 
 6280      72697479 
 6280      00
 6281              	.LASF53:
 6282 028f 636F756E 		.ascii	"countersEnableStatus\000"
 6282      74657273 
 6282      456E6162 
 6282      6C655374 
 6282      61747573 
 6283              	.LASF107:
 6284 02a4 43795379 		.ascii	"CySysTickInit\000"
 6284      73546963 
 6284      6B496E69 
 6284      7400
 6285              	.LASF48:
 6286 02b2 43795379 		.ascii	"CySysWdtEnable\000"
 6286      73576474 
 6286      456E6162 
 6286      6C6500
 6287              	.LASF49:
ARM GAS  C:\DOCUME~1\Owner\LOCALS~1\Temp\cc3gLjSb.s 			page 167


 6288 02c1 636F756E 		.ascii	"counterMask\000"
 6288      7465724D 
 6288      61736B00 
 6289              	.LASF115:
 6290 02cd 43795379 		.ascii	"CySysTickGetCountFlag\000"
 6290      73546963 
 6290      6B476574 
 6290      436F756E 
 6290      74466C61 
 6291              	.LASF8:
 6292 02e3 756E7369 		.ascii	"unsigned int\000"
 6292      676E6564 
 6292      20696E74 
 6292      00
 6293              	.LASF68:
 6294 02f0 66697273 		.ascii	"firstCount\000"
 6294      74436F75 
 6294      6E7400
 6295              	.LASF116:
 6296 02fb 43795379 		.ascii	"CySysTickClear\000"
 6296      73546963 
 6296      6B436C65 
 6296      617200
 6297              	.LASF5:
 6298 030a 6C6F6E67 		.ascii	"long unsigned int\000"
 6298      20756E73 
 6298      69676E65 
 6298      6420696E 
 6298      7400
 6299              	.LASF72:
 6300 031c 43795379 		.ascii	"CySysLvdGetInterruptSource\000"
 6300      734C7664 
 6300      47657449 
 6300      6E746572 
 6300      72757074 
 6301              	.LASF21:
 6302 0337 43795379 		.ascii	"CySysClkImoStop\000"
 6302      73436C6B 
 6302      496D6F53 
 6302      746F7000 
 6303              	.LASF136:
 6304 0347 43795379 		.ascii	"CySysClkLfclkPosedgeRestore\000"
 6304      73436C6B 
 6304      4C66636C 
 6304      6B506F73 
 6304      65646765 
 6305              	.LASF97:
 6306 0363 4379496E 		.ascii	"CyIntSetPending\000"
 6306      74536574 
 6306      50656E64 
 6306      696E6700 
 6307              	.LASF77:
 6308 0373 43794469 		.ascii	"CyDisableInts\000"
 6308      7361626C 
 6308      65496E74 
 6308      7300
 6309              	.LASF74:
ARM GAS  C:\DOCUME~1\Owner\LOCALS~1\Temp\cc3gLjSb.s 			page 168


 6310 0381 43795379 		.ascii	"CySysGetResetReason\000"
 6310      73476574 
 6310      52657365 
 6310      74526561 
 6310      736F6E00 
 6311              	.LASF3:
 6312 0395 73686F72 		.ascii	"short unsigned int\000"
 6312      7420756E 
 6312      7369676E 
 6312      65642069 
 6312      6E7400
 6313              	.LASF87:
 6314 03a8 4379496E 		.ascii	"CyIntSetVector\000"
 6314      74536574 
 6314      56656374 
 6314      6F7200
 6315              	.LASF134:
 6316 03b7 2E5C4765 		.ascii	".\\Generated_Source\\PSoC4\\CyLib.c\000"
 6316      6E657261 
 6316      7465645F 
 6316      536F7572 
 6316      63655C50 
 6317              	.LASF22:
 6318 03d8 43795379 		.ascii	"CySysClkIloStart\000"
 6318      73436C6B 
 6318      496C6F53 
 6318      74617274 
 6318      00
 6319              	.LASF29:
 6320 03e9 43795379 		.ascii	"CySysClkWriteImoFreq\000"
 6320      73436C6B 
 6320      57726974 
 6320      65496D6F 
 6320      46726571 
 6321              	.LASF81:
 6322 03fe 4379496E 		.ascii	"CyIntSetSysVector\000"
 6322      74536574 
 6322      53797356 
 6322      6563746F 
 6322      7200
 6323              	.LASF16:
 6324 0410 72656733 		.ascii	"reg32\000"
 6324      3200
 6325              	.LASF45:
 6326 0416 43795379 		.ascii	"CySysWdtWriteClearOnMatch\000"
 6326      73576474 
 6326      57726974 
 6326      65436C65 
 6326      61724F6E 
 6327              	.LASF106:
 6328 0430 43795379 		.ascii	"CySysTickStart\000"
 6328      73546963 
 6328      6B537461 
 6328      727400
 6329              	.LASF47:
 6330 043f 43795379 		.ascii	"CySysWdtReadClearOnMatch\000"
 6330      73576474 
ARM GAS  C:\DOCUME~1\Owner\LOCALS~1\Temp\cc3gLjSb.s 			page 169


 6330      52656164 
 6330      436C6561 
 6330      724F6E4D 
 6331              	.LASF18:
 6332 0458 73697A65 		.ascii	"sizetype\000"
 6332      74797065 
 6332      00
 6333              	.LASF135:
 6334 0461 433A5C64 		.ascii	"C:\\dev\\Cypress\\Testbench\\OLED.cydsn\000"
 6334      65765C43 
 6334      79707265 
 6334      73735C54 
 6334      65737462 
 6335              	.LASF98:
 6336 0485 4379496E 		.ascii	"CyIntClearPending\000"
 6336      74436C65 
 6336      61725065 
 6336      6E64696E 
 6336      6700
 6337              	.LASF83:
 6338 0497 61646472 		.ascii	"address\000"
 6338      65737300 
 6339              	.LASF32:
 6340 049f 62675472 		.ascii	"bgTrim5\000"
 6340      696D3500 
 6341              	.LASF119:
 6342 04a7 72657456 		.ascii	"retVal\000"
 6342      616C00
 6343              	.LASF55:
 6344 04ae 6D617463 		.ascii	"match\000"
 6344      6800
 6345              	.LASF132:
 6346 04b4 6379496D 		.ascii	"cyImoFreqMhz2Reg\000"
 6346      6F467265 
 6346      714D687A 
 6346      32526567 
 6346      00
 6347              	.LASF114:
 6348 04c5 43795379 		.ascii	"CySysTickGetValue\000"
 6348      73546963 
 6348      6B476574 
 6348      56616C75 
 6348      6500
 6349              	.LASF125:
 6350 04d7 63796465 		.ascii	"cydelayFreqHz\000"
 6350      6C617946 
 6350      72657148 
 6350      7A00
 6351              	.LASF66:
 6352 04e5 43795379 		.ascii	"CySysWdtResetCounters\000"
 6352      73576474 
 6352      52657365 
 6352      74436F75 
 6352      6E746572 
 6353              	.LASF89:
 6354 04fb 4379496E 		.ascii	"CyIntSetPriority\000"
 6354      74536574 
ARM GAS  C:\DOCUME~1\Owner\LOCALS~1\Temp\cc3gLjSb.s 			page 170


 6354      5072696F 
 6354      72697479 
 6354      00
 6355              	.LASF64:
 6356 050c 43795379 		.ascii	"CySysWdtClearInterrupt\000"
 6356      73576474 
 6356      436C6561 
 6356      72496E74 
 6356      65727275 
 6357              	.LASF12:
 6358 0523 666C6F61 		.ascii	"float\000"
 6358      7400
 6359              	.LASF133:
 6360 0529 474E5520 		.ascii	"GNU C 4.8.4 20140526 (release) [ARM/embedded-4_8-br"
 6360      4320342E 
 6360      382E3420 
 6360      32303134 
 6360      30353236 
 6361 055c 616E6368 		.ascii	"anch revision 211358] -mcpu=cortex-m0 -mthumb -g -O"
 6361      20726576 
 6361      6973696F 
 6361      6E203231 
 6361      31333538 
 6362 058f 30202D66 		.ascii	"0 -ffunction-sections\000"
 6362      66756E63 
 6362      74696F6E 
 6362      2D736563 
 6362      74696F6E 
 6363              	.LASF19:
 6364 05a5 63795379 		.ascii	"cySysTickCallback\000"
 6364      73546963 
 6364      6B43616C 
 6364      6C626163 
 6364      6B00
 6365              	.LASF88:
 6366 05b7 4379496E 		.ascii	"CyIntGetVector\000"
 6366      74476574 
 6366      56656374 
 6366      6F7200
 6367              	.LASF102:
 6368 05c6 6D696C6C 		.ascii	"milliseconds\000"
 6368      69736563 
 6368      6F6E6473 
 6368      00
 6369              	.LASF60:
 6370 05d3 43795379 		.ascii	"CySysWdtReadToggleBit\000"
 6370      73576474 
 6370      52656164 
 6370      546F6767 
 6370      6C654269 
 6371              	.LASF37:
 6372 05e9 43795379 		.ascii	"CySysWdtLocked\000"
 6372      73576474 
 6372      4C6F636B 
 6372      656400
 6373              	.LASF15:
 6374 05f8 72656738 		.ascii	"reg8\000"
ARM GAS  C:\DOCUME~1\Owner\LOCALS~1\Temp\cc3gLjSb.s 			page 171


 6374      00
 6375              	.LASF70:
 6376 05fd 74687265 		.ascii	"threshold\000"
 6376      73686F6C 
 6376      6400
 6377              	.LASF99:
 6378 0607 43794861 		.ascii	"CyHalt\000"
 6378      6C7400
 6379              	.LASF1:
 6380 060e 756E7369 		.ascii	"unsigned char\000"
 6380      676E6564 
 6380      20636861 
 6380      7200
 6381              	.LASF130:
 6382 061c 6C66636C 		.ascii	"lfclkPosedgeEnabledWdtCounter\000"
 6382      6B506F73 
 6382      65646765 
 6382      456E6162 
 6382      6C656457 
 6383              	.LASF2:
 6384 063a 73686F72 		.ascii	"short int\000"
 6384      7420696E 
 6384      7400
 6385              	.LASF59:
 6386 0644 43795379 		.ascii	"CySysWdtReadCascade\000"
 6386      73576474 
 6386      52656164 
 6386      43617363 
 6386      61646500 
 6387              	.LASF50:
 6388 0658 43795379 		.ascii	"CySysWdtDisable\000"
 6388      73576474 
 6388      44697361 
 6388      626C6500 
 6389              	.LASF94:
 6390 0668 4379496E 		.ascii	"CyIntEnable\000"
 6390      74456E61 
 6390      626C6500 
 6391              	.LASF86:
 6392 0674 4379496E 		.ascii	"CyIntGetSysVector\000"
 6392      74476574 
 6392      53797356 
 6392      6563746F 
 6392      7200
 6393              	.LASF61:
 6394 0686 43795379 		.ascii	"CySysWdtReadMatch\000"
 6394      73576474 
 6394      52656164 
 6394      4D617463 
 6394      6800
 6395              	.LASF27:
 6396 0698 636C6B53 		.ascii	"clkSelect\000"
 6396      656C6563 
 6396      7400
 6397              	.LASF36:
 6398 06a2 43795379 		.ascii	"CySysClkIloEnabled\000"
 6398      73436C6B 
ARM GAS  C:\DOCUME~1\Owner\LOCALS~1\Temp\cc3gLjSb.s 			page 172


 6398      496C6F45 
 6398      6E61626C 
 6398      656400
 6399              	.LASF63:
 6400 06b5 43795379 		.ascii	"CySysWdtGetInterruptSource\000"
 6400      73576474 
 6400      47657449 
 6400      6E746572 
 6400      72757074 
 6401              	.LASF75:
 6402 06d0 72656173 		.ascii	"reason\000"
 6402      6F6E00
 6403              	.LASF85:
 6404 06d7 72616D56 		.ascii	"ramVectorTable\000"
 6404      6563746F 
 6404      72546162 
 6404      6C6500
 6405              	.LASF14:
 6406 06e6 63686172 		.ascii	"char\000"
 6406      00
 6407              	.LASF90:
 6408 06eb 7072696F 		.ascii	"priority\000"
 6408      72697479 
 6408      00
 6409              	.LASF41:
 6410 06f4 6D6F6465 		.ascii	"mode\000"
 6410      00
 6411              	.LASF17:
 6412 06f9 63796973 		.ascii	"cyisraddress\000"
 6412      72616464 
 6412      72657373 
 6412      00
 6413              	.LASF108:
 6414 0706 43795379 		.ascii	"CySysTickEnable\000"
 6414      73546963 
 6414      6B456E61 
 6414      626C6500 
 6415              	.LASF35:
 6416 0716 43795379 		.ascii	"CySysWdtLock\000"
 6416      73576474 
 6416      4C6F636B 
 6416      00
 6417              	.LASF26:
 6418 0723 43795379 		.ascii	"CySysClkWriteSysclkDiv\000"
 6418      73436C6B 
 6418      57726974 
 6418      65537973 
 6418      636C6B44 
 6419              	.LASF117:
 6420 073a 43795379 		.ascii	"CySysTickSetCallback\000"
 6420      73546963 
 6420      6B536574 
 6420      43616C6C 
 6420      6261636B 
 6421              	.LASF123:
 6422 074f 43795379 		.ascii	"CySysTickCallbacks\000"
 6422      73546963 
ARM GAS  C:\DOCUME~1\Owner\LOCALS~1\Temp\cc3gLjSb.s 			page 173


 6422      6B43616C 
 6422      6C626163 
 6422      6B7300
 6423              	.LASF101:
 6424 0762 43794465 		.ascii	"CyDelay\000"
 6424      6C617900 
 6425              	.LASF111:
 6426 076a 43795379 		.ascii	"CySysTickDisableInterrupt\000"
 6426      73546963 
 6426      6B446973 
 6426      61626C65 
 6426      496E7465 
 6427              	.LASF128:
 6428 0784 63796465 		.ascii	"cydelay32kMs\000"
 6428      6C617933 
 6428      326B4D73 
 6428      00
 6429              	.LASF71:
 6430 0791 43795379 		.ascii	"CySysLvdDisable\000"
 6430      734C7664 
 6430      44697361 
 6430      626C6500 
 6431              	.LASF42:
 6432 07a1 636F6E66 		.ascii	"configRegValue\000"
 6432      69675265 
 6432      6756616C 
 6432      756500
 6433              	.LASF127:
 6434 07b0 63796465 		.ascii	"cydelayFreqMhz\000"
 6434      6C617946 
 6434      7265714D 
 6434      687A00
 6435              	.LASF65:
 6436 07bf 7764744C 		.ascii	"wdtLockState\000"
 6436      6F636B53 
 6436      74617465 
 6436      00
 6437              	.LASF76:
 6438 07cc 73746174 		.ascii	"status\000"
 6438      757300
 6439              	.LASF131:
 6440 07d3 6C66636C 		.ascii	"lfclkPosedgeWdtCounter0Mode\000"
 6440      6B506F73 
 6440      65646765 
 6440      57647443 
 6440      6F756E74 
 6441              	.LASF109:
 6442 07ef 43795379 		.ascii	"CySysTickStop\000"
 6442      73546963 
 6442      6B53746F 
 6442      7000
 6443              	.LASF52:
 6444 07fd 63617363 		.ascii	"cascadeMask\000"
 6444      6164654D 
 6444      61736B00 
 6445              	.LASF28:
 6446 0809 64697669 		.ascii	"divider\000"
ARM GAS  C:\DOCUME~1\Owner\LOCALS~1\Temp\cc3gLjSb.s 			page 174


 6446      64657200 
 6447              	.LASF118:
 6448 0811 66756E63 		.ascii	"function\000"
 6448      74696F6E 
 6448      00
 6449              	.LASF20:
 6450 081a 43795379 		.ascii	"CySysClkImoStart\000"
 6450      73436C6B 
 6450      496D6F53 
 6450      74617274 
 6450      00
 6451              	.LASF43:
 6452 082b 43795379 		.ascii	"CySysWdtReadEnabledStatus\000"
 6452      73576474 
 6452      52656164 
 6452      456E6162 
 6452      6C656453 
 6453              	.LASF33:
 6454 0845 6E657749 		.ascii	"newImoTrim2Value\000"
 6454      6D6F5472 
 6454      696D3256 
 6454      616C7565 
 6454      00
 6455              	.LASF104:
 6456 0856 6D696372 		.ascii	"microseconds\000"
 6456      6F736563 
 6456      6F6E6473 
 6456      00
 6457              	.LASF112:
 6458 0863 43795379 		.ascii	"CySysTickSetReload\000"
 6458      73546963 
 6458      6B536574 
 6458      52656C6F 
 6458      616400
 6459              	.LASF122:
 6460 0876 43795379 		.ascii	"CySysTickServiceCallbacks\000"
 6460      73546963 
 6460      6B536572 
 6460      76696365 
 6460      43616C6C 
 6461              	.LASF57:
 6462 0890 43795379 		.ascii	"CySysWdtWriteToggleBit\000"
 6462      73576474 
 6462      57726974 
 6462      65546F67 
 6462      676C6542 
 6463              		.ident	"GCC: (GNU Tools for ARM Embedded Processors) 4.8.4 20140526 (release) [ARM/embedded-4_8-br
