ARM GAS  C:\DOCUME~1\Owner\LOCALS~1\Temp\ccNXVetc.s 			page 1


   1              		.cpu cortex-m0
   2              		.fpu softvfp
   3              		.eabi_attribute 20, 1
   4              		.eabi_attribute 21, 1
   5              		.eabi_attribute 23, 3
   6              		.eabi_attribute 24, 1
   7              		.eabi_attribute 25, 1
   8              		.eabi_attribute 26, 1
   9              		.eabi_attribute 30, 6
  10              		.eabi_attribute 34, 0
  11              		.eabi_attribute 18, 4
  12              		.code	16
  13              		.file	"cyPm.c"
  14              		.text
  15              	.Ltext0:
  16              		.cfi_sections	.debug_frame
  17              		.section	.text.CySysPmSleep,"ax",%progbits
  18              		.align	2
  19              		.global	CySysPmSleep
  20              		.code	16
  21              		.thumb_func
  22              		.type	CySysPmSleep, %function
  23              	CySysPmSleep:
  24              	.LFB0:
  25              		.file 1 ".\\Generated_Source\\PSoC4\\cyPm.c"
   1:.\Generated_Source\PSoC4/cyPm.c **** /*******************************************************************************
   2:.\Generated_Source\PSoC4/cyPm.c **** * File Name: cyPm.c
   3:.\Generated_Source\PSoC4/cyPm.c **** * Version 4.20
   4:.\Generated_Source\PSoC4/cyPm.c **** *
   5:.\Generated_Source\PSoC4/cyPm.c **** *  Description:
   6:.\Generated_Source\PSoC4/cyPm.c **** *   Provides an API for the power management.
   7:.\Generated_Source\PSoC4/cyPm.c **** *
   8:.\Generated_Source\PSoC4/cyPm.c **** *  Note:
   9:.\Generated_Source\PSoC4/cyPm.c **** *   Documentation of the API's in this file is located in the
  10:.\Generated_Source\PSoC4/cyPm.c **** *   System Reference Guide provided with PSoC Creator.
  11:.\Generated_Source\PSoC4/cyPm.c **** *
  12:.\Generated_Source\PSoC4/cyPm.c **** ********************************************************************************
  13:.\Generated_Source\PSoC4/cyPm.c **** * Copyright 2011-2014, Cypress Semiconductor Corporation.  All rights reserved.
  14:.\Generated_Source\PSoC4/cyPm.c **** * You may use this file only in accordance with the license, terms, conditions,
  15:.\Generated_Source\PSoC4/cyPm.c **** * disclaimers, and limitations in the end user license agreement accompanying
  16:.\Generated_Source\PSoC4/cyPm.c **** * the software package with which this file was provided.
  17:.\Generated_Source\PSoC4/cyPm.c **** *******************************************************************************/
  18:.\Generated_Source\PSoC4/cyPm.c **** 
  19:.\Generated_Source\PSoC4/cyPm.c **** #include "cyPm.h"
  20:.\Generated_Source\PSoC4/cyPm.c **** #include "CyLib.h"
  21:.\Generated_Source\PSoC4/cyPm.c **** 
  22:.\Generated_Source\PSoC4/cyPm.c **** 
  23:.\Generated_Source\PSoC4/cyPm.c **** /*******************************************************************************
  24:.\Generated_Source\PSoC4/cyPm.c **** * Function Name: CySysPmSleep
  25:.\Generated_Source\PSoC4/cyPm.c **** ********************************************************************************
  26:.\Generated_Source\PSoC4/cyPm.c **** *
  27:.\Generated_Source\PSoC4/cyPm.c **** * Summary:
  28:.\Generated_Source\PSoC4/cyPm.c **** *  Puts the part into the Sleep state. This is a CPU-centric power mode.
  29:.\Generated_Source\PSoC4/cyPm.c **** *  It means that the CPU has indicated that it is in the sleep mode and
  30:.\Generated_Source\PSoC4/cyPm.c **** *  its main clock can be removed. It is identical to Active from a peripheral
  31:.\Generated_Source\PSoC4/cyPm.c **** *  point of view. Any enabled interrupts can cause wakeup from the  Sleep mode.
  32:.\Generated_Source\PSoC4/cyPm.c **** *
ARM GAS  C:\DOCUME~1\Owner\LOCALS~1\Temp\ccNXVetc.s 			page 2


  33:.\Generated_Source\PSoC4/cyPm.c **** * Parameters:
  34:.\Generated_Source\PSoC4/cyPm.c **** *  None
  35:.\Generated_Source\PSoC4/cyPm.c **** *
  36:.\Generated_Source\PSoC4/cyPm.c **** * Return:
  37:.\Generated_Source\PSoC4/cyPm.c **** *  None
  38:.\Generated_Source\PSoC4/cyPm.c **** *
  39:.\Generated_Source\PSoC4/cyPm.c **** *******************************************************************************/
  40:.\Generated_Source\PSoC4/cyPm.c **** void CySysPmSleep(void)
  41:.\Generated_Source\PSoC4/cyPm.c **** {
  26              		.loc 1 41 0
  27              		.cfi_startproc
  28 0000 90B5     		push	{r4, r7, lr}
  29              		.cfi_def_cfa_offset 12
  30              		.cfi_offset 4, -12
  31              		.cfi_offset 7, -8
  32              		.cfi_offset 14, -4
  33 0002 83B0     		sub	sp, sp, #12
  34              		.cfi_def_cfa_offset 24
  35 0004 00AF     		add	r7, sp, #0
  36              		.cfi_def_cfa_register 7
  42:.\Generated_Source\PSoC4/cyPm.c ****     uint8 interruptState;
  43:.\Generated_Source\PSoC4/cyPm.c **** 
  44:.\Generated_Source\PSoC4/cyPm.c ****     interruptState = CyEnterCriticalSection();
  37              		.loc 1 44 0
  38 0006 FC1D     		add	r4, r7, #7
  39 0008 FFF7FEFF 		bl	CyEnterCriticalSection
  40 000c 031C     		mov	r3, r0
  41 000e 2370     		strb	r3, [r4]
  45:.\Generated_Source\PSoC4/cyPm.c **** 
  46:.\Generated_Source\PSoC4/cyPm.c ****     /* CM0 enters Sleep mode upon execution of WFI */
  47:.\Generated_Source\PSoC4/cyPm.c ****     CY_PM_CM0_SCR_REG &= (uint32) (~CY_PM_CM0_SCR_SLEEPDEEP);
  42              		.loc 1 47 0
  43 0010 074B     		ldr	r3, .L2
  44 0012 074A     		ldr	r2, .L2
  45 0014 1268     		ldr	r2, [r2]
  46 0016 0421     		mov	r1, #4
  47 0018 8A43     		bic	r2, r1
  48 001a 1A60     		str	r2, [r3]
  48:.\Generated_Source\PSoC4/cyPm.c **** 
  49:.\Generated_Source\PSoC4/cyPm.c ****     /* Sleep and wait for interrupt */
  50:.\Generated_Source\PSoC4/cyPm.c ****     CY_PM_WFI;
  49              		.loc 1 50 0
  50              	@ 50 ".\Generated_Source\PSoC4\cyPm.c" 1
  51 001c 30BF     		WFI 
  52              	
  53              	@ 0 "" 2
  51:.\Generated_Source\PSoC4/cyPm.c **** 
  52:.\Generated_Source\PSoC4/cyPm.c ****     CyExitCriticalSection(interruptState);
  54              		.loc 1 52 0
  55              		.code	16
  56 001e FB1D     		add	r3, r7, #7
  57 0020 1B78     		ldrb	r3, [r3]
  58 0022 181C     		mov	r0, r3
  59 0024 FFF7FEFF 		bl	CyExitCriticalSection
  53:.\Generated_Source\PSoC4/cyPm.c **** }
  60              		.loc 1 53 0
  61 0028 BD46     		mov	sp, r7
ARM GAS  C:\DOCUME~1\Owner\LOCALS~1\Temp\ccNXVetc.s 			page 3


  62 002a 03B0     		add	sp, sp, #12
  63              		@ sp needed
  64 002c 90BD     		pop	{r4, r7, pc}
  65              	.L3:
  66 002e C046     		.align	2
  67              	.L2:
  68 0030 10ED00E0 		.word	-536810224
  69              		.cfi_endproc
  70              	.LFE0:
  71              		.size	CySysPmSleep, .-CySysPmSleep
  72              		.section	.text.CySysPmDeepSleep,"ax",%progbits
  73              		.align	2
  74              		.global	CySysPmDeepSleep
  75              		.code	16
  76              		.thumb_func
  77              		.type	CySysPmDeepSleep, %function
  78              	CySysPmDeepSleep:
  79              	.LFB1:
  54:.\Generated_Source\PSoC4/cyPm.c **** 
  55:.\Generated_Source\PSoC4/cyPm.c **** 
  56:.\Generated_Source\PSoC4/cyPm.c **** /*******************************************************************************
  57:.\Generated_Source\PSoC4/cyPm.c **** * Function Name: CySysPmDeepSleep
  58:.\Generated_Source\PSoC4/cyPm.c **** ********************************************************************************
  59:.\Generated_Source\PSoC4/cyPm.c **** *
  60:.\Generated_Source\PSoC4/cyPm.c **** * Summary:
  61:.\Generated_Source\PSoC4/cyPm.c **** *  Puts the part into the Deep Sleep state. If the firmware attempts to enter
  62:.\Generated_Source\PSoC4/cyPm.c **** *  this mode before the system is ready (that is, when
  63:.\Generated_Source\PSoC4/cyPm.c **** *  PWR_CONTROL.LPM_READY = 0), then the device will go into the Sleep mode
  64:.\Generated_Source\PSoC4/cyPm.c **** *  instead and automatically enter the originally intended mode when the
  65:.\Generated_Source\PSoC4/cyPm.c **** *  holdoff expires.
  66:.\Generated_Source\PSoC4/cyPm.c **** *
  67:.\Generated_Source\PSoC4/cyPm.c **** *  The wakeup occurs when an interrupt is received from a DeepSleep or
  68:.\Generated_Source\PSoC4/cyPm.c **** *  Hibernate peripheral. For more details, see a corresponding
  69:.\Generated_Source\PSoC4/cyPm.c **** *  peripheral's datasheet.
  70:.\Generated_Source\PSoC4/cyPm.c **** *
  71:.\Generated_Source\PSoC4/cyPm.c **** * Parameters:
  72:.\Generated_Source\PSoC4/cyPm.c **** *  None
  73:.\Generated_Source\PSoC4/cyPm.c **** *
  74:.\Generated_Source\PSoC4/cyPm.c **** * Return:
  75:.\Generated_Source\PSoC4/cyPm.c **** *  None
  76:.\Generated_Source\PSoC4/cyPm.c **** *
  77:.\Generated_Source\PSoC4/cyPm.c **** *******************************************************************************/
  78:.\Generated_Source\PSoC4/cyPm.c **** void CySysPmDeepSleep(void)
  79:.\Generated_Source\PSoC4/cyPm.c **** {
  80              		.loc 1 79 0
  81              		.cfi_startproc
  82 0000 90B5     		push	{r4, r7, lr}
  83              		.cfi_def_cfa_offset 12
  84              		.cfi_offset 4, -12
  85              		.cfi_offset 7, -8
  86              		.cfi_offset 14, -4
  87 0002 83B0     		sub	sp, sp, #12
  88              		.cfi_def_cfa_offset 24
  89 0004 00AF     		add	r7, sp, #0
  90              		.cfi_def_cfa_register 7
  80:.\Generated_Source\PSoC4/cyPm.c ****     uint8 interruptState;
  81:.\Generated_Source\PSoC4/cyPm.c ****     #if(CY_IP_SRSSV2)
ARM GAS  C:\DOCUME~1\Owner\LOCALS~1\Temp\ccNXVetc.s 			page 4


  82:.\Generated_Source\PSoC4/cyPm.c ****         volatile uint32 clkSelectReg;
  83:.\Generated_Source\PSoC4/cyPm.c ****     #endif /* (CY_IP_SRSSV2) */
  84:.\Generated_Source\PSoC4/cyPm.c **** 
  85:.\Generated_Source\PSoC4/cyPm.c ****     interruptState = CyEnterCriticalSection();
  91              		.loc 1 85 0
  92 0006 FC1D     		add	r4, r7, #7
  93 0008 FFF7FEFF 		bl	CyEnterCriticalSection
  94 000c 031C     		mov	r3, r0
  95 000e 2370     		strb	r3, [r4]
  86:.\Generated_Source\PSoC4/cyPm.c **** 
  87:.\Generated_Source\PSoC4/cyPm.c ****     #if(CY_IP_SRSSV2)
  88:.\Generated_Source\PSoC4/cyPm.c ****         /* Device enters DeepSleep mode when CPU asserts SLEEPDEEP signal */
  89:.\Generated_Source\PSoC4/cyPm.c ****         CY_PM_PWR_CONTROL_REG &= (uint32) (~CY_PM_PWR_CONTROL_HIBERNATE);
  96              		.loc 1 89 0
  97 0010 194B     		ldr	r3, .L5
  98 0012 194A     		ldr	r2, .L5
  99 0014 1268     		ldr	r2, [r2]
 100 0016 5200     		lsl	r2, r2, #1
 101 0018 5208     		lsr	r2, r2, #1
 102 001a 1A60     		str	r2, [r3]
  90:.\Generated_Source\PSoC4/cyPm.c ****     #endif /* (CY_IP_SRSSV2) */
  91:.\Generated_Source\PSoC4/cyPm.c **** 
  92:.\Generated_Source\PSoC4/cyPm.c ****     #if (CY_PSOC4_4100 || CY_PSOC4_4200)
  93:.\Generated_Source\PSoC4/cyPm.c ****         CY_PM_CPUSS_CONFIG_REG |= CY_PM_CPUSS_CONFIG_FLSH_ACC_BYPASS;
 103              		.loc 1 93 0
 104 001c 8023     		mov	r3, #128
 105 001e DB05     		lsl	r3, r3, #23
 106 0020 8022     		mov	r2, #128
 107 0022 D205     		lsl	r2, r2, #23
 108 0024 1268     		ldr	r2, [r2]
 109 0026 0221     		mov	r1, #2
 110 0028 0A43     		orr	r2, r1
 111 002a 1A60     		str	r2, [r3]
  94:.\Generated_Source\PSoC4/cyPm.c ****     #endif /* (CY_PSOC4_4100 || CY_PSOC4_4200) */
  95:.\Generated_Source\PSoC4/cyPm.c **** 
  96:.\Generated_Source\PSoC4/cyPm.c ****     /* Adjust delay to wait for references to settle on wakeup from Deep Sleep */
  97:.\Generated_Source\PSoC4/cyPm.c ****     CY_PM_PWR_KEY_DELAY_REG = CY_SFLASH_DPSLP_KEY_DELAY_REG;
 112              		.loc 1 97 0
 113 002c 134B     		ldr	r3, .L5+4
 114 002e 144A     		ldr	r2, .L5+8
 115 0030 1288     		ldrh	r2, [r2]
 116 0032 92B2     		uxth	r2, r2
 117 0034 1A60     		str	r2, [r3]
  98:.\Generated_Source\PSoC4/cyPm.c **** 
  99:.\Generated_Source\PSoC4/cyPm.c ****     /* CM0 enters DeepSleep/Hibernate mode upon execution of WFI */
 100:.\Generated_Source\PSoC4/cyPm.c ****     CY_PM_CM0_SCR_REG |= CY_PM_CM0_SCR_SLEEPDEEP;
 118              		.loc 1 100 0
 119 0036 134B     		ldr	r3, .L5+12
 120 0038 124A     		ldr	r2, .L5+12
 121 003a 1268     		ldr	r2, [r2]
 122 003c 0421     		mov	r1, #4
 123 003e 0A43     		orr	r2, r1
 124 0040 1A60     		str	r2, [r3]
 101:.\Generated_Source\PSoC4/cyPm.c **** 
 102:.\Generated_Source\PSoC4/cyPm.c ****     #if(CY_IP_SRSSV2)
 103:.\Generated_Source\PSoC4/cyPm.c ****         /* Preserve system clock configuration and
 104:.\Generated_Source\PSoC4/cyPm.c ****         * reduce sysclk to <=12 MHz (Cypress ID #158710, #179888).
ARM GAS  C:\DOCUME~1\Owner\LOCALS~1\Temp\ccNXVetc.s 			page 5


 105:.\Generated_Source\PSoC4/cyPm.c ****         */
 106:.\Generated_Source\PSoC4/cyPm.c ****         clkSelectReg = CY_SYS_CLK_SELECT_REG;
 125              		.loc 1 106 0
 126 0042 114B     		ldr	r3, .L5+16
 127 0044 1B68     		ldr	r3, [r3]
 128 0046 3B60     		str	r3, [r7]
 107:.\Generated_Source\PSoC4/cyPm.c ****         CySysClkWriteSysclkDiv(CY_SYS_CLK_SYSCLK_DIV4);
 129              		.loc 1 107 0
 130 0048 0220     		mov	r0, #2
 131 004a FFF7FEFF 		bl	CySysClkWriteSysclkDiv
 108:.\Generated_Source\PSoC4/cyPm.c ****     #endif /* (CY_IP_SRSSV2) */
 109:.\Generated_Source\PSoC4/cyPm.c **** 
 110:.\Generated_Source\PSoC4/cyPm.c ****     /* Sleep and wait for interrupt */
 111:.\Generated_Source\PSoC4/cyPm.c ****     CY_PM_WFI;
 132              		.loc 1 111 0
 133              	@ 111 ".\Generated_Source\PSoC4\cyPm.c" 1
 134 004e 30BF     		WFI 
 135              	
 136              	@ 0 "" 2
 112:.\Generated_Source\PSoC4/cyPm.c **** 
 113:.\Generated_Source\PSoC4/cyPm.c ****     #if(CY_IP_SRSSV2)
 114:.\Generated_Source\PSoC4/cyPm.c ****         /* Restore system clock configuration */
 115:.\Generated_Source\PSoC4/cyPm.c ****         CY_SYS_CLK_SELECT_REG = clkSelectReg;
 137              		.loc 1 115 0
 138              		.code	16
 139 0050 0D4B     		ldr	r3, .L5+16
 140 0052 3A68     		ldr	r2, [r7]
 141 0054 1A60     		str	r2, [r3]
 116:.\Generated_Source\PSoC4/cyPm.c ****     #endif /* (CY_IP_SRSSV2) */
 117:.\Generated_Source\PSoC4/cyPm.c **** 
 118:.\Generated_Source\PSoC4/cyPm.c ****     #if (CY_PSOC4_4100 || CY_PSOC4_4200)
 119:.\Generated_Source\PSoC4/cyPm.c ****         CY_PM_CPUSS_CONFIG_REG &= (uint32) (~CY_PM_CPUSS_CONFIG_FLSH_ACC_BYPASS);
 142              		.loc 1 119 0
 143 0056 8023     		mov	r3, #128
 144 0058 DB05     		lsl	r3, r3, #23
 145 005a 8022     		mov	r2, #128
 146 005c D205     		lsl	r2, r2, #23
 147 005e 1268     		ldr	r2, [r2]
 148 0060 0221     		mov	r1, #2
 149 0062 8A43     		bic	r2, r1
 150 0064 1A60     		str	r2, [r3]
 120:.\Generated_Source\PSoC4/cyPm.c ****     #endif /* (CY_PSOC4_4100 || CY_PSOC4_4200) */
 121:.\Generated_Source\PSoC4/cyPm.c **** 
 122:.\Generated_Source\PSoC4/cyPm.c ****     CyExitCriticalSection(interruptState);
 151              		.loc 1 122 0
 152 0066 FB1D     		add	r3, r7, #7
 153 0068 1B78     		ldrb	r3, [r3]
 154 006a 181C     		mov	r0, r3
 155 006c FFF7FEFF 		bl	CyExitCriticalSection
 123:.\Generated_Source\PSoC4/cyPm.c **** }
 156              		.loc 1 123 0
 157 0070 BD46     		mov	sp, r7
 158 0072 03B0     		add	sp, sp, #12
 159              		@ sp needed
 160 0074 90BD     		pop	{r4, r7, pc}
 161              	.L6:
 162 0076 C046     		.align	2
ARM GAS  C:\DOCUME~1\Owner\LOCALS~1\Temp\ccNXVetc.s 			page 6


 163              	.L5:
 164 0078 00000B40 		.word	1074462720
 165 007c 0C000B40 		.word	1074462732
 166 0080 52F1FF0F 		.word	268431698
 167 0084 10ED00E0 		.word	-536810224
 168 0088 00010B40 		.word	1074462976
 169              		.cfi_endproc
 170              	.LFE1:
 171              		.size	CySysPmDeepSleep, .-CySysPmDeepSleep
 172              		.section	.text.CySysPmHibernate,"ax",%progbits
 173              		.align	2
 174              		.global	CySysPmHibernate
 175              		.code	16
 176              		.thumb_func
 177              		.type	CySysPmHibernate, %function
 178              	CySysPmHibernate:
 179              	.LFB2:
 124:.\Generated_Source\PSoC4/cyPm.c **** 
 125:.\Generated_Source\PSoC4/cyPm.c **** 
 126:.\Generated_Source\PSoC4/cyPm.c **** #if(CY_IP_SRSSV2)
 127:.\Generated_Source\PSoC4/cyPm.c **** 
 128:.\Generated_Source\PSoC4/cyPm.c ****     /*******************************************************************************
 129:.\Generated_Source\PSoC4/cyPm.c ****     * Function Name: CySysPmHibernate
 130:.\Generated_Source\PSoC4/cyPm.c ****     ********************************************************************************
 131:.\Generated_Source\PSoC4/cyPm.c ****     *
 132:.\Generated_Source\PSoC4/cyPm.c ****     * Summary:
 133:.\Generated_Source\PSoC4/cyPm.c ****     *  Puts the part into the Hibernate state. Only SRAM and UDBs are retained;
 134:.\Generated_Source\PSoC4/cyPm.c ****     *  most internal supplies are off. Wakeup is possible from a pin or a hibernate
 135:.\Generated_Source\PSoC4/cyPm.c ****     *  comparator only.
 136:.\Generated_Source\PSoC4/cyPm.c ****     *
 137:.\Generated_Source\PSoC4/cyPm.c ****     *  It is expected that the firmware has already frozen the IO-Cells using
 138:.\Generated_Source\PSoC4/cyPm.c ****     *  CySysPmFreezeIo() function before the call to this function. If this is
 139:.\Generated_Source\PSoC4/cyPm.c ****     *  omitted, the IO-cells will be frozen in the same way as they are
 140:.\Generated_Source\PSoC4/cyPm.c ****     *  in the Active to Deep Sleep transition, but will lose their state on wake up
 141:.\Generated_Source\PSoC4/cyPm.c ****     *  (because of the reset occurring at that time).
 142:.\Generated_Source\PSoC4/cyPm.c ****     *
 143:.\Generated_Source\PSoC4/cyPm.c ****     *  Because all the CPU state is lost, the CPU will start up at the reset vector.
 144:.\Generated_Source\PSoC4/cyPm.c ****     *  To save the firmware state through the Hibernate low power mode, a
 145:.\Generated_Source\PSoC4/cyPm.c ****     *  corresponding variable should be defined with CY_NOINIT attribute. It
 146:.\Generated_Source\PSoC4/cyPm.c ****     *  prevents data from being initialized to zero on startup. The interrupt
 147:.\Generated_Source\PSoC4/cyPm.c ****     *  cause of the hibernate peripheral is retained, such that it can be either
 148:.\Generated_Source\PSoC4/cyPm.c ****     *  read by the firmware or cause an interrupt after the firmware has booted and
 149:.\Generated_Source\PSoC4/cyPm.c ****     *  enabled the corresponding interrupt. To distinguish the wakeup from
 150:.\Generated_Source\PSoC4/cyPm.c ****     *  the Hibernate mode and the general Reset event, the CySysPmGetResetReason()
 151:.\Generated_Source\PSoC4/cyPm.c ****     *  function could be used.
 152:.\Generated_Source\PSoC4/cyPm.c ****     *
 153:.\Generated_Source\PSoC4/cyPm.c ****     * Parameters:
 154:.\Generated_Source\PSoC4/cyPm.c ****     *  None
 155:.\Generated_Source\PSoC4/cyPm.c ****     *
 156:.\Generated_Source\PSoC4/cyPm.c ****     * Return:
 157:.\Generated_Source\PSoC4/cyPm.c ****     *  None
 158:.\Generated_Source\PSoC4/cyPm.c ****     *
 159:.\Generated_Source\PSoC4/cyPm.c ****     *******************************************************************************/
 160:.\Generated_Source\PSoC4/cyPm.c ****     void CySysPmHibernate(void)
 161:.\Generated_Source\PSoC4/cyPm.c ****     {
 180              		.loc 1 161 0
 181              		.cfi_startproc
ARM GAS  C:\DOCUME~1\Owner\LOCALS~1\Temp\ccNXVetc.s 			page 7


 182 0000 90B5     		push	{r4, r7, lr}
 183              		.cfi_def_cfa_offset 12
 184              		.cfi_offset 4, -12
 185              		.cfi_offset 7, -8
 186              		.cfi_offset 14, -4
 187 0002 83B0     		sub	sp, sp, #12
 188              		.cfi_def_cfa_offset 24
 189 0004 00AF     		add	r7, sp, #0
 190              		.cfi_def_cfa_register 7
 162:.\Generated_Source\PSoC4/cyPm.c ****         uint8 interruptState;
 163:.\Generated_Source\PSoC4/cyPm.c **** 
 164:.\Generated_Source\PSoC4/cyPm.c ****         interruptState = CyEnterCriticalSection();
 191              		.loc 1 164 0
 192 0006 FC1D     		add	r4, r7, #7
 193 0008 FFF7FEFF 		bl	CyEnterCriticalSection
 194 000c 031C     		mov	r3, r0
 195 000e 2370     		strb	r3, [r4]
 165:.\Generated_Source\PSoC4/cyPm.c **** 
 166:.\Generated_Source\PSoC4/cyPm.c ****         /* Device enters Hibernate mode when CPU asserts SLEEPDEEP signal */
 167:.\Generated_Source\PSoC4/cyPm.c ****         CY_PM_PWR_CONTROL_REG |= CY_PM_PWR_CONTROL_HIBERNATE;
 196              		.loc 1 167 0
 197 0010 114B     		ldr	r3, .L8
 198 0012 114A     		ldr	r2, .L8
 199 0014 1268     		ldr	r2, [r2]
 200 0016 8021     		mov	r1, #128
 201 0018 0906     		lsl	r1, r1, #24
 202 001a 0A43     		orr	r2, r1
 203 001c 1A60     		str	r2, [r3]
 168:.\Generated_Source\PSoC4/cyPm.c **** 
 169:.\Generated_Source\PSoC4/cyPm.c ****         /* Adjust delay to wait for references to settle on wakeup from hibernate */
 170:.\Generated_Source\PSoC4/cyPm.c ****         CY_PM_PWR_KEY_DELAY_REG = CY_SFLASH_HIB_KEY_DELAY_REG;
 204              		.loc 1 170 0
 205 001e 0F4B     		ldr	r3, .L8+4
 206 0020 0F4A     		ldr	r2, .L8+8
 207 0022 1288     		ldrh	r2, [r2]
 208 0024 92B2     		uxth	r2, r2
 209 0026 1A60     		str	r2, [r3]
 171:.\Generated_Source\PSoC4/cyPm.c **** 
 172:.\Generated_Source\PSoC4/cyPm.c ****         /* CM0 enters DeepSleep/Hibernate mode upon execution of WFI */
 173:.\Generated_Source\PSoC4/cyPm.c ****         CY_PM_CM0_SCR_REG |= CY_PM_CM0_SCR_SLEEPDEEP;
 210              		.loc 1 173 0
 211 0028 0E4B     		ldr	r3, .L8+12
 212 002a 0E4A     		ldr	r2, .L8+12
 213 002c 1268     		ldr	r2, [r2]
 214 002e 0421     		mov	r1, #4
 215 0030 0A43     		orr	r2, r1
 216 0032 1A60     		str	r2, [r3]
 174:.\Generated_Source\PSoC4/cyPm.c **** 
 175:.\Generated_Source\PSoC4/cyPm.c ****         /* Save token that will retain through a STOP/WAKEUP sequence
 176:.\Generated_Source\PSoC4/cyPm.c ****          * thus could be used by CySysPmGetResetReason() to differentiate
 177:.\Generated_Source\PSoC4/cyPm.c ****          * WAKEUP from a general RESET event.
 178:.\Generated_Source\PSoC4/cyPm.c ****          */
 179:.\Generated_Source\PSoC4/cyPm.c ****         CY_PM_PWR_STOP_REG = (CY_PM_PWR_STOP_REG & (uint32)(~CY_PM_PWR_STOP_TOKEN_MASK)) | CY_PM_PW
 217              		.loc 1 179 0
 218 0034 0C4B     		ldr	r3, .L8+16
 219 0036 0C4A     		ldr	r2, .L8+16
 220 0038 1268     		ldr	r2, [r2]
ARM GAS  C:\DOCUME~1\Owner\LOCALS~1\Temp\ccNXVetc.s 			page 8


 221 003a FF21     		mov	r1, #255
 222 003c 8A43     		bic	r2, r1
 223 003e F121     		mov	r1, #241
 224 0040 0A43     		orr	r2, r1
 225 0042 1A60     		str	r2, [r3]
 180:.\Generated_Source\PSoC4/cyPm.c **** 
 181:.\Generated_Source\PSoC4/cyPm.c ****         /* Sleep and wait for interrupt. Wakeup from Hibernate is performed
 182:.\Generated_Source\PSoC4/cyPm.c ****          * through RESET state, causing a normal Boot procedure to occur.
 183:.\Generated_Source\PSoC4/cyPm.c ****          * The WFI instruction doesn't put the core to sleep if its wake condition
 184:.\Generated_Source\PSoC4/cyPm.c ****          * is true when the instruction is executed.
 185:.\Generated_Source\PSoC4/cyPm.c ****          */
 186:.\Generated_Source\PSoC4/cyPm.c ****         CY_PM_WFI;
 226              		.loc 1 186 0
 227              	@ 186 ".\Generated_Source\PSoC4\cyPm.c" 1
 228 0044 30BF     		WFI 
 229              	
 230              	@ 0 "" 2
 187:.\Generated_Source\PSoC4/cyPm.c **** 
 188:.\Generated_Source\PSoC4/cyPm.c ****         CyExitCriticalSection(interruptState);
 231              		.loc 1 188 0
 232              		.code	16
 233 0046 FB1D     		add	r3, r7, #7
 234 0048 1B78     		ldrb	r3, [r3]
 235 004a 181C     		mov	r0, r3
 236 004c FFF7FEFF 		bl	CyExitCriticalSection
 189:.\Generated_Source\PSoC4/cyPm.c ****     }
 237              		.loc 1 189 0
 238 0050 BD46     		mov	sp, r7
 239 0052 03B0     		add	sp, sp, #12
 240              		@ sp needed
 241 0054 90BD     		pop	{r4, r7, pc}
 242              	.L9:
 243 0056 C046     		.align	2
 244              	.L8:
 245 0058 00000B40 		.word	1074462720
 246 005c 0C000B40 		.word	1074462732
 247 0060 50F1FF0F 		.word	268431696
 248 0064 10ED00E0 		.word	-536810224
 249 0068 2C000B40 		.word	1074462764
 250              		.cfi_endproc
 251              	.LFE2:
 252              		.size	CySysPmHibernate, .-CySysPmHibernate
 253              		.section	.text.CySysPmStop,"ax",%progbits
 254              		.align	2
 255              		.global	CySysPmStop
 256              		.code	16
 257              		.thumb_func
 258              		.type	CySysPmStop, %function
 259              	CySysPmStop:
 260              	.LFB3:
 190:.\Generated_Source\PSoC4/cyPm.c **** 
 191:.\Generated_Source\PSoC4/cyPm.c **** 
 192:.\Generated_Source\PSoC4/cyPm.c ****     /*******************************************************************************
 193:.\Generated_Source\PSoC4/cyPm.c ****     * Function Name: CySysPmStop
 194:.\Generated_Source\PSoC4/cyPm.c ****     ********************************************************************************
 195:.\Generated_Source\PSoC4/cyPm.c ****     *
 196:.\Generated_Source\PSoC4/cyPm.c ****     * Summary:
ARM GAS  C:\DOCUME~1\Owner\LOCALS~1\Temp\ccNXVetc.s 			page 9


 197:.\Generated_Source\PSoC4/cyPm.c ****     *  Puts the part into the Stop state. All internal supplies are off;
 198:.\Generated_Source\PSoC4/cyPm.c ****     *  no state is retained.
 199:.\Generated_Source\PSoC4/cyPm.c ****     *
 200:.\Generated_Source\PSoC4/cyPm.c ****     *  Wakeup from Stop is performed by toggling the wakeup pin, causing
 201:.\Generated_Source\PSoC4/cyPm.c ****     *  a normal boot procedure to occur. To configure the wakeup pin,
 202:.\Generated_Source\PSoC4/cyPm.c ****     *  the Digital Input Pin component should be placed on the schematic,
 203:.\Generated_Source\PSoC4/cyPm.c ****     *  assigned to the wakeup pin, and resistively pulled up or down to the inverse
 204:.\Generated_Source\PSoC4/cyPm.c ****     *  state of the wakeup polarity. To distinguish the wakeup from the Stop mode
 205:.\Generated_Source\PSoC4/cyPm.c ****     *  and the general Reset event, CySysPmGetResetReason() function could be used.
 206:.\Generated_Source\PSoC4/cyPm.c ****     *  The wakeup pin is active low by default. The wakeup pin polarity
 207:.\Generated_Source\PSoC4/cyPm.c ****     *  could be changed with the CySysPmSetWakeupPolarity() function.
 208:.\Generated_Source\PSoC4/cyPm.c ****     *
 209:.\Generated_Source\PSoC4/cyPm.c ****     *  This function freezes IO cells implicitly. It is not possible to enter
 210:.\Generated_Source\PSoC4/cyPm.c ****     *  the STOP mode before freezing the IO cells. The IO cells remain frozen after
 211:.\Generated_Source\PSoC4/cyPm.c ****     *  awake from the Stop mode until the firmware unfreezes them after booting
 212:.\Generated_Source\PSoC4/cyPm.c ****     *  explicitly with CySysPmUnfreezeIo() function call.
 213:.\Generated_Source\PSoC4/cyPm.c ****     *
 214:.\Generated_Source\PSoC4/cyPm.c ****     * Parameters:
 215:.\Generated_Source\PSoC4/cyPm.c ****     *  None
 216:.\Generated_Source\PSoC4/cyPm.c ****     *
 217:.\Generated_Source\PSoC4/cyPm.c ****     * Return:
 218:.\Generated_Source\PSoC4/cyPm.c ****     *  None
 219:.\Generated_Source\PSoC4/cyPm.c ****     *
 220:.\Generated_Source\PSoC4/cyPm.c ****     *******************************************************************************/
 221:.\Generated_Source\PSoC4/cyPm.c ****     void CySysPmStop(void)
 222:.\Generated_Source\PSoC4/cyPm.c ****     {
 261              		.loc 1 222 0
 262              		.cfi_startproc
 263 0000 80B5     		push	{r7, lr}
 264              		.cfi_def_cfa_offset 8
 265              		.cfi_offset 7, -8
 266              		.cfi_offset 14, -4
 267 0002 00AF     		add	r7, sp, #0
 268              		.cfi_def_cfa_register 7
 223:.\Generated_Source\PSoC4/cyPm.c ****         (void) CyEnterCriticalSection();
 269              		.loc 1 223 0
 270 0004 FFF7FEFF 		bl	CyEnterCriticalSection
 224:.\Generated_Source\PSoC4/cyPm.c **** 
 225:.\Generated_Source\PSoC4/cyPm.c ****         /* Update token to indicate Stop mode transition. Preserve only polarity. */
 226:.\Generated_Source\PSoC4/cyPm.c ****         CY_PM_PWR_STOP_REG = (CY_PM_PWR_STOP_REG & CY_PM_PWR_STOP_POLARITY) | CY_PM_PWR_STOP_TOKEN_
 271              		.loc 1 226 0
 272 0008 0B4B     		ldr	r3, .L11
 273 000a 0B4A     		ldr	r2, .L11
 274 000c 1168     		ldr	r1, [r2]
 275 000e 8022     		mov	r2, #128
 276 0010 5202     		lsl	r2, r2, #9
 277 0012 0A40     		and	r2, r1
 278 0014 F221     		mov	r1, #242
 279 0016 0A43     		orr	r2, r1
 280 0018 1A60     		str	r2, [r3]
 227:.\Generated_Source\PSoC4/cyPm.c **** 
 228:.\Generated_Source\PSoC4/cyPm.c ****         /* Freeze IO-Cells to save IO-Cell state */
 229:.\Generated_Source\PSoC4/cyPm.c ****         CySysPmFreezeIo();
 281              		.loc 1 229 0
 282 001a FFF7FEFF 		bl	CySysPmFreezeIo
 230:.\Generated_Source\PSoC4/cyPm.c **** 
 231:.\Generated_Source\PSoC4/cyPm.c ****         /* Initiates transition to Stop state */
ARM GAS  C:\DOCUME~1\Owner\LOCALS~1\Temp\ccNXVetc.s 			page 10


 232:.\Generated_Source\PSoC4/cyPm.c ****         CY_PM_PWR_STOP_REG = CY_PM_PWR_STOP_REG | CY_PM_PWR_STOP_STOP;
 283              		.loc 1 232 0
 284 001e 064B     		ldr	r3, .L11
 285 0020 054A     		ldr	r2, .L11
 286 0022 1268     		ldr	r2, [r2]
 287 0024 8021     		mov	r1, #128
 288 0026 0906     		lsl	r1, r1, #24
 289 0028 0A43     		orr	r2, r1
 290 002a 1A60     		str	r2, [r3]
 233:.\Generated_Source\PSoC4/cyPm.c **** 
 234:.\Generated_Source\PSoC4/cyPm.c ****         /* Depending on the clock frequency and internal timing delays,
 235:.\Generated_Source\PSoC4/cyPm.c ****          * the final AHB transaction may or may not complete. To guard against
 236:.\Generated_Source\PSoC4/cyPm.c ****          * accidentally executing an unintended instruction, it is recommended
 237:.\Generated_Source\PSoC4/cyPm.c ****          * to add 2 NOP cycles after the final write to the STOP register.
 238:.\Generated_Source\PSoC4/cyPm.c ****          */
 239:.\Generated_Source\PSoC4/cyPm.c ****         CY_NOP;
 291              		.loc 1 239 0
 292              	@ 239 ".\Generated_Source\PSoC4\cyPm.c" 1
 293 002c C046     		NOP
 294              	
 295              	@ 0 "" 2
 240:.\Generated_Source\PSoC4/cyPm.c ****         CY_NOP;
 296              		.loc 1 240 0
 297              	@ 240 ".\Generated_Source\PSoC4\cyPm.c" 1
 298 002e C046     		NOP
 299              	
 300              	@ 0 "" 2
 241:.\Generated_Source\PSoC4/cyPm.c **** 
 242:.\Generated_Source\PSoC4/cyPm.c ****         /* Should never get to this WFI instruction */
 243:.\Generated_Source\PSoC4/cyPm.c ****         CY_PM_WFI;
 301              		.loc 1 243 0
 302              	@ 243 ".\Generated_Source\PSoC4\cyPm.c" 1
 303 0030 30BF     		WFI 
 304              	
 305              	@ 0 "" 2
 244:.\Generated_Source\PSoC4/cyPm.c **** 
 245:.\Generated_Source\PSoC4/cyPm.c ****         /* Wakeup from Stop is performed by toggling of Wakeup pin,
 246:.\Generated_Source\PSoC4/cyPm.c ****          * causing a normal Boot procedure to occur. No need to exit
 247:.\Generated_Source\PSoC4/cyPm.c ****          * from the critical section.
 248:.\Generated_Source\PSoC4/cyPm.c ****          */
 249:.\Generated_Source\PSoC4/cyPm.c ****     }
 306              		.loc 1 249 0
 307              		.code	16
 308 0032 BD46     		mov	sp, r7
 309              		@ sp needed
 310 0034 80BD     		pop	{r7, pc}
 311              	.L12:
 312 0036 C046     		.align	2
 313              	.L11:
 314 0038 2C000B40 		.word	1074462764
 315              		.cfi_endproc
 316              	.LFE3:
 317              		.size	CySysPmStop, .-CySysPmStop
 318              		.section	.text.CySysPmSetWakeupPolarity,"ax",%progbits
 319              		.align	2
 320              		.global	CySysPmSetWakeupPolarity
 321              		.code	16
ARM GAS  C:\DOCUME~1\Owner\LOCALS~1\Temp\ccNXVetc.s 			page 11


 322              		.thumb_func
 323              		.type	CySysPmSetWakeupPolarity, %function
 324              	CySysPmSetWakeupPolarity:
 325              	.LFB4:
 250:.\Generated_Source\PSoC4/cyPm.c **** 
 251:.\Generated_Source\PSoC4/cyPm.c **** 
 252:.\Generated_Source\PSoC4/cyPm.c ****     /*******************************************************************************
 253:.\Generated_Source\PSoC4/cyPm.c ****     * Function Name: CySysPmSetWakeupPolarity
 254:.\Generated_Source\PSoC4/cyPm.c ****     ********************************************************************************
 255:.\Generated_Source\PSoC4/cyPm.c ****     *
 256:.\Generated_Source\PSoC4/cyPm.c ****     * Summary:
 257:.\Generated_Source\PSoC4/cyPm.c ****     *  Wake up from the stop mode is performed by toggling the wakeup pin,
 258:.\Generated_Source\PSoC4/cyPm.c ****     *  causing a normal boot procedure to occur. This function assigns
 259:.\Generated_Source\PSoC4/cyPm.c ****     *  the wakeup pin active level. Setting the wakeup pin to this level will cause
 260:.\Generated_Source\PSoC4/cyPm.c ****     *  the wakeup from stop mode. The wakeup pin is active low by default.
 261:.\Generated_Source\PSoC4/cyPm.c ****     *
 262:.\Generated_Source\PSoC4/cyPm.c ****     * Parameters:
 263:.\Generated_Source\PSoC4/cyPm.c ****     *  polarity: Wakeup pin active level:
 264:.\Generated_Source\PSoC4/cyPm.c ****     *   Value    Define                          Level
 265:.\Generated_Source\PSoC4/cyPm.c ****     *    0        CY_PM_STOP_WAKEUP_ACTIVE_LOW    Logical zero will wakeup the chip
 266:.\Generated_Source\PSoC4/cyPm.c ****     *    1        CY_PM_STOP_WAKEUP_ACTIVE_HIGH   Logical one will wakeup the chip
 267:.\Generated_Source\PSoC4/cyPm.c ****     *
 268:.\Generated_Source\PSoC4/cyPm.c ****     * Return:
 269:.\Generated_Source\PSoC4/cyPm.c ****     *  None
 270:.\Generated_Source\PSoC4/cyPm.c ****     *
 271:.\Generated_Source\PSoC4/cyPm.c ****     *******************************************************************************/
 272:.\Generated_Source\PSoC4/cyPm.c ****     void CySysPmSetWakeupPolarity(uint32 polarity)
 273:.\Generated_Source\PSoC4/cyPm.c ****     {
 326              		.loc 1 273 0
 327              		.cfi_startproc
 328 0000 90B5     		push	{r4, r7, lr}
 329              		.cfi_def_cfa_offset 12
 330              		.cfi_offset 4, -12
 331              		.cfi_offset 7, -8
 332              		.cfi_offset 14, -4
 333 0002 85B0     		sub	sp, sp, #20
 334              		.cfi_def_cfa_offset 32
 335 0004 00AF     		add	r7, sp, #0
 336              		.cfi_def_cfa_register 7
 337 0006 7860     		str	r0, [r7, #4]
 274:.\Generated_Source\PSoC4/cyPm.c ****         uint8 interruptState;
 275:.\Generated_Source\PSoC4/cyPm.c **** 
 276:.\Generated_Source\PSoC4/cyPm.c ****         interruptState = CyEnterCriticalSection();
 338              		.loc 1 276 0
 339 0008 3C1C     		mov	r4, r7
 340 000a 0F34     		add	r4, r4, #15
 341 000c FFF7FEFF 		bl	CyEnterCriticalSection
 342 0010 031C     		mov	r3, r0
 343 0012 2370     		strb	r3, [r4]
 277:.\Generated_Source\PSoC4/cyPm.c **** 
 278:.\Generated_Source\PSoC4/cyPm.c ****         CY_PM_PWR_STOP_REG = (CY_PM_STOP_WAKEUP_ACTIVE_LOW != polarity) ?
 344              		.loc 1 278 0
 345 0014 0B4B     		ldr	r3, .L16
 279:.\Generated_Source\PSoC4/cyPm.c ****                             (CY_PM_PWR_STOP_REG | CY_PM_PWR_STOP_POLARITY) :
 346              		.loc 1 279 0
 347 0016 7A68     		ldr	r2, [r7, #4]
 348 0018 002A     		cmp	r2, #0
ARM GAS  C:\DOCUME~1\Owner\LOCALS~1\Temp\ccNXVetc.s 			page 12


 349 001a 05D0     		beq	.L14
 350              		.loc 1 279 0 is_stmt 0 discriminator 1
 351 001c 094A     		ldr	r2, .L16
 352 001e 1268     		ldr	r2, [r2]
 353 0020 8021     		mov	r1, #128
 354 0022 4902     		lsl	r1, r1, #9
 355 0024 0A43     		orr	r2, r1
 356 0026 03E0     		b	.L15
 357              	.L14:
 280:.\Generated_Source\PSoC4/cyPm.c ****                             (CY_PM_PWR_STOP_REG & (uint32) (~CY_PM_PWR_STOP_POLARITY));
 358              		.loc 1 280 0 is_stmt 1 discriminator 2
 359 0028 064A     		ldr	r2, .L16
 360 002a 1168     		ldr	r1, [r2]
 279:.\Generated_Source\PSoC4/cyPm.c ****                             (CY_PM_PWR_STOP_REG | CY_PM_PWR_STOP_POLARITY) :
 361              		.loc 1 279 0 discriminator 2
 362 002c 064A     		ldr	r2, .L16+4
 363 002e 0A40     		and	r2, r1
 364              	.L15:
 278:.\Generated_Source\PSoC4/cyPm.c ****         CY_PM_PWR_STOP_REG = (CY_PM_STOP_WAKEUP_ACTIVE_LOW != polarity) ?
 365              		.loc 1 278 0
 366 0030 1A60     		str	r2, [r3]
 281:.\Generated_Source\PSoC4/cyPm.c **** 
 282:.\Generated_Source\PSoC4/cyPm.c ****         CyExitCriticalSection(interruptState);
 367              		.loc 1 282 0
 368 0032 3B1C     		mov	r3, r7
 369 0034 0F33     		add	r3, r3, #15
 370 0036 1B78     		ldrb	r3, [r3]
 371 0038 181C     		mov	r0, r3
 372 003a FFF7FEFF 		bl	CyExitCriticalSection
 283:.\Generated_Source\PSoC4/cyPm.c ****     }
 373              		.loc 1 283 0
 374 003e BD46     		mov	sp, r7
 375 0040 05B0     		add	sp, sp, #20
 376              		@ sp needed
 377 0042 90BD     		pop	{r4, r7, pc}
 378              	.L17:
 379              		.align	2
 380              	.L16:
 381 0044 2C000B40 		.word	1074462764
 382 0048 FFFFFEFF 		.word	-65537
 383              		.cfi_endproc
 384              	.LFE4:
 385              		.size	CySysPmSetWakeupPolarity, .-CySysPmSetWakeupPolarity
 386              		.section	.text.CySysPmGetResetReason,"ax",%progbits
 387              		.align	2
 388              		.global	CySysPmGetResetReason
 389              		.code	16
 390              		.thumb_func
 391              		.type	CySysPmGetResetReason, %function
 392              	CySysPmGetResetReason:
 393              	.LFB5:
 284:.\Generated_Source\PSoC4/cyPm.c **** 
 285:.\Generated_Source\PSoC4/cyPm.c **** 
 286:.\Generated_Source\PSoC4/cyPm.c ****     /*******************************************************************************
 287:.\Generated_Source\PSoC4/cyPm.c ****     * Function Name: CySysPmGetResetReason
 288:.\Generated_Source\PSoC4/cyPm.c ****     ********************************************************************************
 289:.\Generated_Source\PSoC4/cyPm.c ****     *
ARM GAS  C:\DOCUME~1\Owner\LOCALS~1\Temp\ccNXVetc.s 			page 13


 290:.\Generated_Source\PSoC4/cyPm.c ****     * Summary:
 291:.\Generated_Source\PSoC4/cyPm.c ****     *  Retrieves the last reset reason - transition from OFF/XRES/STOP/HIBERNATE to
 292:.\Generated_Source\PSoC4/cyPm.c ****     *  the RESET state. Note that waking up from STOP using XRES will be perceived
 293:.\Generated_Source\PSoC4/cyPm.c ****     *  as a general RESET.
 294:.\Generated_Source\PSoC4/cyPm.c ****     *
 295:.\Generated_Source\PSoC4/cyPm.c ****     * Parameters:
 296:.\Generated_Source\PSoC4/cyPm.c ****     *  None
 297:.\Generated_Source\PSoC4/cyPm.c ****     *
 298:.\Generated_Source\PSoC4/cyPm.c ****     * Return:
 299:.\Generated_Source\PSoC4/cyPm.c ****     *  Reset reason.
 300:.\Generated_Source\PSoC4/cyPm.c ****     *  CY_PM_RESET_REASON_UNKN        - unknown
 301:.\Generated_Source\PSoC4/cyPm.c ****     *  CY_PM_RESET_REASON_XRES        - transition from OFF/XRES to RESET
 302:.\Generated_Source\PSoC4/cyPm.c ****     *  CY_PM_RESET_REASON_WAKEUP_HIB  - transition/wakeup from HIBERNATE to RESET
 303:.\Generated_Source\PSoC4/cyPm.c ****     *  CY_PM_RESET_REASON_WAKEUP_STOP - transition/wakeup from STOP to RESET
 304:.\Generated_Source\PSoC4/cyPm.c ****     *
 305:.\Generated_Source\PSoC4/cyPm.c ****     *******************************************************************************/
 306:.\Generated_Source\PSoC4/cyPm.c ****     uint32 CySysPmGetResetReason(void)
 307:.\Generated_Source\PSoC4/cyPm.c ****     {
 394              		.loc 1 307 0
 395              		.cfi_startproc
 396 0000 80B5     		push	{r7, lr}
 397              		.cfi_def_cfa_offset 8
 398              		.cfi_offset 7, -8
 399              		.cfi_offset 14, -4
 400 0002 82B0     		sub	sp, sp, #8
 401              		.cfi_def_cfa_offset 16
 402 0004 00AF     		add	r7, sp, #0
 403              		.cfi_def_cfa_register 7
 308:.\Generated_Source\PSoC4/cyPm.c ****         uint32 reason = CY_PM_RESET_REASON_UNKN;
 404              		.loc 1 308 0
 405 0006 0023     		mov	r3, #0
 406 0008 7B60     		str	r3, [r7, #4]
 309:.\Generated_Source\PSoC4/cyPm.c **** 
 310:.\Generated_Source\PSoC4/cyPm.c ****         switch(CY_PM_PWR_STOP_REG & CY_PM_PWR_STOP_TOKEN_MASK)
 407              		.loc 1 310 0
 408 000a 0C4B     		ldr	r3, .L25
 409 000c 1A68     		ldr	r2, [r3]
 410 000e FF23     		mov	r3, #255
 411 0010 1340     		and	r3, r2
 412 0012 F12B     		cmp	r3, #241
 413 0014 07D0     		beq	.L20
 414 0016 F22B     		cmp	r3, #242
 415 0018 08D0     		beq	.L21
 416 001a 002B     		cmp	r3, #0
 417 001c 00D0     		beq	.L22
 311:.\Generated_Source\PSoC4/cyPm.c ****         {
 312:.\Generated_Source\PSoC4/cyPm.c ****         /* Power up, XRES */
 313:.\Generated_Source\PSoC4/cyPm.c ****         case CY_PM_PWR_STOP_TOKEN_XRES:
 314:.\Generated_Source\PSoC4/cyPm.c ****             reason = CY_PM_RESET_REASON_XRES;
 315:.\Generated_Source\PSoC4/cyPm.c ****             break;
 316:.\Generated_Source\PSoC4/cyPm.c **** 
 317:.\Generated_Source\PSoC4/cyPm.c ****         /* Wakeup from Hibernate */
 318:.\Generated_Source\PSoC4/cyPm.c ****         case CY_PM_PWR_STOP_TOKEN_HIB:
 319:.\Generated_Source\PSoC4/cyPm.c ****             reason = CY_PM_RESET_REASON_WAKEUP_HIB;
 320:.\Generated_Source\PSoC4/cyPm.c ****             break;
 321:.\Generated_Source\PSoC4/cyPm.c **** 
 322:.\Generated_Source\PSoC4/cyPm.c ****         /* Wakeup from Stop (through WAKEUP pin assert) */
ARM GAS  C:\DOCUME~1\Owner\LOCALS~1\Temp\ccNXVetc.s 			page 14


 323:.\Generated_Source\PSoC4/cyPm.c ****         case CY_PM_PWR_STOP_TOKEN_STOP:
 324:.\Generated_Source\PSoC4/cyPm.c ****             reason = CY_PM_RESET_REASON_WAKEUP_STOP;
 325:.\Generated_Source\PSoC4/cyPm.c ****             break;
 326:.\Generated_Source\PSoC4/cyPm.c **** 
 327:.\Generated_Source\PSoC4/cyPm.c ****         /* Unknown reason */
 328:.\Generated_Source\PSoC4/cyPm.c ****         default:
 329:.\Generated_Source\PSoC4/cyPm.c ****             break;
 418              		.loc 1 329 0
 419 001e 08E0     		b	.L23
 420              	.L22:
 314:.\Generated_Source\PSoC4/cyPm.c ****             reason = CY_PM_RESET_REASON_XRES;
 421              		.loc 1 314 0
 422 0020 0123     		mov	r3, #1
 423 0022 7B60     		str	r3, [r7, #4]
 315:.\Generated_Source\PSoC4/cyPm.c ****             break;
 424              		.loc 1 315 0
 425 0024 05E0     		b	.L23
 426              	.L20:
 319:.\Generated_Source\PSoC4/cyPm.c ****             reason = CY_PM_RESET_REASON_WAKEUP_HIB;
 427              		.loc 1 319 0
 428 0026 0223     		mov	r3, #2
 429 0028 7B60     		str	r3, [r7, #4]
 320:.\Generated_Source\PSoC4/cyPm.c ****             break;
 430              		.loc 1 320 0
 431 002a 02E0     		b	.L23
 432              	.L21:
 324:.\Generated_Source\PSoC4/cyPm.c ****             reason = CY_PM_RESET_REASON_WAKEUP_STOP;
 433              		.loc 1 324 0
 434 002c 0323     		mov	r3, #3
 435 002e 7B60     		str	r3, [r7, #4]
 325:.\Generated_Source\PSoC4/cyPm.c ****             break;
 436              		.loc 1 325 0
 437 0030 C046     		mov	r8, r8
 438              	.L23:
 330:.\Generated_Source\PSoC4/cyPm.c ****         }
 331:.\Generated_Source\PSoC4/cyPm.c **** 
 332:.\Generated_Source\PSoC4/cyPm.c ****         return (reason);
 439              		.loc 1 332 0
 440 0032 7B68     		ldr	r3, [r7, #4]
 333:.\Generated_Source\PSoC4/cyPm.c ****     }
 441              		.loc 1 333 0
 442 0034 181C     		mov	r0, r3
 443 0036 BD46     		mov	sp, r7
 444 0038 02B0     		add	sp, sp, #8
 445              		@ sp needed
 446 003a 80BD     		pop	{r7, pc}
 447              	.L26:
 448              		.align	2
 449              	.L25:
 450 003c 2C000B40 		.word	1074462764
 451              		.cfi_endproc
 452              	.LFE5:
 453              		.size	CySysPmGetResetReason, .-CySysPmGetResetReason
 454              		.section	.text.CySysPmFreezeIo,"ax",%progbits
 455              		.align	2
 456              		.global	CySysPmFreezeIo
 457              		.code	16
ARM GAS  C:\DOCUME~1\Owner\LOCALS~1\Temp\ccNXVetc.s 			page 15


 458              		.thumb_func
 459              		.type	CySysPmFreezeIo, %function
 460              	CySysPmFreezeIo:
 461              	.LFB6:
 334:.\Generated_Source\PSoC4/cyPm.c **** 
 335:.\Generated_Source\PSoC4/cyPm.c **** 
 336:.\Generated_Source\PSoC4/cyPm.c ****     /*******************************************************************************
 337:.\Generated_Source\PSoC4/cyPm.c ****     * Function Name: CySysPmFreezeIo
 338:.\Generated_Source\PSoC4/cyPm.c ****     ********************************************************************************
 339:.\Generated_Source\PSoC4/cyPm.c ****     *
 340:.\Generated_Source\PSoC4/cyPm.c ****     * Summary:
 341:.\Generated_Source\PSoC4/cyPm.c ****     *  Freezes IO-Cells directly to save the IO-Cell state on wake up from the
 342:.\Generated_Source\PSoC4/cyPm.c ****     *  Hibernate or Stop state. It is not required to call this function before
 343:.\Generated_Source\PSoC4/cyPm.c ****     *  entering the Stop mode, since CySysPmStop() function freezes IO-Cells
 344:.\Generated_Source\PSoC4/cyPm.c ****     *  implicitly.
 345:.\Generated_Source\PSoC4/cyPm.c ****     *
 346:.\Generated_Source\PSoC4/cyPm.c ****     * Parameters:
 347:.\Generated_Source\PSoC4/cyPm.c ****     *  None
 348:.\Generated_Source\PSoC4/cyPm.c ****     *
 349:.\Generated_Source\PSoC4/cyPm.c ****     * Return:
 350:.\Generated_Source\PSoC4/cyPm.c ****     *  None
 351:.\Generated_Source\PSoC4/cyPm.c ****     *
 352:.\Generated_Source\PSoC4/cyPm.c ****     *******************************************************************************/
 353:.\Generated_Source\PSoC4/cyPm.c ****     void CySysPmFreezeIo(void)
 354:.\Generated_Source\PSoC4/cyPm.c ****     {
 462              		.loc 1 354 0
 463              		.cfi_startproc
 464 0000 90B5     		push	{r4, r7, lr}
 465              		.cfi_def_cfa_offset 12
 466              		.cfi_offset 4, -12
 467              		.cfi_offset 7, -8
 468              		.cfi_offset 14, -4
 469 0002 83B0     		sub	sp, sp, #12
 470              		.cfi_def_cfa_offset 24
 471 0004 00AF     		add	r7, sp, #0
 472              		.cfi_def_cfa_register 7
 355:.\Generated_Source\PSoC4/cyPm.c ****         uint8 interruptState;
 356:.\Generated_Source\PSoC4/cyPm.c **** 
 357:.\Generated_Source\PSoC4/cyPm.c ****         interruptState = CyEnterCriticalSection();
 473              		.loc 1 357 0
 474 0006 FC1D     		add	r4, r7, #7
 475 0008 FFF7FEFF 		bl	CyEnterCriticalSection
 476 000c 031C     		mov	r3, r0
 477 000e 2370     		strb	r3, [r4]
 358:.\Generated_Source\PSoC4/cyPm.c **** 
 359:.\Generated_Source\PSoC4/cyPm.c ****         /* Check FREEZE state to avoid recurrent IO-Cells freeze attempt,
 360:.\Generated_Source\PSoC4/cyPm.c ****          * since the second call to this function will cause accidental switch
 361:.\Generated_Source\PSoC4/cyPm.c ****          * to the STOP mode (the system will enter STOP mode immediately after
 362:.\Generated_Source\PSoC4/cyPm.c ****          * writing to STOP bit since both UNLOCK and FREEZE have been set correctly
 363:.\Generated_Source\PSoC4/cyPm.c ****          * in a previous call to this function).
 364:.\Generated_Source\PSoC4/cyPm.c ****          */
 365:.\Generated_Source\PSoC4/cyPm.c ****         if (0u == (CY_PM_PWR_STOP_REG & CY_PM_PWR_STOP_FREEZE))
 478              		.loc 1 365 0
 479 0010 0E4B     		ldr	r3, .L29
 480 0012 1A68     		ldr	r2, [r3]
 481 0014 8023     		mov	r3, #128
 482 0016 9B02     		lsl	r3, r3, #10
ARM GAS  C:\DOCUME~1\Owner\LOCALS~1\Temp\ccNXVetc.s 			page 16


 483 0018 1340     		and	r3, r2
 484 001a 0FD1     		bne	.L28
 366:.\Generated_Source\PSoC4/cyPm.c ****         {
 367:.\Generated_Source\PSoC4/cyPm.c ****             /* Preserve last reset reason and disable overrides the next freeze command by peripher
 368:.\Generated_Source\PSoC4/cyPm.c ****             CY_PM_PWR_STOP_REG = CY_PM_PWR_STOP_STOP | CY_PM_PWR_STOP_FREEZE | CY_PM_PWR_STOP_UNLOC
 485              		.loc 1 368 0
 486 001c 0B4B     		ldr	r3, .L29
 369:.\Generated_Source\PSoC4/cyPm.c ****                                 (CY_PM_PWR_STOP_REG & (CY_PM_PWR_STOP_TOKEN_MASK | CY_PM_PWR_STOP_P
 487              		.loc 1 369 0
 488 001e 0B4A     		ldr	r2, .L29
 489 0020 1168     		ldr	r1, [r2]
 490 0022 0B4A     		ldr	r2, .L29+4
 491 0024 0A40     		and	r2, r1
 368:.\Generated_Source\PSoC4/cyPm.c ****             CY_PM_PWR_STOP_REG = CY_PM_PWR_STOP_STOP | CY_PM_PWR_STOP_FREEZE | CY_PM_PWR_STOP_UNLOC
 492              		.loc 1 368 0
 493 0026 0B49     		ldr	r1, .L29+8
 494 0028 0A43     		orr	r2, r1
 495 002a 1A60     		str	r2, [r3]
 370:.\Generated_Source\PSoC4/cyPm.c **** 
 371:.\Generated_Source\PSoC4/cyPm.c ****             /* If reading after writing, read this register three times to delay
 372:.\Generated_Source\PSoC4/cyPm.c ****             *  enough time for internal settling.
 373:.\Generated_Source\PSoC4/cyPm.c ****             */
 374:.\Generated_Source\PSoC4/cyPm.c ****             (void) CY_PM_PWR_STOP_REG;
 496              		.loc 1 374 0
 497 002c 074B     		ldr	r3, .L29
 498 002e 1B68     		ldr	r3, [r3]
 375:.\Generated_Source\PSoC4/cyPm.c ****             (void) CY_PM_PWR_STOP_REG;
 499              		.loc 1 375 0
 500 0030 064B     		ldr	r3, .L29
 501 0032 1B68     		ldr	r3, [r3]
 376:.\Generated_Source\PSoC4/cyPm.c **** 
 377:.\Generated_Source\PSoC4/cyPm.c ****             /* Second write causes the freeze of IO-Cells to save IO-Cell state */
 378:.\Generated_Source\PSoC4/cyPm.c ****             CY_PM_PWR_STOP_REG = CY_PM_PWR_STOP_REG;
 502              		.loc 1 378 0
 503 0034 054B     		ldr	r3, .L29
 504 0036 054A     		ldr	r2, .L29
 505 0038 1268     		ldr	r2, [r2]
 506 003a 1A60     		str	r2, [r3]
 507              	.L28:
 379:.\Generated_Source\PSoC4/cyPm.c ****         }
 380:.\Generated_Source\PSoC4/cyPm.c **** 
 381:.\Generated_Source\PSoC4/cyPm.c ****         CyExitCriticalSection(interruptState);
 508              		.loc 1 381 0
 509 003c FB1D     		add	r3, r7, #7
 510 003e 1B78     		ldrb	r3, [r3]
 511 0040 181C     		mov	r0, r3
 512 0042 FFF7FEFF 		bl	CyExitCriticalSection
 382:.\Generated_Source\PSoC4/cyPm.c ****     }
 513              		.loc 1 382 0
 514 0046 BD46     		mov	sp, r7
 515 0048 03B0     		add	sp, sp, #12
 516              		@ sp needed
 517 004a 90BD     		pop	{r4, r7, pc}
 518              	.L30:
 519              		.align	2
 520              	.L29:
 521 004c 2C000B40 		.word	1074462764
ARM GAS  C:\DOCUME~1\Owner\LOCALS~1\Temp\ccNXVetc.s 			page 17


 522 0050 FF000100 		.word	65791
 523 0054 003A0280 		.word	-2147337728
 524              		.cfi_endproc
 525              	.LFE6:
 526              		.size	CySysPmFreezeIo, .-CySysPmFreezeIo
 527              		.section	.text.CySysPmUnfreezeIo,"ax",%progbits
 528              		.align	2
 529              		.global	CySysPmUnfreezeIo
 530              		.code	16
 531              		.thumb_func
 532              		.type	CySysPmUnfreezeIo, %function
 533              	CySysPmUnfreezeIo:
 534              	.LFB7:
 383:.\Generated_Source\PSoC4/cyPm.c **** 
 384:.\Generated_Source\PSoC4/cyPm.c **** 
 385:.\Generated_Source\PSoC4/cyPm.c ****     /*******************************************************************************
 386:.\Generated_Source\PSoC4/cyPm.c ****     * Function Name: CySysPmUnfreezeIo
 387:.\Generated_Source\PSoC4/cyPm.c ****     ********************************************************************************
 388:.\Generated_Source\PSoC4/cyPm.c ****     *
 389:.\Generated_Source\PSoC4/cyPm.c ****     * Summary:
 390:.\Generated_Source\PSoC4/cyPm.c ****     *  The IO-Cells remain frozen after awake from Hibernate or Stop mode until
 391:.\Generated_Source\PSoC4/cyPm.c ****     *  the firmware unfreezes them after booting. The call of this function
 392:.\Generated_Source\PSoC4/cyPm.c ****     *  unfreezes IO-Cells explicitly.
 393:.\Generated_Source\PSoC4/cyPm.c ****     *
 394:.\Generated_Source\PSoC4/cyPm.c ****     * Parameters:
 395:.\Generated_Source\PSoC4/cyPm.c ****     *  None
 396:.\Generated_Source\PSoC4/cyPm.c ****     *
 397:.\Generated_Source\PSoC4/cyPm.c ****     * Return:
 398:.\Generated_Source\PSoC4/cyPm.c ****     *  None
 399:.\Generated_Source\PSoC4/cyPm.c ****     *
 400:.\Generated_Source\PSoC4/cyPm.c ****     *******************************************************************************/
 401:.\Generated_Source\PSoC4/cyPm.c ****     void CySysPmUnfreezeIo(void)
 402:.\Generated_Source\PSoC4/cyPm.c ****     {
 535              		.loc 1 402 0
 536              		.cfi_startproc
 537 0000 90B5     		push	{r4, r7, lr}
 538              		.cfi_def_cfa_offset 12
 539              		.cfi_offset 4, -12
 540              		.cfi_offset 7, -8
 541              		.cfi_offset 14, -4
 542 0002 83B0     		sub	sp, sp, #12
 543              		.cfi_def_cfa_offset 24
 544 0004 00AF     		add	r7, sp, #0
 545              		.cfi_def_cfa_register 7
 403:.\Generated_Source\PSoC4/cyPm.c ****         uint8 interruptState;
 404:.\Generated_Source\PSoC4/cyPm.c **** 
 405:.\Generated_Source\PSoC4/cyPm.c ****         interruptState = CyEnterCriticalSection();
 546              		.loc 1 405 0
 547 0006 FC1D     		add	r4, r7, #7
 548 0008 FFF7FEFF 		bl	CyEnterCriticalSection
 549 000c 031C     		mov	r3, r0
 550 000e 2370     		strb	r3, [r4]
 406:.\Generated_Source\PSoC4/cyPm.c **** 
 407:.\Generated_Source\PSoC4/cyPm.c ****         /* Preserve last reset reason and wakeup polarity. Then, unfreeze I/O:
 408:.\Generated_Source\PSoC4/cyPm.c ****          * write PWR_STOP.FREEZE=0, .UNLOCK=0x3A, .STOP=0, .TOKEN
 409:.\Generated_Source\PSoC4/cyPm.c ****          */
 410:.\Generated_Source\PSoC4/cyPm.c ****         CY_PM_PWR_STOP_REG = CY_PM_PWR_STOP_UNLOCK |
ARM GAS  C:\DOCUME~1\Owner\LOCALS~1\Temp\ccNXVetc.s 			page 18


 551              		.loc 1 410 0
 552 0010 0D4B     		ldr	r3, .L32
 411:.\Generated_Source\PSoC4/cyPm.c ****                             (CY_PM_PWR_STOP_REG & (CY_PM_PWR_STOP_TOKEN_MASK | CY_PM_PWR_STOP_POLAR
 553              		.loc 1 411 0
 554 0012 0D4A     		ldr	r2, .L32
 555 0014 1168     		ldr	r1, [r2]
 556 0016 0D4A     		ldr	r2, .L32+4
 557 0018 0A40     		and	r2, r1
 410:.\Generated_Source\PSoC4/cyPm.c ****         CY_PM_PWR_STOP_REG = CY_PM_PWR_STOP_UNLOCK |
 558              		.loc 1 410 0
 559 001a E821     		mov	r1, #232
 560 001c 8901     		lsl	r1, r1, #6
 561 001e 0A43     		orr	r2, r1
 562 0020 1A60     		str	r2, [r3]
 412:.\Generated_Source\PSoC4/cyPm.c **** 
 413:.\Generated_Source\PSoC4/cyPm.c ****         /* If reading after writing, read this register three times to delay
 414:.\Generated_Source\PSoC4/cyPm.c ****         *  enough time for internal settling.
 415:.\Generated_Source\PSoC4/cyPm.c ****         */
 416:.\Generated_Source\PSoC4/cyPm.c ****         (void) CY_PM_PWR_STOP_REG;
 563              		.loc 1 416 0
 564 0022 094B     		ldr	r3, .L32
 565 0024 1B68     		ldr	r3, [r3]
 417:.\Generated_Source\PSoC4/cyPm.c ****         (void) CY_PM_PWR_STOP_REG;
 566              		.loc 1 417 0
 567 0026 084B     		ldr	r3, .L32
 568 0028 1B68     		ldr	r3, [r3]
 418:.\Generated_Source\PSoC4/cyPm.c **** 
 419:.\Generated_Source\PSoC4/cyPm.c ****         /* Lock STOP mode: write PWR_STOP.FREEZE=0, UNLOCK=0x00, STOP=0, .TOKEN */
 420:.\Generated_Source\PSoC4/cyPm.c ****         CY_PM_PWR_STOP_REG &= (CY_PM_PWR_STOP_TOKEN_MASK | CY_PM_PWR_STOP_POLARITY);
 569              		.loc 1 420 0
 570 002a 074B     		ldr	r3, .L32
 571 002c 064A     		ldr	r2, .L32
 572 002e 1168     		ldr	r1, [r2]
 573 0030 064A     		ldr	r2, .L32+4
 574 0032 0A40     		and	r2, r1
 575 0034 1A60     		str	r2, [r3]
 421:.\Generated_Source\PSoC4/cyPm.c **** 
 422:.\Generated_Source\PSoC4/cyPm.c ****         CyExitCriticalSection(interruptState);
 576              		.loc 1 422 0
 577 0036 FB1D     		add	r3, r7, #7
 578 0038 1B78     		ldrb	r3, [r3]
 579 003a 181C     		mov	r0, r3
 580 003c FFF7FEFF 		bl	CyExitCriticalSection
 423:.\Generated_Source\PSoC4/cyPm.c ****     }
 581              		.loc 1 423 0
 582 0040 BD46     		mov	sp, r7
 583 0042 03B0     		add	sp, sp, #12
 584              		@ sp needed
 585 0044 90BD     		pop	{r4, r7, pc}
 586              	.L33:
 587 0046 C046     		.align	2
 588              	.L32:
 589 0048 2C000B40 		.word	1074462764
 590 004c FF000100 		.word	65791
 591              		.cfi_endproc
 592              	.LFE7:
 593              		.size	CySysPmUnfreezeIo, .-CySysPmUnfreezeIo
ARM GAS  C:\DOCUME~1\Owner\LOCALS~1\Temp\ccNXVetc.s 			page 19


 594              		.text
 595              	.Letext0:
 596              		.file 2 ".\\Generated_Source\\PSoC4\\cytypes.h"