ARM GAS  C:\DOCUME~1\Owner\LOCALS~1\Temp\ccwmnyAP.s 			page 1


   1              		.cpu cortex-m0
   2              		.fpu softvfp
   3              		.eabi_attribute 20, 1
   4              		.eabi_attribute 21, 1
   5              		.eabi_attribute 23, 3
   6              		.eabi_attribute 24, 1
   7              		.eabi_attribute 25, 1
   8              		.eabi_attribute 26, 1
   9              		.eabi_attribute 30, 6
  10              		.eabi_attribute 34, 0
  11              		.eabi_attribute 18, 4
  12              		.code	16
  13              		.file	"I2COLED.c"
  14              		.text
  15              	.Ltext0:
  16              		.cfi_sections	.debug_frame
  17              		.global	I2COLED_initVar
  18              		.bss
  19              		.type	I2COLED_initVar, %object
  20              		.size	I2COLED_initVar, 1
  21              	I2COLED_initVar:
  22 0000 00       		.space	1
  23              		.global	I2COLED_customIntrHandler
  24 0001 000000   		.align	2
  25              		.type	I2COLED_customIntrHandler, %object
  26              		.size	I2COLED_customIntrHandler, 4
  27              	I2COLED_customIntrHandler:
  28 0004 00000000 		.space	4
  29              		.section	.text.I2COLED_Init,"ax",%progbits
  30              		.align	2
  31              		.global	I2COLED_Init
  32              		.code	16
  33              		.thumb_func
  34              		.type	I2COLED_Init, %function
  35              	I2COLED_Init:
  36              	.LFB0:
  37              		.file 1 ".\\Generated_Source\\PSoC4\\I2COLED.c"
   1:.\Generated_Source\PSoC4/I2COLED.c **** /*******************************************************************************
   2:.\Generated_Source\PSoC4/I2COLED.c **** * File Name: I2COLED.c
   3:.\Generated_Source\PSoC4/I2COLED.c **** * Version 2.0
   4:.\Generated_Source\PSoC4/I2COLED.c **** *
   5:.\Generated_Source\PSoC4/I2COLED.c **** * Description:
   6:.\Generated_Source\PSoC4/I2COLED.c **** *  This file provides the source code to the API for the SCB Component.
   7:.\Generated_Source\PSoC4/I2COLED.c **** *
   8:.\Generated_Source\PSoC4/I2COLED.c **** * Note:
   9:.\Generated_Source\PSoC4/I2COLED.c **** *
  10:.\Generated_Source\PSoC4/I2COLED.c **** *******************************************************************************
  11:.\Generated_Source\PSoC4/I2COLED.c **** * Copyright 2013-2014, Cypress Semiconductor Corporation.  All rights reserved.
  12:.\Generated_Source\PSoC4/I2COLED.c **** * You may use this file only in accordance with the license, terms, conditions,
  13:.\Generated_Source\PSoC4/I2COLED.c **** * disclaimers, and limitations in the end user license agreement accompanying
  14:.\Generated_Source\PSoC4/I2COLED.c **** * the software package with which this file was provided.
  15:.\Generated_Source\PSoC4/I2COLED.c **** *******************************************************************************/
  16:.\Generated_Source\PSoC4/I2COLED.c **** 
  17:.\Generated_Source\PSoC4/I2COLED.c **** #include "I2COLED_PVT.h"
  18:.\Generated_Source\PSoC4/I2COLED.c **** 
  19:.\Generated_Source\PSoC4/I2COLED.c **** #if(I2COLED_SCB_MODE_I2C_INC)
  20:.\Generated_Source\PSoC4/I2COLED.c ****     #include "I2COLED_I2C_PVT.h"
ARM GAS  C:\DOCUME~1\Owner\LOCALS~1\Temp\ccwmnyAP.s 			page 2


  21:.\Generated_Source\PSoC4/I2COLED.c **** #endif /* (I2COLED_SCB_MODE_I2C_INC) */
  22:.\Generated_Source\PSoC4/I2COLED.c **** 
  23:.\Generated_Source\PSoC4/I2COLED.c **** #if(I2COLED_SCB_MODE_EZI2C_INC)
  24:.\Generated_Source\PSoC4/I2COLED.c ****     #include "I2COLED_EZI2C_PVT.h"
  25:.\Generated_Source\PSoC4/I2COLED.c **** #endif /* (I2COLED_SCB_MODE_EZI2C_INC) */
  26:.\Generated_Source\PSoC4/I2COLED.c **** 
  27:.\Generated_Source\PSoC4/I2COLED.c **** #if(I2COLED_SCB_MODE_SPI_INC || I2COLED_SCB_MODE_UART_INC)
  28:.\Generated_Source\PSoC4/I2COLED.c ****     #include "I2COLED_SPI_UART_PVT.h"
  29:.\Generated_Source\PSoC4/I2COLED.c **** #endif /* (I2COLED_SCB_MODE_SPI_INC || I2COLED_SCB_MODE_UART_INC) */
  30:.\Generated_Source\PSoC4/I2COLED.c **** 
  31:.\Generated_Source\PSoC4/I2COLED.c **** 
  32:.\Generated_Source\PSoC4/I2COLED.c **** /***************************************
  33:.\Generated_Source\PSoC4/I2COLED.c **** *    Run Time Configuration Vars
  34:.\Generated_Source\PSoC4/I2COLED.c **** ***************************************/
  35:.\Generated_Source\PSoC4/I2COLED.c **** 
  36:.\Generated_Source\PSoC4/I2COLED.c **** /* Stores internal component configuration for Unconfigured mode */
  37:.\Generated_Source\PSoC4/I2COLED.c **** #if(I2COLED_SCB_MODE_UNCONFIG_CONST_CFG)
  38:.\Generated_Source\PSoC4/I2COLED.c ****     /* Common configuration variables */
  39:.\Generated_Source\PSoC4/I2COLED.c ****     uint8 I2COLED_scbMode = I2COLED_SCB_MODE_UNCONFIG;
  40:.\Generated_Source\PSoC4/I2COLED.c ****     uint8 I2COLED_scbEnableWake;
  41:.\Generated_Source\PSoC4/I2COLED.c ****     uint8 I2COLED_scbEnableIntr;
  42:.\Generated_Source\PSoC4/I2COLED.c **** 
  43:.\Generated_Source\PSoC4/I2COLED.c ****     /* I2C configuration variables */
  44:.\Generated_Source\PSoC4/I2COLED.c ****     uint8 I2COLED_mode;
  45:.\Generated_Source\PSoC4/I2COLED.c ****     uint8 I2COLED_acceptAddr;
  46:.\Generated_Source\PSoC4/I2COLED.c **** 
  47:.\Generated_Source\PSoC4/I2COLED.c ****     /* SPI/UART configuration variables */
  48:.\Generated_Source\PSoC4/I2COLED.c ****     volatile uint8 * I2COLED_rxBuffer;
  49:.\Generated_Source\PSoC4/I2COLED.c ****     uint8  I2COLED_rxDataBits;
  50:.\Generated_Source\PSoC4/I2COLED.c ****     uint32 I2COLED_rxBufferSize;
  51:.\Generated_Source\PSoC4/I2COLED.c **** 
  52:.\Generated_Source\PSoC4/I2COLED.c ****     volatile uint8 * I2COLED_txBuffer;
  53:.\Generated_Source\PSoC4/I2COLED.c ****     uint8  I2COLED_txDataBits;
  54:.\Generated_Source\PSoC4/I2COLED.c ****     uint32 I2COLED_txBufferSize;
  55:.\Generated_Source\PSoC4/I2COLED.c **** 
  56:.\Generated_Source\PSoC4/I2COLED.c ****     /* EZI2C configuration variables */
  57:.\Generated_Source\PSoC4/I2COLED.c ****     uint8 I2COLED_numberOfAddr;
  58:.\Generated_Source\PSoC4/I2COLED.c ****     uint8 I2COLED_subAddrSize;
  59:.\Generated_Source\PSoC4/I2COLED.c **** #endif /* (I2COLED_SCB_MODE_UNCONFIG_CONST_CFG) */
  60:.\Generated_Source\PSoC4/I2COLED.c **** 
  61:.\Generated_Source\PSoC4/I2COLED.c **** 
  62:.\Generated_Source\PSoC4/I2COLED.c **** /***************************************
  63:.\Generated_Source\PSoC4/I2COLED.c **** *     Common SCB Vars
  64:.\Generated_Source\PSoC4/I2COLED.c **** ***************************************/
  65:.\Generated_Source\PSoC4/I2COLED.c **** 
  66:.\Generated_Source\PSoC4/I2COLED.c **** uint8 I2COLED_initVar = 0u;
  67:.\Generated_Source\PSoC4/I2COLED.c **** 
  68:.\Generated_Source\PSoC4/I2COLED.c **** #if !defined (CY_REMOVE_I2COLED_CUSTOM_INTR_HANDLER)
  69:.\Generated_Source\PSoC4/I2COLED.c ****     cyisraddress I2COLED_customIntrHandler = NULL;
  70:.\Generated_Source\PSoC4/I2COLED.c **** #endif /* !defined (CY_REMOVE_I2COLED_CUSTOM_INTR_HANDLER) */
  71:.\Generated_Source\PSoC4/I2COLED.c **** 
  72:.\Generated_Source\PSoC4/I2COLED.c **** 
  73:.\Generated_Source\PSoC4/I2COLED.c **** /***************************************
  74:.\Generated_Source\PSoC4/I2COLED.c **** *    Private Function Prototypes
  75:.\Generated_Source\PSoC4/I2COLED.c **** ***************************************/
  76:.\Generated_Source\PSoC4/I2COLED.c **** 
  77:.\Generated_Source\PSoC4/I2COLED.c **** static void I2COLED_ScbEnableIntr(void);
ARM GAS  C:\DOCUME~1\Owner\LOCALS~1\Temp\ccwmnyAP.s 			page 3


  78:.\Generated_Source\PSoC4/I2COLED.c **** static void I2COLED_ScbModeStop(void);
  79:.\Generated_Source\PSoC4/I2COLED.c **** 
  80:.\Generated_Source\PSoC4/I2COLED.c **** 
  81:.\Generated_Source\PSoC4/I2COLED.c **** /*******************************************************************************
  82:.\Generated_Source\PSoC4/I2COLED.c **** * Function Name: I2COLED_Init
  83:.\Generated_Source\PSoC4/I2COLED.c **** ********************************************************************************
  84:.\Generated_Source\PSoC4/I2COLED.c **** *
  85:.\Generated_Source\PSoC4/I2COLED.c **** * Summary:
  86:.\Generated_Source\PSoC4/I2COLED.c **** *  Initializes the SCB component to operate in one of the selected
  87:.\Generated_Source\PSoC4/I2COLED.c **** *  configurations: I2C, SPI, UART or EZI2C.
  88:.\Generated_Source\PSoC4/I2COLED.c **** *  When the configuration is set to "Unconfigured SCB", this function does
  89:.\Generated_Source\PSoC4/I2COLED.c **** *  not do any initialization. Use mode-specific initialization APIs instead:
  90:.\Generated_Source\PSoC4/I2COLED.c **** *  SCB_I2CInit, SCB_SpiInit, SCB_UartInit or SCB_EzI2CInit.
  91:.\Generated_Source\PSoC4/I2COLED.c **** *
  92:.\Generated_Source\PSoC4/I2COLED.c **** * Parameters:
  93:.\Generated_Source\PSoC4/I2COLED.c **** *  None
  94:.\Generated_Source\PSoC4/I2COLED.c **** *
  95:.\Generated_Source\PSoC4/I2COLED.c **** * Return:
  96:.\Generated_Source\PSoC4/I2COLED.c **** *  None
  97:.\Generated_Source\PSoC4/I2COLED.c **** *
  98:.\Generated_Source\PSoC4/I2COLED.c **** *******************************************************************************/
  99:.\Generated_Source\PSoC4/I2COLED.c **** void I2COLED_Init(void)
 100:.\Generated_Source\PSoC4/I2COLED.c **** {
  38              		.loc 1 100 0
  39              		.cfi_startproc
  40 0000 80B5     		push	{r7, lr}
  41              		.cfi_def_cfa_offset 8
  42              		.cfi_offset 7, -8
  43              		.cfi_offset 14, -4
  44 0002 00AF     		add	r7, sp, #0
  45              		.cfi_def_cfa_register 7
 101:.\Generated_Source\PSoC4/I2COLED.c **** #if(I2COLED_SCB_MODE_UNCONFIG_CONST_CFG)
 102:.\Generated_Source\PSoC4/I2COLED.c ****     if(I2COLED_SCB_MODE_UNCONFIG_RUNTM_CFG)
 103:.\Generated_Source\PSoC4/I2COLED.c ****     {
 104:.\Generated_Source\PSoC4/I2COLED.c ****         I2COLED_initVar = 0u;
 105:.\Generated_Source\PSoC4/I2COLED.c ****     }
 106:.\Generated_Source\PSoC4/I2COLED.c ****     else
 107:.\Generated_Source\PSoC4/I2COLED.c ****     {
 108:.\Generated_Source\PSoC4/I2COLED.c ****         /* Initialization was done before this function call */
 109:.\Generated_Source\PSoC4/I2COLED.c ****     }
 110:.\Generated_Source\PSoC4/I2COLED.c **** 
 111:.\Generated_Source\PSoC4/I2COLED.c **** #elif(I2COLED_SCB_MODE_I2C_CONST_CFG)
 112:.\Generated_Source\PSoC4/I2COLED.c ****     I2COLED_I2CInit();
  46              		.loc 1 112 0
  47 0004 FFF7FEFF 		bl	I2COLED_I2CInit
 113:.\Generated_Source\PSoC4/I2COLED.c **** 
 114:.\Generated_Source\PSoC4/I2COLED.c **** #elif(I2COLED_SCB_MODE_SPI_CONST_CFG)
 115:.\Generated_Source\PSoC4/I2COLED.c ****     I2COLED_SpiInit();
 116:.\Generated_Source\PSoC4/I2COLED.c **** 
 117:.\Generated_Source\PSoC4/I2COLED.c **** #elif(I2COLED_SCB_MODE_UART_CONST_CFG)
 118:.\Generated_Source\PSoC4/I2COLED.c ****     I2COLED_UartInit();
 119:.\Generated_Source\PSoC4/I2COLED.c **** 
 120:.\Generated_Source\PSoC4/I2COLED.c **** #elif(I2COLED_SCB_MODE_EZI2C_CONST_CFG)
 121:.\Generated_Source\PSoC4/I2COLED.c ****     I2COLED_EzI2CInit();
 122:.\Generated_Source\PSoC4/I2COLED.c **** 
 123:.\Generated_Source\PSoC4/I2COLED.c **** #endif /* (I2COLED_SCB_MODE_UNCONFIG_CONST_CFG) */
 124:.\Generated_Source\PSoC4/I2COLED.c **** }
ARM GAS  C:\DOCUME~1\Owner\LOCALS~1\Temp\ccwmnyAP.s 			page 4


  48              		.loc 1 124 0
  49 0008 BD46     		mov	sp, r7
  50              		@ sp needed
  51 000a 80BD     		pop	{r7, pc}
  52              		.cfi_endproc
  53              	.LFE0:
  54              		.size	I2COLED_Init, .-I2COLED_Init
  55              		.section	.text.I2COLED_Enable,"ax",%progbits
  56              		.align	2
  57              		.global	I2COLED_Enable
  58              		.code	16
  59              		.thumb_func
  60              		.type	I2COLED_Enable, %function
  61              	I2COLED_Enable:
  62              	.LFB1:
 125:.\Generated_Source\PSoC4/I2COLED.c **** 
 126:.\Generated_Source\PSoC4/I2COLED.c **** 
 127:.\Generated_Source\PSoC4/I2COLED.c **** /*******************************************************************************
 128:.\Generated_Source\PSoC4/I2COLED.c **** * Function Name: I2COLED_Enable
 129:.\Generated_Source\PSoC4/I2COLED.c **** ********************************************************************************
 130:.\Generated_Source\PSoC4/I2COLED.c **** *
 131:.\Generated_Source\PSoC4/I2COLED.c **** * Summary:
 132:.\Generated_Source\PSoC4/I2COLED.c **** *  Enables the SCB component operation.
 133:.\Generated_Source\PSoC4/I2COLED.c **** *  The SCB configuration should be not changed when the component is enabled.
 134:.\Generated_Source\PSoC4/I2COLED.c **** *  Any configuration changes should be made after disabling the component.
 135:.\Generated_Source\PSoC4/I2COLED.c **** *
 136:.\Generated_Source\PSoC4/I2COLED.c **** * Parameters:
 137:.\Generated_Source\PSoC4/I2COLED.c **** *  None
 138:.\Generated_Source\PSoC4/I2COLED.c **** *
 139:.\Generated_Source\PSoC4/I2COLED.c **** * Return:
 140:.\Generated_Source\PSoC4/I2COLED.c **** *  None
 141:.\Generated_Source\PSoC4/I2COLED.c **** *
 142:.\Generated_Source\PSoC4/I2COLED.c **** *******************************************************************************/
 143:.\Generated_Source\PSoC4/I2COLED.c **** void I2COLED_Enable(void)
 144:.\Generated_Source\PSoC4/I2COLED.c **** {
  63              		.loc 1 144 0
  64              		.cfi_startproc
  65 0000 80B5     		push	{r7, lr}
  66              		.cfi_def_cfa_offset 8
  67              		.cfi_offset 7, -8
  68              		.cfi_offset 14, -4
  69 0002 00AF     		add	r7, sp, #0
  70              		.cfi_def_cfa_register 7
 145:.\Generated_Source\PSoC4/I2COLED.c **** #if(I2COLED_SCB_MODE_UNCONFIG_CONST_CFG)
 146:.\Generated_Source\PSoC4/I2COLED.c ****     /* Enable SCB block, only if it is already configured */
 147:.\Generated_Source\PSoC4/I2COLED.c ****     if(!I2COLED_SCB_MODE_UNCONFIG_RUNTM_CFG)
 148:.\Generated_Source\PSoC4/I2COLED.c ****     {
 149:.\Generated_Source\PSoC4/I2COLED.c ****         I2COLED_CTRL_REG |= I2COLED_CTRL_ENABLED;
 150:.\Generated_Source\PSoC4/I2COLED.c **** 
 151:.\Generated_Source\PSoC4/I2COLED.c ****         I2COLED_ScbEnableIntr();
 152:.\Generated_Source\PSoC4/I2COLED.c ****     }
 153:.\Generated_Source\PSoC4/I2COLED.c **** #else
 154:.\Generated_Source\PSoC4/I2COLED.c ****     I2COLED_CTRL_REG |= I2COLED_CTRL_ENABLED;
  71              		.loc 1 154 0
  72 0004 054B     		ldr	r3, .L3
  73 0006 054A     		ldr	r2, .L3
  74 0008 1268     		ldr	r2, [r2]
ARM GAS  C:\DOCUME~1\Owner\LOCALS~1\Temp\ccwmnyAP.s 			page 5


  75 000a 8021     		mov	r1, #128
  76 000c 0906     		lsl	r1, r1, #24
  77 000e 0A43     		orr	r2, r1
  78 0010 1A60     		str	r2, [r3]
 155:.\Generated_Source\PSoC4/I2COLED.c **** 
 156:.\Generated_Source\PSoC4/I2COLED.c ****     I2COLED_ScbEnableIntr();
  79              		.loc 1 156 0
  80 0012 FFF7FEFF 		bl	I2COLED_ScbEnableIntr
 157:.\Generated_Source\PSoC4/I2COLED.c **** #endif /* (I2COLED_SCB_MODE_UNCONFIG_CONST_CFG) */
 158:.\Generated_Source\PSoC4/I2COLED.c **** }
  81              		.loc 1 158 0
  82 0016 BD46     		mov	sp, r7
  83              		@ sp needed
  84 0018 80BD     		pop	{r7, pc}
  85              	.L4:
  86 001a C046     		.align	2
  87              	.L3:
  88 001c 00000740 		.word	1074200576
  89              		.cfi_endproc
  90              	.LFE1:
  91              		.size	I2COLED_Enable, .-I2COLED_Enable
  92              		.section	.text.I2COLED_Start,"ax",%progbits
  93              		.align	2
  94              		.global	I2COLED_Start
  95              		.code	16
  96              		.thumb_func
  97              		.type	I2COLED_Start, %function
  98              	I2COLED_Start:
  99              	.LFB2:
 159:.\Generated_Source\PSoC4/I2COLED.c **** 
 160:.\Generated_Source\PSoC4/I2COLED.c **** 
 161:.\Generated_Source\PSoC4/I2COLED.c **** /*******************************************************************************
 162:.\Generated_Source\PSoC4/I2COLED.c **** * Function Name: I2COLED_Start
 163:.\Generated_Source\PSoC4/I2COLED.c **** ********************************************************************************
 164:.\Generated_Source\PSoC4/I2COLED.c **** *
 165:.\Generated_Source\PSoC4/I2COLED.c **** * Summary:
 166:.\Generated_Source\PSoC4/I2COLED.c **** *  Invokes SCB_Init() and SCB_Enable().
 167:.\Generated_Source\PSoC4/I2COLED.c **** *  After this function call, the component is enabled and ready for operation.
 168:.\Generated_Source\PSoC4/I2COLED.c **** *  When configuration is set to "Unconfigured SCB", the component must first be
 169:.\Generated_Source\PSoC4/I2COLED.c **** *  initialized to operate in one of the following configurations: I2C, SPI, UART
 170:.\Generated_Source\PSoC4/I2COLED.c **** *  or EZ I2C. Otherwise this function does not enable the component.
 171:.\Generated_Source\PSoC4/I2COLED.c **** *
 172:.\Generated_Source\PSoC4/I2COLED.c **** * Parameters:
 173:.\Generated_Source\PSoC4/I2COLED.c **** *  None
 174:.\Generated_Source\PSoC4/I2COLED.c **** *
 175:.\Generated_Source\PSoC4/I2COLED.c **** * Return:
 176:.\Generated_Source\PSoC4/I2COLED.c **** *  None
 177:.\Generated_Source\PSoC4/I2COLED.c **** *
 178:.\Generated_Source\PSoC4/I2COLED.c **** * Global variables:
 179:.\Generated_Source\PSoC4/I2COLED.c **** *  I2COLED_initVar - used to check initial configuration, modified
 180:.\Generated_Source\PSoC4/I2COLED.c **** *  on first function call.
 181:.\Generated_Source\PSoC4/I2COLED.c **** *
 182:.\Generated_Source\PSoC4/I2COLED.c **** *******************************************************************************/
 183:.\Generated_Source\PSoC4/I2COLED.c **** void I2COLED_Start(void)
 184:.\Generated_Source\PSoC4/I2COLED.c **** {
 100              		.loc 1 184 0
 101              		.cfi_startproc
ARM GAS  C:\DOCUME~1\Owner\LOCALS~1\Temp\ccwmnyAP.s 			page 6


 102 0000 80B5     		push	{r7, lr}
 103              		.cfi_def_cfa_offset 8
 104              		.cfi_offset 7, -8
 105              		.cfi_offset 14, -4
 106 0002 00AF     		add	r7, sp, #0
 107              		.cfi_def_cfa_register 7
 185:.\Generated_Source\PSoC4/I2COLED.c ****     if(0u == I2COLED_initVar)
 108              		.loc 1 185 0
 109 0004 064B     		ldr	r3, .L7
 110 0006 1B78     		ldrb	r3, [r3]
 111 0008 002B     		cmp	r3, #0
 112 000a 04D1     		bne	.L6
 186:.\Generated_Source\PSoC4/I2COLED.c ****     {
 187:.\Generated_Source\PSoC4/I2COLED.c ****         I2COLED_Init();
 113              		.loc 1 187 0
 114 000c FFF7FEFF 		bl	I2COLED_Init
 188:.\Generated_Source\PSoC4/I2COLED.c ****         I2COLED_initVar = 1u; /* Component was initialized */
 115              		.loc 1 188 0
 116 0010 034B     		ldr	r3, .L7
 117 0012 0122     		mov	r2, #1
 118 0014 1A70     		strb	r2, [r3]
 119              	.L6:
 189:.\Generated_Source\PSoC4/I2COLED.c ****     }
 190:.\Generated_Source\PSoC4/I2COLED.c **** 
 191:.\Generated_Source\PSoC4/I2COLED.c ****     I2COLED_Enable();
 120              		.loc 1 191 0
 121 0016 FFF7FEFF 		bl	I2COLED_Enable
 192:.\Generated_Source\PSoC4/I2COLED.c **** }
 122              		.loc 1 192 0
 123 001a BD46     		mov	sp, r7
 124              		@ sp needed
 125 001c 80BD     		pop	{r7, pc}
 126              	.L8:
 127 001e C046     		.align	2
 128              	.L7:
 129 0020 00000000 		.word	I2COLED_initVar
 130              		.cfi_endproc
 131              	.LFE2:
 132              		.size	I2COLED_Start, .-I2COLED_Start
 133              		.section	.text.I2COLED_Stop,"ax",%progbits
 134              		.align	2
 135              		.global	I2COLED_Stop
 136              		.code	16
 137              		.thumb_func
 138              		.type	I2COLED_Stop, %function
 139              	I2COLED_Stop:
 140              	.LFB3:
 193:.\Generated_Source\PSoC4/I2COLED.c **** 
 194:.\Generated_Source\PSoC4/I2COLED.c **** 
 195:.\Generated_Source\PSoC4/I2COLED.c **** /*******************************************************************************
 196:.\Generated_Source\PSoC4/I2COLED.c **** * Function Name: I2COLED_Stop
 197:.\Generated_Source\PSoC4/I2COLED.c **** ********************************************************************************
 198:.\Generated_Source\PSoC4/I2COLED.c **** *
 199:.\Generated_Source\PSoC4/I2COLED.c **** * Summary:
 200:.\Generated_Source\PSoC4/I2COLED.c **** *  Disables the SCB component and its interrupt.
 201:.\Generated_Source\PSoC4/I2COLED.c **** *
 202:.\Generated_Source\PSoC4/I2COLED.c **** * Parameters:
ARM GAS  C:\DOCUME~1\Owner\LOCALS~1\Temp\ccwmnyAP.s 			page 7


 203:.\Generated_Source\PSoC4/I2COLED.c **** *  None
 204:.\Generated_Source\PSoC4/I2COLED.c **** *
 205:.\Generated_Source\PSoC4/I2COLED.c **** * Return:
 206:.\Generated_Source\PSoC4/I2COLED.c **** *  None
 207:.\Generated_Source\PSoC4/I2COLED.c **** *
 208:.\Generated_Source\PSoC4/I2COLED.c **** *******************************************************************************/
 209:.\Generated_Source\PSoC4/I2COLED.c **** void I2COLED_Stop(void)
 210:.\Generated_Source\PSoC4/I2COLED.c **** {
 141              		.loc 1 210 0
 142              		.cfi_startproc
 143 0000 80B5     		push	{r7, lr}
 144              		.cfi_def_cfa_offset 8
 145              		.cfi_offset 7, -8
 146              		.cfi_offset 14, -4
 147 0002 00AF     		add	r7, sp, #0
 148              		.cfi_def_cfa_register 7
 211:.\Generated_Source\PSoC4/I2COLED.c **** #if(I2COLED_SCB_IRQ_INTERNAL)
 212:.\Generated_Source\PSoC4/I2COLED.c ****     I2COLED_DisableInt();
 149              		.loc 1 212 0
 150 0004 0B20     		mov	r0, #11
 151 0006 FFF7FEFF 		bl	CyIntDisable
 213:.\Generated_Source\PSoC4/I2COLED.c **** #endif /* (I2COLED_SCB_IRQ_INTERNAL) */
 214:.\Generated_Source\PSoC4/I2COLED.c **** 
 215:.\Generated_Source\PSoC4/I2COLED.c ****     I2COLED_CTRL_REG &= (uint32) ~I2COLED_CTRL_ENABLED;  /* Disable scb IP */
 152              		.loc 1 215 0
 153 000a 064B     		ldr	r3, .L10
 154 000c 054A     		ldr	r2, .L10
 155 000e 1268     		ldr	r2, [r2]
 156 0010 5200     		lsl	r2, r2, #1
 157 0012 5208     		lsr	r2, r2, #1
 158 0014 1A60     		str	r2, [r3]
 216:.\Generated_Source\PSoC4/I2COLED.c **** 
 217:.\Generated_Source\PSoC4/I2COLED.c **** #if(I2COLED_SCB_IRQ_INTERNAL)
 218:.\Generated_Source\PSoC4/I2COLED.c ****     I2COLED_ClearPendingInt();
 159              		.loc 1 218 0
 160 0016 0B20     		mov	r0, #11
 161 0018 FFF7FEFF 		bl	CyIntClearPending
 219:.\Generated_Source\PSoC4/I2COLED.c **** #endif /* (I2COLED_SCB_IRQ_INTERNAL) */
 220:.\Generated_Source\PSoC4/I2COLED.c **** 
 221:.\Generated_Source\PSoC4/I2COLED.c ****     I2COLED_ScbModeStop(); /* Calls scbMode specific Stop function */
 162              		.loc 1 221 0
 163 001c FFF7FEFF 		bl	I2COLED_ScbModeStop
 222:.\Generated_Source\PSoC4/I2COLED.c **** }
 164              		.loc 1 222 0
 165 0020 BD46     		mov	sp, r7
 166              		@ sp needed
 167 0022 80BD     		pop	{r7, pc}
 168              	.L11:
 169              		.align	2
 170              	.L10:
 171 0024 00000740 		.word	1074200576
 172              		.cfi_endproc
 173              	.LFE3:
 174              		.size	I2COLED_Stop, .-I2COLED_Stop
 175              		.section	.text.I2COLED_SetRxFifoLevel,"ax",%progbits
 176              		.align	2
 177              		.global	I2COLED_SetRxFifoLevel
ARM GAS  C:\DOCUME~1\Owner\LOCALS~1\Temp\ccwmnyAP.s 			page 8


 178              		.code	16
 179              		.thumb_func
 180              		.type	I2COLED_SetRxFifoLevel, %function
 181              	I2COLED_SetRxFifoLevel:
 182              	.LFB4:
 223:.\Generated_Source\PSoC4/I2COLED.c **** 
 224:.\Generated_Source\PSoC4/I2COLED.c **** 
 225:.\Generated_Source\PSoC4/I2COLED.c **** /*******************************************************************************
 226:.\Generated_Source\PSoC4/I2COLED.c **** * Function Name: I2COLED_SetRxFifoLevel
 227:.\Generated_Source\PSoC4/I2COLED.c **** ********************************************************************************
 228:.\Generated_Source\PSoC4/I2COLED.c **** *
 229:.\Generated_Source\PSoC4/I2COLED.c **** * Summary:
 230:.\Generated_Source\PSoC4/I2COLED.c **** *  Sets level in the RX FIFO to generate a RX level interrupt.
 231:.\Generated_Source\PSoC4/I2COLED.c **** *  When the RX FIFO has more entries than the RX FIFO level an RX level
 232:.\Generated_Source\PSoC4/I2COLED.c **** *  interrupt request is generated.
 233:.\Generated_Source\PSoC4/I2COLED.c **** *
 234:.\Generated_Source\PSoC4/I2COLED.c **** * Parameters:
 235:.\Generated_Source\PSoC4/I2COLED.c **** *  level: Level in the RX FIFO to generate RX level interrupt.
 236:.\Generated_Source\PSoC4/I2COLED.c **** *         The range of valid level values is between 0 and RX FIFO depth - 1.
 237:.\Generated_Source\PSoC4/I2COLED.c **** *
 238:.\Generated_Source\PSoC4/I2COLED.c **** * Return:
 239:.\Generated_Source\PSoC4/I2COLED.c **** *  None
 240:.\Generated_Source\PSoC4/I2COLED.c **** *
 241:.\Generated_Source\PSoC4/I2COLED.c **** *******************************************************************************/
 242:.\Generated_Source\PSoC4/I2COLED.c **** void I2COLED_SetRxFifoLevel(uint32 level)
 243:.\Generated_Source\PSoC4/I2COLED.c **** {
 183              		.loc 1 243 0
 184              		.cfi_startproc
 185 0000 80B5     		push	{r7, lr}
 186              		.cfi_def_cfa_offset 8
 187              		.cfi_offset 7, -8
 188              		.cfi_offset 14, -4
 189 0002 84B0     		sub	sp, sp, #16
 190              		.cfi_def_cfa_offset 24
 191 0004 00AF     		add	r7, sp, #0
 192              		.cfi_def_cfa_register 7
 193 0006 7860     		str	r0, [r7, #4]
 244:.\Generated_Source\PSoC4/I2COLED.c ****     uint32 rxFifoCtrl;
 245:.\Generated_Source\PSoC4/I2COLED.c **** 
 246:.\Generated_Source\PSoC4/I2COLED.c ****     rxFifoCtrl = I2COLED_RX_FIFO_CTRL_REG;
 194              		.loc 1 246 0
 195 0008 094B     		ldr	r3, .L13
 196 000a 1B68     		ldr	r3, [r3]
 197 000c FB60     		str	r3, [r7, #12]
 247:.\Generated_Source\PSoC4/I2COLED.c **** 
 248:.\Generated_Source\PSoC4/I2COLED.c ****     rxFifoCtrl &= ((uint32) ~I2COLED_RX_FIFO_CTRL_TRIGGER_LEVEL_MASK); /* Clear level mask bits */
 198              		.loc 1 248 0
 199 000e FB68     		ldr	r3, [r7, #12]
 200 0010 0722     		mov	r2, #7
 201 0012 9343     		bic	r3, r2
 202 0014 FB60     		str	r3, [r7, #12]
 249:.\Generated_Source\PSoC4/I2COLED.c ****     rxFifoCtrl |= ((uint32) (I2COLED_RX_FIFO_CTRL_TRIGGER_LEVEL_MASK & level));
 203              		.loc 1 249 0
 204 0016 7A68     		ldr	r2, [r7, #4]
 205 0018 0723     		mov	r3, #7
 206 001a 1340     		and	r3, r2
 207 001c FA68     		ldr	r2, [r7, #12]
ARM GAS  C:\DOCUME~1\Owner\LOCALS~1\Temp\ccwmnyAP.s 			page 9


 208 001e 1343     		orr	r3, r2
 209 0020 FB60     		str	r3, [r7, #12]
 250:.\Generated_Source\PSoC4/I2COLED.c **** 
 251:.\Generated_Source\PSoC4/I2COLED.c ****     I2COLED_RX_FIFO_CTRL_REG = rxFifoCtrl;
 210              		.loc 1 251 0
 211 0022 034B     		ldr	r3, .L13
 212 0024 FA68     		ldr	r2, [r7, #12]
 213 0026 1A60     		str	r2, [r3]
 252:.\Generated_Source\PSoC4/I2COLED.c **** }
 214              		.loc 1 252 0
 215 0028 BD46     		mov	sp, r7
 216 002a 04B0     		add	sp, sp, #16
 217              		@ sp needed
 218 002c 80BD     		pop	{r7, pc}
 219              	.L14:
 220 002e C046     		.align	2
 221              	.L13:
 222 0030 04030740 		.word	1074201348
 223              		.cfi_endproc
 224              	.LFE4:
 225              		.size	I2COLED_SetRxFifoLevel, .-I2COLED_SetRxFifoLevel
 226              		.section	.text.I2COLED_SetTxFifoLevel,"ax",%progbits
 227              		.align	2
 228              		.global	I2COLED_SetTxFifoLevel
 229              		.code	16
 230              		.thumb_func
 231              		.type	I2COLED_SetTxFifoLevel, %function
 232              	I2COLED_SetTxFifoLevel:
 233              	.LFB5:
 253:.\Generated_Source\PSoC4/I2COLED.c **** 
 254:.\Generated_Source\PSoC4/I2COLED.c **** 
 255:.\Generated_Source\PSoC4/I2COLED.c **** /*******************************************************************************
 256:.\Generated_Source\PSoC4/I2COLED.c **** * Function Name: I2COLED_SetTxFifoLevel
 257:.\Generated_Source\PSoC4/I2COLED.c **** ********************************************************************************
 258:.\Generated_Source\PSoC4/I2COLED.c **** *
 259:.\Generated_Source\PSoC4/I2COLED.c **** * Summary:
 260:.\Generated_Source\PSoC4/I2COLED.c **** *  Sets level in the TX FIFO to generate a TX level interrupt.
 261:.\Generated_Source\PSoC4/I2COLED.c **** *  When the TX FIFO has more entries than the TX FIFO level an TX level
 262:.\Generated_Source\PSoC4/I2COLED.c **** *  interrupt request is generated.
 263:.\Generated_Source\PSoC4/I2COLED.c **** *
 264:.\Generated_Source\PSoC4/I2COLED.c **** * Parameters:
 265:.\Generated_Source\PSoC4/I2COLED.c **** *  level: Level in the TX FIFO to generate TX level interrupt.
 266:.\Generated_Source\PSoC4/I2COLED.c **** *         The range of valid level values is between 0 and TX FIFO depth - 1.
 267:.\Generated_Source\PSoC4/I2COLED.c **** *
 268:.\Generated_Source\PSoC4/I2COLED.c **** * Return:
 269:.\Generated_Source\PSoC4/I2COLED.c **** *  None
 270:.\Generated_Source\PSoC4/I2COLED.c **** *
 271:.\Generated_Source\PSoC4/I2COLED.c **** *******************************************************************************/
 272:.\Generated_Source\PSoC4/I2COLED.c **** void I2COLED_SetTxFifoLevel(uint32 level)
 273:.\Generated_Source\PSoC4/I2COLED.c **** {
 234              		.loc 1 273 0
 235              		.cfi_startproc
 236 0000 80B5     		push	{r7, lr}
 237              		.cfi_def_cfa_offset 8
 238              		.cfi_offset 7, -8
 239              		.cfi_offset 14, -4
 240 0002 84B0     		sub	sp, sp, #16
ARM GAS  C:\DOCUME~1\Owner\LOCALS~1\Temp\ccwmnyAP.s 			page 10


 241              		.cfi_def_cfa_offset 24
 242 0004 00AF     		add	r7, sp, #0
 243              		.cfi_def_cfa_register 7
 244 0006 7860     		str	r0, [r7, #4]
 274:.\Generated_Source\PSoC4/I2COLED.c ****     uint32 txFifoCtrl;
 275:.\Generated_Source\PSoC4/I2COLED.c **** 
 276:.\Generated_Source\PSoC4/I2COLED.c ****     txFifoCtrl = I2COLED_TX_FIFO_CTRL_REG;
 245              		.loc 1 276 0
 246 0008 094B     		ldr	r3, .L16
 247 000a 1B68     		ldr	r3, [r3]
 248 000c FB60     		str	r3, [r7, #12]
 277:.\Generated_Source\PSoC4/I2COLED.c **** 
 278:.\Generated_Source\PSoC4/I2COLED.c ****     txFifoCtrl &= ((uint32) ~I2COLED_TX_FIFO_CTRL_TRIGGER_LEVEL_MASK); /* Clear level mask bits */
 249              		.loc 1 278 0
 250 000e FB68     		ldr	r3, [r7, #12]
 251 0010 0722     		mov	r2, #7
 252 0012 9343     		bic	r3, r2
 253 0014 FB60     		str	r3, [r7, #12]
 279:.\Generated_Source\PSoC4/I2COLED.c ****     txFifoCtrl |= ((uint32) (I2COLED_TX_FIFO_CTRL_TRIGGER_LEVEL_MASK & level));
 254              		.loc 1 279 0
 255 0016 7A68     		ldr	r2, [r7, #4]
 256 0018 0723     		mov	r3, #7
 257 001a 1340     		and	r3, r2
 258 001c FA68     		ldr	r2, [r7, #12]
 259 001e 1343     		orr	r3, r2
 260 0020 FB60     		str	r3, [r7, #12]
 280:.\Generated_Source\PSoC4/I2COLED.c **** 
 281:.\Generated_Source\PSoC4/I2COLED.c ****     I2COLED_TX_FIFO_CTRL_REG = txFifoCtrl;
 261              		.loc 1 281 0
 262 0022 034B     		ldr	r3, .L16
 263 0024 FA68     		ldr	r2, [r7, #12]
 264 0026 1A60     		str	r2, [r3]
 282:.\Generated_Source\PSoC4/I2COLED.c **** }
 265              		.loc 1 282 0
 266 0028 BD46     		mov	sp, r7
 267 002a 04B0     		add	sp, sp, #16
 268              		@ sp needed
 269 002c 80BD     		pop	{r7, pc}
 270              	.L17:
 271 002e C046     		.align	2
 272              	.L16:
 273 0030 04020740 		.word	1074201092
 274              		.cfi_endproc
 275              	.LFE5:
 276              		.size	I2COLED_SetTxFifoLevel, .-I2COLED_SetTxFifoLevel
 277              		.section	.text.I2COLED_SetCustomInterruptHandler,"ax",%progbits
 278              		.align	2
 279              		.global	I2COLED_SetCustomInterruptHandler
 280              		.code	16
 281              		.thumb_func
 282              		.type	I2COLED_SetCustomInterruptHandler, %function
 283              	I2COLED_SetCustomInterruptHandler:
 284              	.LFB6:
 283:.\Generated_Source\PSoC4/I2COLED.c **** 
 284:.\Generated_Source\PSoC4/I2COLED.c **** 
 285:.\Generated_Source\PSoC4/I2COLED.c **** /*******************************************************************************
 286:.\Generated_Source\PSoC4/I2COLED.c **** * Function Name: I2COLED_SetCustomInterruptHandler
ARM GAS  C:\DOCUME~1\Owner\LOCALS~1\Temp\ccwmnyAP.s 			page 11


 287:.\Generated_Source\PSoC4/I2COLED.c **** ********************************************************************************
 288:.\Generated_Source\PSoC4/I2COLED.c **** *
 289:.\Generated_Source\PSoC4/I2COLED.c **** * Summary:
 290:.\Generated_Source\PSoC4/I2COLED.c **** *  Registers a function to be called by the internal interrupt handler.
 291:.\Generated_Source\PSoC4/I2COLED.c **** *  First the function that is registered is called, then the internal interrupt
 292:.\Generated_Source\PSoC4/I2COLED.c **** *  handler performs any operation such as software buffer management functions
 293:.\Generated_Source\PSoC4/I2COLED.c **** *  before the interrupt returns.  It is the user's responsibility not to break
 294:.\Generated_Source\PSoC4/I2COLED.c **** *  the software buffer operations. Only one custom handler is supported, which
 295:.\Generated_Source\PSoC4/I2COLED.c **** *  is the function provided by the most recent call.
 296:.\Generated_Source\PSoC4/I2COLED.c **** *  At the initialization time no custom handler is registered.
 297:.\Generated_Source\PSoC4/I2COLED.c **** *
 298:.\Generated_Source\PSoC4/I2COLED.c **** * Parameters:
 299:.\Generated_Source\PSoC4/I2COLED.c **** *  func: Pointer to the function to register.
 300:.\Generated_Source\PSoC4/I2COLED.c **** *        The value NULL indicates to remove the current custom interrupt
 301:.\Generated_Source\PSoC4/I2COLED.c **** *        handler.
 302:.\Generated_Source\PSoC4/I2COLED.c **** *
 303:.\Generated_Source\PSoC4/I2COLED.c **** * Return:
 304:.\Generated_Source\PSoC4/I2COLED.c **** *  None
 305:.\Generated_Source\PSoC4/I2COLED.c **** *
 306:.\Generated_Source\PSoC4/I2COLED.c **** *******************************************************************************/
 307:.\Generated_Source\PSoC4/I2COLED.c **** void I2COLED_SetCustomInterruptHandler(cyisraddress func)
 308:.\Generated_Source\PSoC4/I2COLED.c **** {
 285              		.loc 1 308 0
 286              		.cfi_startproc
 287 0000 80B5     		push	{r7, lr}
 288              		.cfi_def_cfa_offset 8
 289              		.cfi_offset 7, -8
 290              		.cfi_offset 14, -4
 291 0002 82B0     		sub	sp, sp, #8
 292              		.cfi_def_cfa_offset 16
 293 0004 00AF     		add	r7, sp, #0
 294              		.cfi_def_cfa_register 7
 295 0006 7860     		str	r0, [r7, #4]
 309:.\Generated_Source\PSoC4/I2COLED.c **** #if !defined (CY_REMOVE_I2COLED_CUSTOM_INTR_HANDLER)
 310:.\Generated_Source\PSoC4/I2COLED.c ****     I2COLED_customIntrHandler = func; /* Register interrupt handler */
 296              		.loc 1 310 0
 297 0008 024B     		ldr	r3, .L19
 298 000a 7A68     		ldr	r2, [r7, #4]
 299 000c 1A60     		str	r2, [r3]
 311:.\Generated_Source\PSoC4/I2COLED.c **** #else
 312:.\Generated_Source\PSoC4/I2COLED.c ****     if(NULL != func)
 313:.\Generated_Source\PSoC4/I2COLED.c ****     {
 314:.\Generated_Source\PSoC4/I2COLED.c ****         /* Suppress compiler warning */
 315:.\Generated_Source\PSoC4/I2COLED.c ****     }
 316:.\Generated_Source\PSoC4/I2COLED.c **** #endif /* !defined (CY_REMOVE_I2COLED_CUSTOM_INTR_HANDLER) */
 317:.\Generated_Source\PSoC4/I2COLED.c **** }
 300              		.loc 1 317 0
 301 000e BD46     		mov	sp, r7
 302 0010 02B0     		add	sp, sp, #8
 303              		@ sp needed
 304 0012 80BD     		pop	{r7, pc}
 305              	.L20:
 306              		.align	2
 307              	.L19:
 308 0014 00000000 		.word	I2COLED_customIntrHandler
 309              		.cfi_endproc
 310              	.LFE6:
ARM GAS  C:\DOCUME~1\Owner\LOCALS~1\Temp\ccwmnyAP.s 			page 12


 311              		.size	I2COLED_SetCustomInterruptHandler, .-I2COLED_SetCustomInterruptHandler
 312              		.section	.text.I2COLED_ScbEnableIntr,"ax",%progbits
 313              		.align	2
 314              		.code	16
 315              		.thumb_func
 316              		.type	I2COLED_ScbEnableIntr, %function
 317              	I2COLED_ScbEnableIntr:
 318              	.LFB7:
 318:.\Generated_Source\PSoC4/I2COLED.c **** 
 319:.\Generated_Source\PSoC4/I2COLED.c **** 
 320:.\Generated_Source\PSoC4/I2COLED.c **** /*******************************************************************************
 321:.\Generated_Source\PSoC4/I2COLED.c **** * Function Name: I2COLED_ScbModeEnableIntr
 322:.\Generated_Source\PSoC4/I2COLED.c **** ********************************************************************************
 323:.\Generated_Source\PSoC4/I2COLED.c **** *
 324:.\Generated_Source\PSoC4/I2COLED.c **** * Summary:
 325:.\Generated_Source\PSoC4/I2COLED.c **** *  Enables an interrupt for a specific mode.
 326:.\Generated_Source\PSoC4/I2COLED.c **** *
 327:.\Generated_Source\PSoC4/I2COLED.c **** * Parameters:
 328:.\Generated_Source\PSoC4/I2COLED.c **** *  None
 329:.\Generated_Source\PSoC4/I2COLED.c **** *
 330:.\Generated_Source\PSoC4/I2COLED.c **** * Return:
 331:.\Generated_Source\PSoC4/I2COLED.c **** *  None
 332:.\Generated_Source\PSoC4/I2COLED.c **** *
 333:.\Generated_Source\PSoC4/I2COLED.c **** *******************************************************************************/
 334:.\Generated_Source\PSoC4/I2COLED.c **** static void I2COLED_ScbEnableIntr(void)
 335:.\Generated_Source\PSoC4/I2COLED.c **** {
 319              		.loc 1 335 0
 320              		.cfi_startproc
 321 0000 80B5     		push	{r7, lr}
 322              		.cfi_def_cfa_offset 8
 323              		.cfi_offset 7, -8
 324              		.cfi_offset 14, -4
 325 0002 00AF     		add	r7, sp, #0
 326              		.cfi_def_cfa_register 7
 336:.\Generated_Source\PSoC4/I2COLED.c **** #if(I2COLED_SCB_IRQ_INTERNAL)
 337:.\Generated_Source\PSoC4/I2COLED.c ****     #if(I2COLED_SCB_MODE_UNCONFIG_CONST_CFG)
 338:.\Generated_Source\PSoC4/I2COLED.c ****         /* Enable interrupt in NVIC */
 339:.\Generated_Source\PSoC4/I2COLED.c ****         if(0u != I2COLED_scbEnableIntr)
 340:.\Generated_Source\PSoC4/I2COLED.c ****         {
 341:.\Generated_Source\PSoC4/I2COLED.c ****             I2COLED_EnableInt();
 342:.\Generated_Source\PSoC4/I2COLED.c ****         }
 343:.\Generated_Source\PSoC4/I2COLED.c ****     #else
 344:.\Generated_Source\PSoC4/I2COLED.c ****         I2COLED_EnableInt();
 327              		.loc 1 344 0
 328 0004 0B20     		mov	r0, #11
 329 0006 FFF7FEFF 		bl	CyIntEnable
 345:.\Generated_Source\PSoC4/I2COLED.c **** 
 346:.\Generated_Source\PSoC4/I2COLED.c ****     #endif /* (I2COLED_SCB_MODE_UNCONFIG_CONST_CFG) */
 347:.\Generated_Source\PSoC4/I2COLED.c **** #endif /* (I2COLED_SCB_IRQ_INTERNAL) */
 348:.\Generated_Source\PSoC4/I2COLED.c **** }
 330              		.loc 1 348 0
 331 000a BD46     		mov	sp, r7
 332              		@ sp needed
 333 000c 80BD     		pop	{r7, pc}
 334              		.cfi_endproc
 335              	.LFE7:
 336              		.size	I2COLED_ScbEnableIntr, .-I2COLED_ScbEnableIntr
ARM GAS  C:\DOCUME~1\Owner\LOCALS~1\Temp\ccwmnyAP.s 			page 13


 337              		.section	.text.I2COLED_ScbModeStop,"ax",%progbits
 338              		.align	2
 339              		.code	16
 340              		.thumb_func
 341              		.type	I2COLED_ScbModeStop, %function
 342              	I2COLED_ScbModeStop:
 343              	.LFB8:
 349:.\Generated_Source\PSoC4/I2COLED.c **** 
 350:.\Generated_Source\PSoC4/I2COLED.c **** 
 351:.\Generated_Source\PSoC4/I2COLED.c **** /*******************************************************************************
 352:.\Generated_Source\PSoC4/I2COLED.c **** * Function Name: I2COLED_ScbModeStop
 353:.\Generated_Source\PSoC4/I2COLED.c **** ********************************************************************************
 354:.\Generated_Source\PSoC4/I2COLED.c **** *
 355:.\Generated_Source\PSoC4/I2COLED.c **** * Summary:
 356:.\Generated_Source\PSoC4/I2COLED.c **** *  Calls the Stop function for a specific operation mode.
 357:.\Generated_Source\PSoC4/I2COLED.c **** *
 358:.\Generated_Source\PSoC4/I2COLED.c **** * Parameters:
 359:.\Generated_Source\PSoC4/I2COLED.c **** *  None
 360:.\Generated_Source\PSoC4/I2COLED.c **** *
 361:.\Generated_Source\PSoC4/I2COLED.c **** * Return:
 362:.\Generated_Source\PSoC4/I2COLED.c **** *  None
 363:.\Generated_Source\PSoC4/I2COLED.c **** *
 364:.\Generated_Source\PSoC4/I2COLED.c **** *******************************************************************************/
 365:.\Generated_Source\PSoC4/I2COLED.c **** static void I2COLED_ScbModeStop(void)
 366:.\Generated_Source\PSoC4/I2COLED.c **** {
 344              		.loc 1 366 0
 345              		.cfi_startproc
 346 0000 80B5     		push	{r7, lr}
 347              		.cfi_def_cfa_offset 8
 348              		.cfi_offset 7, -8
 349              		.cfi_offset 14, -4
 350 0002 00AF     		add	r7, sp, #0
 351              		.cfi_def_cfa_register 7
 367:.\Generated_Source\PSoC4/I2COLED.c **** #if(I2COLED_SCB_MODE_UNCONFIG_CONST_CFG)
 368:.\Generated_Source\PSoC4/I2COLED.c ****     if(I2COLED_SCB_MODE_I2C_RUNTM_CFG)
 369:.\Generated_Source\PSoC4/I2COLED.c ****     {
 370:.\Generated_Source\PSoC4/I2COLED.c ****         I2COLED_I2CStop();
 371:.\Generated_Source\PSoC4/I2COLED.c ****     }
 372:.\Generated_Source\PSoC4/I2COLED.c ****     else if (I2COLED_SCB_MODE_EZI2C_RUNTM_CFG)
 373:.\Generated_Source\PSoC4/I2COLED.c ****     {
 374:.\Generated_Source\PSoC4/I2COLED.c ****         I2COLED_EzI2CStop();
 375:.\Generated_Source\PSoC4/I2COLED.c ****     }
 376:.\Generated_Source\PSoC4/I2COLED.c **** #if (!I2COLED_CY_SCBIP_V1)
 377:.\Generated_Source\PSoC4/I2COLED.c ****     else if (I2COLED_SCB_MODE_UART_RUNTM_CFG)
 378:.\Generated_Source\PSoC4/I2COLED.c ****     {
 379:.\Generated_Source\PSoC4/I2COLED.c ****         I2COLED_UartStop();
 380:.\Generated_Source\PSoC4/I2COLED.c ****     }
 381:.\Generated_Source\PSoC4/I2COLED.c **** #endif /* (!I2COLED_CY_SCBIP_V1) */
 382:.\Generated_Source\PSoC4/I2COLED.c ****     else
 383:.\Generated_Source\PSoC4/I2COLED.c ****     {
 384:.\Generated_Source\PSoC4/I2COLED.c ****         /* Do nothing for other modes */
 385:.\Generated_Source\PSoC4/I2COLED.c ****     }
 386:.\Generated_Source\PSoC4/I2COLED.c **** #elif(I2COLED_SCB_MODE_I2C_CONST_CFG)
 387:.\Generated_Source\PSoC4/I2COLED.c ****     I2COLED_I2CStop();
 352              		.loc 1 387 0
 353 0004 FFF7FEFF 		bl	I2COLED_I2CStop
 388:.\Generated_Source\PSoC4/I2COLED.c **** 
ARM GAS  C:\DOCUME~1\Owner\LOCALS~1\Temp\ccwmnyAP.s 			page 14


 389:.\Generated_Source\PSoC4/I2COLED.c **** #elif(I2COLED_SCB_MODE_EZI2C_CONST_CFG)
 390:.\Generated_Source\PSoC4/I2COLED.c ****     I2COLED_EzI2CStop();
 391:.\Generated_Source\PSoC4/I2COLED.c **** 
 392:.\Generated_Source\PSoC4/I2COLED.c **** #elif(I2COLED_SCB_MODE_UART_CONST_CFG)
 393:.\Generated_Source\PSoC4/I2COLED.c ****     I2COLED_UartStop();
 394:.\Generated_Source\PSoC4/I2COLED.c **** 
 395:.\Generated_Source\PSoC4/I2COLED.c **** #endif /* (I2COLED_SCB_MODE_UNCONFIG_CONST_CFG) */
 396:.\Generated_Source\PSoC4/I2COLED.c **** }
 354              		.loc 1 396 0
 355 0008 BD46     		mov	sp, r7
 356              		@ sp needed
 357 000a 80BD     		pop	{r7, pc}
 358              		.cfi_endproc
 359              	.LFE8:
 360              		.size	I2COLED_ScbModeStop, .-I2COLED_ScbModeStop
 361              		.section	.text.I2COLED_I2CSlaveNackGeneration,"ax",%progbits
 362              		.align	2
 363              		.global	I2COLED_I2CSlaveNackGeneration
 364              		.code	16
 365              		.thumb_func
 366              		.type	I2COLED_I2CSlaveNackGeneration, %function
 367              	I2COLED_I2CSlaveNackGeneration:
 368              	.LFB9:
 397:.\Generated_Source\PSoC4/I2COLED.c **** 
 398:.\Generated_Source\PSoC4/I2COLED.c **** 
 399:.\Generated_Source\PSoC4/I2COLED.c **** #if(I2COLED_SCB_MODE_UNCONFIG_CONST_CFG)
 400:.\Generated_Source\PSoC4/I2COLED.c ****     /*******************************************************************************
 401:.\Generated_Source\PSoC4/I2COLED.c ****     * Function Name: I2COLED_SetPins
 402:.\Generated_Source\PSoC4/I2COLED.c ****     ********************************************************************************
 403:.\Generated_Source\PSoC4/I2COLED.c ****     *
 404:.\Generated_Source\PSoC4/I2COLED.c ****     * Summary:
 405:.\Generated_Source\PSoC4/I2COLED.c ****     *  Sets the pins settings accordingly to the selected operation mode.
 406:.\Generated_Source\PSoC4/I2COLED.c ****     *  Only available in the Unconfigured operation mode. The mode specific
 407:.\Generated_Source\PSoC4/I2COLED.c ****     *  initialization function calls it.
 408:.\Generated_Source\PSoC4/I2COLED.c ****     *  Pins configuration is set by PSoC Creator when a specific mode of operation
 409:.\Generated_Source\PSoC4/I2COLED.c ****     *  is selected in design time.
 410:.\Generated_Source\PSoC4/I2COLED.c ****     *
 411:.\Generated_Source\PSoC4/I2COLED.c ****     * Parameters:
 412:.\Generated_Source\PSoC4/I2COLED.c ****     *  mode:      Mode of SCB operation.
 413:.\Generated_Source\PSoC4/I2COLED.c ****     *  subMode:   Sub-mode of SCB operation. It is only required for SPI and UART
 414:.\Generated_Source\PSoC4/I2COLED.c ****     *             modes.
 415:.\Generated_Source\PSoC4/I2COLED.c ****     *  uartEnableMask: enables TX or RX direction and RTS and CTS signals.
 416:.\Generated_Source\PSoC4/I2COLED.c ****     *
 417:.\Generated_Source\PSoC4/I2COLED.c ****     * Return:
 418:.\Generated_Source\PSoC4/I2COLED.c ****     *  None
 419:.\Generated_Source\PSoC4/I2COLED.c ****     *
 420:.\Generated_Source\PSoC4/I2COLED.c ****     *******************************************************************************/
 421:.\Generated_Source\PSoC4/I2COLED.c ****     void I2COLED_SetPins(uint32 mode, uint32 subMode, uint32 uartEnableMask)
 422:.\Generated_Source\PSoC4/I2COLED.c ****     {
 423:.\Generated_Source\PSoC4/I2COLED.c ****         uint32 hsiomSel [I2COLED_SCB_PINS_NUMBER];
 424:.\Generated_Source\PSoC4/I2COLED.c ****         uint32 pinsDm   [I2COLED_SCB_PINS_NUMBER];
 425:.\Generated_Source\PSoC4/I2COLED.c **** 
 426:.\Generated_Source\PSoC4/I2COLED.c ****     #if (!I2COLED_CY_SCBIP_V1)
 427:.\Generated_Source\PSoC4/I2COLED.c ****         uint32 pinsInBuf = 0u;
 428:.\Generated_Source\PSoC4/I2COLED.c ****     #endif /* (!I2COLED_CY_SCBIP_V1) */
 429:.\Generated_Source\PSoC4/I2COLED.c **** 
 430:.\Generated_Source\PSoC4/I2COLED.c ****         uint32 i;
ARM GAS  C:\DOCUME~1\Owner\LOCALS~1\Temp\ccwmnyAP.s 			page 15


 431:.\Generated_Source\PSoC4/I2COLED.c **** 
 432:.\Generated_Source\PSoC4/I2COLED.c ****         /* Set default HSIOM to GPIO and Drive Mode to Analog Hi-Z */
 433:.\Generated_Source\PSoC4/I2COLED.c ****         for(i = 0u; i < I2COLED_SCB_PINS_NUMBER; i++)
 434:.\Generated_Source\PSoC4/I2COLED.c ****         {
 435:.\Generated_Source\PSoC4/I2COLED.c ****             hsiomSel[i]  = I2COLED_HSIOM_DEF_SEL;
 436:.\Generated_Source\PSoC4/I2COLED.c ****             pinsDm[i]    = I2COLED_PIN_DM_ALG_HIZ;
 437:.\Generated_Source\PSoC4/I2COLED.c ****         }
 438:.\Generated_Source\PSoC4/I2COLED.c **** 
 439:.\Generated_Source\PSoC4/I2COLED.c ****         if((I2COLED_SCB_MODE_I2C   == mode) ||
 440:.\Generated_Source\PSoC4/I2COLED.c ****            (I2COLED_SCB_MODE_EZI2C == mode))
 441:.\Generated_Source\PSoC4/I2COLED.c ****         {
 442:.\Generated_Source\PSoC4/I2COLED.c ****             hsiomSel[I2COLED_MOSI_SCL_RX_PIN_INDEX] = I2COLED_HSIOM_I2C_SEL;
 443:.\Generated_Source\PSoC4/I2COLED.c ****             hsiomSel[I2COLED_MISO_SDA_TX_PIN_INDEX] = I2COLED_HSIOM_I2C_SEL;
 444:.\Generated_Source\PSoC4/I2COLED.c **** 
 445:.\Generated_Source\PSoC4/I2COLED.c ****             pinsDm[I2COLED_MOSI_SCL_RX_PIN_INDEX] = I2COLED_PIN_DM_OD_LO;
 446:.\Generated_Source\PSoC4/I2COLED.c ****             pinsDm[I2COLED_MISO_SDA_TX_PIN_INDEX] = I2COLED_PIN_DM_OD_LO;
 447:.\Generated_Source\PSoC4/I2COLED.c ****         }
 448:.\Generated_Source\PSoC4/I2COLED.c ****     #if (!I2COLED_CY_SCBIP_V1)
 449:.\Generated_Source\PSoC4/I2COLED.c ****         else if(I2COLED_SCB_MODE_SPI == mode)
 450:.\Generated_Source\PSoC4/I2COLED.c ****         {
 451:.\Generated_Source\PSoC4/I2COLED.c ****             hsiomSel[I2COLED_MOSI_SCL_RX_PIN_INDEX] = I2COLED_HSIOM_SPI_SEL;
 452:.\Generated_Source\PSoC4/I2COLED.c ****             hsiomSel[I2COLED_MISO_SDA_TX_PIN_INDEX] = I2COLED_HSIOM_SPI_SEL;
 453:.\Generated_Source\PSoC4/I2COLED.c ****             hsiomSel[I2COLED_SCLK_PIN_INDEX]        = I2COLED_HSIOM_SPI_SEL;
 454:.\Generated_Source\PSoC4/I2COLED.c **** 
 455:.\Generated_Source\PSoC4/I2COLED.c ****             if(I2COLED_SPI_SLAVE == subMode)
 456:.\Generated_Source\PSoC4/I2COLED.c ****             {
 457:.\Generated_Source\PSoC4/I2COLED.c ****                 /* Slave */
 458:.\Generated_Source\PSoC4/I2COLED.c ****                 pinsDm[I2COLED_MOSI_SCL_RX_PIN_INDEX] = I2COLED_PIN_DM_DIG_HIZ;
 459:.\Generated_Source\PSoC4/I2COLED.c ****                 pinsDm[I2COLED_MISO_SDA_TX_PIN_INDEX] = I2COLED_PIN_DM_STRONG;
 460:.\Generated_Source\PSoC4/I2COLED.c ****                 pinsDm[I2COLED_SCLK_PIN_INDEX]        = I2COLED_PIN_DM_DIG_HIZ;
 461:.\Generated_Source\PSoC4/I2COLED.c **** 
 462:.\Generated_Source\PSoC4/I2COLED.c ****             #if(I2COLED_SS0_PIN)
 463:.\Generated_Source\PSoC4/I2COLED.c ****                 /* Only SS0 is valid choice for Slave */
 464:.\Generated_Source\PSoC4/I2COLED.c ****                 hsiomSel[I2COLED_SS0_PIN_INDEX] = I2COLED_HSIOM_SPI_SEL;
 465:.\Generated_Source\PSoC4/I2COLED.c ****                 pinsDm  [I2COLED_SS0_PIN_INDEX] = I2COLED_PIN_DM_DIG_HIZ;
 466:.\Generated_Source\PSoC4/I2COLED.c ****             #endif /* (I2COLED_SS1_PIN) */
 467:.\Generated_Source\PSoC4/I2COLED.c **** 
 468:.\Generated_Source\PSoC4/I2COLED.c ****             #if(I2COLED_MISO_SDA_TX_PIN)
 469:.\Generated_Source\PSoC4/I2COLED.c ****                 /* Disable input buffer */
 470:.\Generated_Source\PSoC4/I2COLED.c ****                  pinsInBuf |= I2COLED_MISO_SDA_TX_PIN_MASK;
 471:.\Generated_Source\PSoC4/I2COLED.c ****             #endif /* (I2COLED_MISO_SDA_TX_PIN_PIN) */
 472:.\Generated_Source\PSoC4/I2COLED.c ****             }
 473:.\Generated_Source\PSoC4/I2COLED.c ****             else /* (Master) */
 474:.\Generated_Source\PSoC4/I2COLED.c ****             {
 475:.\Generated_Source\PSoC4/I2COLED.c ****                 pinsDm[I2COLED_MOSI_SCL_RX_PIN_INDEX] = I2COLED_PIN_DM_STRONG;
 476:.\Generated_Source\PSoC4/I2COLED.c ****                 pinsDm[I2COLED_MISO_SDA_TX_PIN_INDEX] = I2COLED_PIN_DM_DIG_HIZ;
 477:.\Generated_Source\PSoC4/I2COLED.c ****                 pinsDm[I2COLED_SCLK_PIN_INDEX]        = I2COLED_PIN_DM_STRONG;
 478:.\Generated_Source\PSoC4/I2COLED.c **** 
 479:.\Generated_Source\PSoC4/I2COLED.c ****             #if(I2COLED_SS0_PIN)
 480:.\Generated_Source\PSoC4/I2COLED.c ****                 hsiomSel [I2COLED_SS0_PIN_INDEX] = I2COLED_HSIOM_SPI_SEL;
 481:.\Generated_Source\PSoC4/I2COLED.c ****                 pinsDm   [I2COLED_SS0_PIN_INDEX] = I2COLED_PIN_DM_STRONG;
 482:.\Generated_Source\PSoC4/I2COLED.c ****                 pinsInBuf                                |= I2COLED_SS0_PIN_MASK;
 483:.\Generated_Source\PSoC4/I2COLED.c ****             #endif /* (I2COLED_SS0_PIN) */
 484:.\Generated_Source\PSoC4/I2COLED.c **** 
 485:.\Generated_Source\PSoC4/I2COLED.c ****             #if(I2COLED_SS1_PIN)
 486:.\Generated_Source\PSoC4/I2COLED.c ****                 hsiomSel [I2COLED_SS1_PIN_INDEX] = I2COLED_HSIOM_SPI_SEL;
 487:.\Generated_Source\PSoC4/I2COLED.c ****                 pinsDm   [I2COLED_SS1_PIN_INDEX] = I2COLED_PIN_DM_STRONG;
ARM GAS  C:\DOCUME~1\Owner\LOCALS~1\Temp\ccwmnyAP.s 			page 16


 488:.\Generated_Source\PSoC4/I2COLED.c ****                 pinsInBuf                                |= I2COLED_SS1_PIN_MASK;
 489:.\Generated_Source\PSoC4/I2COLED.c ****             #endif /* (I2COLED_SS1_PIN) */
 490:.\Generated_Source\PSoC4/I2COLED.c **** 
 491:.\Generated_Source\PSoC4/I2COLED.c ****             #if(I2COLED_SS2_PIN)
 492:.\Generated_Source\PSoC4/I2COLED.c ****                 hsiomSel [I2COLED_SS2_PIN_INDEX] = I2COLED_HSIOM_SPI_SEL;
 493:.\Generated_Source\PSoC4/I2COLED.c ****                 pinsDm   [I2COLED_SS2_PIN_INDEX] = I2COLED_PIN_DM_STRONG;
 494:.\Generated_Source\PSoC4/I2COLED.c ****                 pinsInBuf                                |= I2COLED_SS2_PIN_MASK;
 495:.\Generated_Source\PSoC4/I2COLED.c ****             #endif /* (I2COLED_SS2_PIN) */
 496:.\Generated_Source\PSoC4/I2COLED.c **** 
 497:.\Generated_Source\PSoC4/I2COLED.c ****             #if(I2COLED_SS3_PIN)
 498:.\Generated_Source\PSoC4/I2COLED.c ****                 hsiomSel [I2COLED_SS3_PIN_INDEX] = I2COLED_HSIOM_SPI_SEL;
 499:.\Generated_Source\PSoC4/I2COLED.c ****                 pinsDm   [I2COLED_SS3_PIN_INDEX] = I2COLED_PIN_DM_STRONG;
 500:.\Generated_Source\PSoC4/I2COLED.c ****                 pinsInBuf                                |= I2COLED_SS3_PIN_MASK;
 501:.\Generated_Source\PSoC4/I2COLED.c ****             #endif /* (I2COLED_SS2_PIN) */
 502:.\Generated_Source\PSoC4/I2COLED.c **** 
 503:.\Generated_Source\PSoC4/I2COLED.c ****                 /* Disable input buffers */
 504:.\Generated_Source\PSoC4/I2COLED.c ****             #if(I2COLED_MOSI_SCL_RX_PIN)
 505:.\Generated_Source\PSoC4/I2COLED.c ****                 pinsInBuf |= I2COLED_MOSI_SCL_RX_PIN_MASK;
 506:.\Generated_Source\PSoC4/I2COLED.c ****             #endif /* (I2COLED_MOSI_SCL_RX_PIN) */
 507:.\Generated_Source\PSoC4/I2COLED.c **** 
 508:.\Generated_Source\PSoC4/I2COLED.c ****              #if(I2COLED_MOSI_SCL_RX_WAKE_PIN)
 509:.\Generated_Source\PSoC4/I2COLED.c ****                 pinsInBuf |= I2COLED_MOSI_SCL_RX_WAKE_PIN_MASK;
 510:.\Generated_Source\PSoC4/I2COLED.c ****             #endif /* (I2COLED_MOSI_SCL_RX_WAKE_PIN) */
 511:.\Generated_Source\PSoC4/I2COLED.c **** 
 512:.\Generated_Source\PSoC4/I2COLED.c ****             #if(I2COLED_SCLK_PIN)
 513:.\Generated_Source\PSoC4/I2COLED.c ****                 pinsInBuf |= I2COLED_SCLK_PIN_MASK;
 514:.\Generated_Source\PSoC4/I2COLED.c ****             #endif /* (I2COLED_SCLK_PIN) */
 515:.\Generated_Source\PSoC4/I2COLED.c ****             }
 516:.\Generated_Source\PSoC4/I2COLED.c ****         }
 517:.\Generated_Source\PSoC4/I2COLED.c ****         else /* UART */
 518:.\Generated_Source\PSoC4/I2COLED.c ****         {
 519:.\Generated_Source\PSoC4/I2COLED.c ****             if(I2COLED_UART_MODE_SMARTCARD == subMode)
 520:.\Generated_Source\PSoC4/I2COLED.c ****             {
 521:.\Generated_Source\PSoC4/I2COLED.c ****                 /* SmartCard */
 522:.\Generated_Source\PSoC4/I2COLED.c ****                 hsiomSel[I2COLED_MISO_SDA_TX_PIN_INDEX] = I2COLED_HSIOM_UART_SEL;
 523:.\Generated_Source\PSoC4/I2COLED.c ****                 pinsDm  [I2COLED_MISO_SDA_TX_PIN_INDEX] = I2COLED_PIN_DM_OD_LO;
 524:.\Generated_Source\PSoC4/I2COLED.c ****             }
 525:.\Generated_Source\PSoC4/I2COLED.c ****             else /* Standard or IrDA */
 526:.\Generated_Source\PSoC4/I2COLED.c ****             {
 527:.\Generated_Source\PSoC4/I2COLED.c ****                 if(0u != (I2COLED_UART_RX_PIN_ENABLE & uartEnableMask))
 528:.\Generated_Source\PSoC4/I2COLED.c ****                 {
 529:.\Generated_Source\PSoC4/I2COLED.c ****                     hsiomSel[I2COLED_MOSI_SCL_RX_PIN_INDEX] = I2COLED_HSIOM_UART_SEL;
 530:.\Generated_Source\PSoC4/I2COLED.c ****                     pinsDm  [I2COLED_MOSI_SCL_RX_PIN_INDEX] = I2COLED_PIN_DM_DIG_HIZ;
 531:.\Generated_Source\PSoC4/I2COLED.c ****                 }
 532:.\Generated_Source\PSoC4/I2COLED.c **** 
 533:.\Generated_Source\PSoC4/I2COLED.c ****                 if(0u != (I2COLED_UART_TX_PIN_ENABLE & uartEnableMask))
 534:.\Generated_Source\PSoC4/I2COLED.c ****                 {
 535:.\Generated_Source\PSoC4/I2COLED.c ****                     hsiomSel[I2COLED_MISO_SDA_TX_PIN_INDEX] = I2COLED_HSIOM_UART_SEL;
 536:.\Generated_Source\PSoC4/I2COLED.c ****                     pinsDm  [I2COLED_MISO_SDA_TX_PIN_INDEX] = I2COLED_PIN_DM_STRONG;
 537:.\Generated_Source\PSoC4/I2COLED.c **** 
 538:.\Generated_Source\PSoC4/I2COLED.c ****                 #if(I2COLED_MISO_SDA_TX_PIN)
 539:.\Generated_Source\PSoC4/I2COLED.c ****                      pinsInBuf |= I2COLED_MISO_SDA_TX_PIN_MASK;
 540:.\Generated_Source\PSoC4/I2COLED.c ****                 #endif /* (I2COLED_MISO_SDA_TX_PIN_PIN) */
 541:.\Generated_Source\PSoC4/I2COLED.c ****                 }
 542:.\Generated_Source\PSoC4/I2COLED.c **** 
 543:.\Generated_Source\PSoC4/I2COLED.c ****             #if !(I2COLED_CY_SCBIP_V0 || I2COLED_CY_SCBIP_V1)
 544:.\Generated_Source\PSoC4/I2COLED.c ****                 if(I2COLED_UART_MODE_STD == subMode)
ARM GAS  C:\DOCUME~1\Owner\LOCALS~1\Temp\ccwmnyAP.s 			page 17


 545:.\Generated_Source\PSoC4/I2COLED.c ****                 {
 546:.\Generated_Source\PSoC4/I2COLED.c ****                     if(0u != (I2COLED_UART_CTS_PIN_ENABLE & uartEnableMask))
 547:.\Generated_Source\PSoC4/I2COLED.c ****                     {
 548:.\Generated_Source\PSoC4/I2COLED.c ****                         /* CTS input is multiplexed with SCLK */
 549:.\Generated_Source\PSoC4/I2COLED.c ****                         hsiomSel[I2COLED_SCLK_PIN_INDEX] = I2COLED_HSIOM_UART_SEL;
 550:.\Generated_Source\PSoC4/I2COLED.c ****                         pinsDm  [I2COLED_SCLK_PIN_INDEX] = I2COLED_PIN_DM_DIG_HIZ;
 551:.\Generated_Source\PSoC4/I2COLED.c ****                     }
 552:.\Generated_Source\PSoC4/I2COLED.c **** 
 553:.\Generated_Source\PSoC4/I2COLED.c ****                     if(0u != (I2COLED_UART_RTS_PIN_ENABLE & uartEnableMask))
 554:.\Generated_Source\PSoC4/I2COLED.c ****                     {
 555:.\Generated_Source\PSoC4/I2COLED.c ****                         /* RTS output is multiplexed with SS0 */
 556:.\Generated_Source\PSoC4/I2COLED.c ****                         hsiomSel[I2COLED_SS0_PIN_INDEX] = I2COLED_HSIOM_UART_SEL;
 557:.\Generated_Source\PSoC4/I2COLED.c ****                         pinsDm  [I2COLED_SS0_PIN_INDEX] = I2COLED_PIN_DM_STRONG;
 558:.\Generated_Source\PSoC4/I2COLED.c **** 
 559:.\Generated_Source\PSoC4/I2COLED.c ****                     #if(I2COLED_SS0_PIN)
 560:.\Generated_Source\PSoC4/I2COLED.c ****                         /* Disable input buffer */
 561:.\Generated_Source\PSoC4/I2COLED.c ****                         pinsInBuf |= I2COLED_SS0_PIN_MASK;
 562:.\Generated_Source\PSoC4/I2COLED.c ****                     #endif /* (I2COLED_SS0_PIN) */
 563:.\Generated_Source\PSoC4/I2COLED.c ****                     }
 564:.\Generated_Source\PSoC4/I2COLED.c ****                 }
 565:.\Generated_Source\PSoC4/I2COLED.c ****             #endif /* !(I2COLED_CY_SCBIP_V0 || I2COLED_CY_SCBIP_V1) */
 566:.\Generated_Source\PSoC4/I2COLED.c ****             }
 567:.\Generated_Source\PSoC4/I2COLED.c ****         }
 568:.\Generated_Source\PSoC4/I2COLED.c ****     #endif /* (!I2COLED_CY_SCBIP_V1) */
 569:.\Generated_Source\PSoC4/I2COLED.c **** 
 570:.\Generated_Source\PSoC4/I2COLED.c ****     /* Configure pins: set HSIOM, DM and InputBufEnable */
 571:.\Generated_Source\PSoC4/I2COLED.c ****     /* Note: the DR register settings do not effect the pin output if HSIOM is other than GPIO */
 572:.\Generated_Source\PSoC4/I2COLED.c **** 
 573:.\Generated_Source\PSoC4/I2COLED.c ****     #if(I2COLED_MOSI_SCL_RX_PIN)
 574:.\Generated_Source\PSoC4/I2COLED.c ****         I2COLED_SET_HSIOM_SEL(I2COLED_MOSI_SCL_RX_HSIOM_REG,
 575:.\Generated_Source\PSoC4/I2COLED.c ****                                        I2COLED_MOSI_SCL_RX_HSIOM_MASK,
 576:.\Generated_Source\PSoC4/I2COLED.c ****                                        I2COLED_MOSI_SCL_RX_HSIOM_POS,
 577:.\Generated_Source\PSoC4/I2COLED.c ****                                        hsiomSel[I2COLED_MOSI_SCL_RX_PIN_INDEX]);
 578:.\Generated_Source\PSoC4/I2COLED.c **** 
 579:.\Generated_Source\PSoC4/I2COLED.c ****         I2COLED_spi_mosi_i2c_scl_uart_rx_SetDriveMode((uint8) pinsDm[I2COLED_MOSI_SCL_RX_PIN_INDEX]
 580:.\Generated_Source\PSoC4/I2COLED.c **** 
 581:.\Generated_Source\PSoC4/I2COLED.c ****     #if (!I2COLED_CY_SCBIP_V1)
 582:.\Generated_Source\PSoC4/I2COLED.c ****         I2COLED_SET_INP_DIS(I2COLED_spi_mosi_i2c_scl_uart_rx_INP_DIS,
 583:.\Generated_Source\PSoC4/I2COLED.c ****                                      I2COLED_spi_mosi_i2c_scl_uart_rx_MASK,
 584:.\Generated_Source\PSoC4/I2COLED.c ****                                      (0u != (pinsInBuf & I2COLED_MOSI_SCL_RX_PIN_MASK)));
 585:.\Generated_Source\PSoC4/I2COLED.c ****     #endif /* (!I2COLED_CY_SCBIP_V1) */
 586:.\Generated_Source\PSoC4/I2COLED.c ****     #endif /* (I2COLED_MOSI_SCL_RX_PIN) */
 587:.\Generated_Source\PSoC4/I2COLED.c **** 
 588:.\Generated_Source\PSoC4/I2COLED.c ****     #if(I2COLED_MOSI_SCL_RX_WAKE_PIN)
 589:.\Generated_Source\PSoC4/I2COLED.c ****         I2COLED_SET_HSIOM_SEL(I2COLED_MOSI_SCL_RX_WAKE_HSIOM_REG,
 590:.\Generated_Source\PSoC4/I2COLED.c ****                                        I2COLED_MOSI_SCL_RX_WAKE_HSIOM_MASK,
 591:.\Generated_Source\PSoC4/I2COLED.c ****                                        I2COLED_MOSI_SCL_RX_WAKE_HSIOM_POS,
 592:.\Generated_Source\PSoC4/I2COLED.c ****                                        hsiomSel[I2COLED_MOSI_SCL_RX_WAKE_PIN_INDEX]);
 593:.\Generated_Source\PSoC4/I2COLED.c **** 
 594:.\Generated_Source\PSoC4/I2COLED.c ****         I2COLED_spi_mosi_i2c_scl_uart_rx_wake_SetDriveMode((uint8)
 595:.\Generated_Source\PSoC4/I2COLED.c ****                                                                pinsDm[I2COLED_MOSI_SCL_RX_WAKE_PIN_
 596:.\Generated_Source\PSoC4/I2COLED.c **** 
 597:.\Generated_Source\PSoC4/I2COLED.c ****         I2COLED_SET_INP_DIS(I2COLED_spi_mosi_i2c_scl_uart_rx_wake_INP_DIS,
 598:.\Generated_Source\PSoC4/I2COLED.c ****                                      I2COLED_spi_mosi_i2c_scl_uart_rx_wake_MASK,
 599:.\Generated_Source\PSoC4/I2COLED.c ****                                      (0u != (pinsInBuf & I2COLED_MOSI_SCL_RX_WAKE_PIN_MASK)));
 600:.\Generated_Source\PSoC4/I2COLED.c **** 
 601:.\Generated_Source\PSoC4/I2COLED.c ****          /* Set interrupt on falling edge */
ARM GAS  C:\DOCUME~1\Owner\LOCALS~1\Temp\ccwmnyAP.s 			page 18


 602:.\Generated_Source\PSoC4/I2COLED.c ****         I2COLED_SET_INCFG_TYPE(I2COLED_MOSI_SCL_RX_WAKE_INTCFG_REG,
 603:.\Generated_Source\PSoC4/I2COLED.c ****                                         I2COLED_MOSI_SCL_RX_WAKE_INTCFG_TYPE_MASK,
 604:.\Generated_Source\PSoC4/I2COLED.c ****                                         I2COLED_MOSI_SCL_RX_WAKE_INTCFG_TYPE_POS,
 605:.\Generated_Source\PSoC4/I2COLED.c ****                                         I2COLED_INTCFG_TYPE_FALLING_EDGE);
 606:.\Generated_Source\PSoC4/I2COLED.c ****     #endif /* (I2COLED_MOSI_SCL_RX_WAKE_PIN) */
 607:.\Generated_Source\PSoC4/I2COLED.c **** 
 608:.\Generated_Source\PSoC4/I2COLED.c ****     #if(I2COLED_MISO_SDA_TX_PIN)
 609:.\Generated_Source\PSoC4/I2COLED.c ****         I2COLED_SET_HSIOM_SEL(I2COLED_MISO_SDA_TX_HSIOM_REG,
 610:.\Generated_Source\PSoC4/I2COLED.c ****                                        I2COLED_MISO_SDA_TX_HSIOM_MASK,
 611:.\Generated_Source\PSoC4/I2COLED.c ****                                        I2COLED_MISO_SDA_TX_HSIOM_POS,
 612:.\Generated_Source\PSoC4/I2COLED.c ****                                        hsiomSel[I2COLED_MISO_SDA_TX_PIN_INDEX]);
 613:.\Generated_Source\PSoC4/I2COLED.c **** 
 614:.\Generated_Source\PSoC4/I2COLED.c ****         I2COLED_spi_miso_i2c_sda_uart_tx_SetDriveMode((uint8) pinsDm[I2COLED_MISO_SDA_TX_PIN_INDEX]
 615:.\Generated_Source\PSoC4/I2COLED.c **** 
 616:.\Generated_Source\PSoC4/I2COLED.c ****     #if (!I2COLED_CY_SCBIP_V1)
 617:.\Generated_Source\PSoC4/I2COLED.c ****         I2COLED_SET_INP_DIS(I2COLED_spi_miso_i2c_sda_uart_tx_INP_DIS,
 618:.\Generated_Source\PSoC4/I2COLED.c ****                                      I2COLED_spi_miso_i2c_sda_uart_tx_MASK,
 619:.\Generated_Source\PSoC4/I2COLED.c ****                                     (0u != (pinsInBuf & I2COLED_MISO_SDA_TX_PIN_MASK)));
 620:.\Generated_Source\PSoC4/I2COLED.c ****     #endif /* (!I2COLED_CY_SCBIP_V1) */
 621:.\Generated_Source\PSoC4/I2COLED.c ****     #endif /* (I2COLED_MOSI_SCL_RX_PIN) */
 622:.\Generated_Source\PSoC4/I2COLED.c **** 
 623:.\Generated_Source\PSoC4/I2COLED.c ****     #if(I2COLED_SCLK_PIN)
 624:.\Generated_Source\PSoC4/I2COLED.c ****         I2COLED_SET_HSIOM_SEL(I2COLED_SCLK_HSIOM_REG, I2COLED_SCLK_HSIOM_MASK,
 625:.\Generated_Source\PSoC4/I2COLED.c ****                                        I2COLED_SCLK_HSIOM_POS, hsiomSel[I2COLED_SCLK_PIN_INDEX]);
 626:.\Generated_Source\PSoC4/I2COLED.c **** 
 627:.\Generated_Source\PSoC4/I2COLED.c ****         I2COLED_spi_sclk_SetDriveMode((uint8) pinsDm[I2COLED_SCLK_PIN_INDEX]);
 628:.\Generated_Source\PSoC4/I2COLED.c **** 
 629:.\Generated_Source\PSoC4/I2COLED.c ****         I2COLED_SET_INP_DIS(I2COLED_spi_sclk_INP_DIS,
 630:.\Generated_Source\PSoC4/I2COLED.c ****                                      I2COLED_spi_sclk_MASK,
 631:.\Generated_Source\PSoC4/I2COLED.c ****                                      (0u != (pinsInBuf & I2COLED_SCLK_PIN_MASK)));
 632:.\Generated_Source\PSoC4/I2COLED.c ****     #endif /* (I2COLED_SCLK_PIN) */
 633:.\Generated_Source\PSoC4/I2COLED.c **** 
 634:.\Generated_Source\PSoC4/I2COLED.c ****     #if(I2COLED_SS0_PIN)
 635:.\Generated_Source\PSoC4/I2COLED.c ****         I2COLED_SET_HSIOM_SEL(I2COLED_SS0_HSIOM_REG, I2COLED_SS0_HSIOM_MASK,
 636:.\Generated_Source\PSoC4/I2COLED.c ****                                        I2COLED_SS0_HSIOM_POS, hsiomSel[I2COLED_SS0_PIN_INDEX]);
 637:.\Generated_Source\PSoC4/I2COLED.c **** 
 638:.\Generated_Source\PSoC4/I2COLED.c ****         I2COLED_spi_ss0_SetDriveMode((uint8) pinsDm[I2COLED_SS0_PIN_INDEX]);
 639:.\Generated_Source\PSoC4/I2COLED.c **** 
 640:.\Generated_Source\PSoC4/I2COLED.c ****         I2COLED_SET_INP_DIS(I2COLED_spi_ss0_INP_DIS,
 641:.\Generated_Source\PSoC4/I2COLED.c ****                                      I2COLED_spi_ss0_MASK,
 642:.\Generated_Source\PSoC4/I2COLED.c ****                                      (0u != (pinsInBuf & I2COLED_SS0_PIN_MASK)));
 643:.\Generated_Source\PSoC4/I2COLED.c ****     #endif /* (I2COLED_SS1_PIN) */
 644:.\Generated_Source\PSoC4/I2COLED.c **** 
 645:.\Generated_Source\PSoC4/I2COLED.c ****     #if(I2COLED_SS1_PIN)
 646:.\Generated_Source\PSoC4/I2COLED.c ****         I2COLED_SET_HSIOM_SEL(I2COLED_SS1_HSIOM_REG, I2COLED_SS1_HSIOM_MASK,
 647:.\Generated_Source\PSoC4/I2COLED.c ****                                        I2COLED_SS1_HSIOM_POS, hsiomSel[I2COLED_SS1_PIN_INDEX]);
 648:.\Generated_Source\PSoC4/I2COLED.c **** 
 649:.\Generated_Source\PSoC4/I2COLED.c ****         I2COLED_spi_ss1_SetDriveMode((uint8) pinsDm[I2COLED_SS1_PIN_INDEX]);
 650:.\Generated_Source\PSoC4/I2COLED.c **** 
 651:.\Generated_Source\PSoC4/I2COLED.c ****         I2COLED_SET_INP_DIS(I2COLED_spi_ss1_INP_DIS,
 652:.\Generated_Source\PSoC4/I2COLED.c ****                                      I2COLED_spi_ss1_MASK,
 653:.\Generated_Source\PSoC4/I2COLED.c ****                                      (0u != (pinsInBuf & I2COLED_SS1_PIN_MASK)));
 654:.\Generated_Source\PSoC4/I2COLED.c ****     #endif /* (I2COLED_SS1_PIN) */
 655:.\Generated_Source\PSoC4/I2COLED.c **** 
 656:.\Generated_Source\PSoC4/I2COLED.c ****     #if(I2COLED_SS2_PIN)
 657:.\Generated_Source\PSoC4/I2COLED.c ****         I2COLED_SET_HSIOM_SEL(I2COLED_SS2_HSIOM_REG, I2COLED_SS2_HSIOM_MASK,
 658:.\Generated_Source\PSoC4/I2COLED.c ****                                        I2COLED_SS2_HSIOM_POS, hsiomSel[I2COLED_SS2_PIN_INDEX]);
ARM GAS  C:\DOCUME~1\Owner\LOCALS~1\Temp\ccwmnyAP.s 			page 19


 659:.\Generated_Source\PSoC4/I2COLED.c **** 
 660:.\Generated_Source\PSoC4/I2COLED.c ****         I2COLED_spi_ss2_SetDriveMode((uint8) pinsDm[I2COLED_SS2_PIN_INDEX]);
 661:.\Generated_Source\PSoC4/I2COLED.c **** 
 662:.\Generated_Source\PSoC4/I2COLED.c ****         I2COLED_SET_INP_DIS(I2COLED_spi_ss2_INP_DIS,
 663:.\Generated_Source\PSoC4/I2COLED.c ****                                      I2COLED_spi_ss2_MASK,
 664:.\Generated_Source\PSoC4/I2COLED.c ****                                      (0u != (pinsInBuf & I2COLED_SS2_PIN_MASK)));
 665:.\Generated_Source\PSoC4/I2COLED.c ****     #endif /* (I2COLED_SS2_PIN) */
 666:.\Generated_Source\PSoC4/I2COLED.c **** 
 667:.\Generated_Source\PSoC4/I2COLED.c ****     #if(I2COLED_SS3_PIN)
 668:.\Generated_Source\PSoC4/I2COLED.c ****         I2COLED_SET_HSIOM_SEL(I2COLED_SS3_HSIOM_REG,  I2COLED_SS3_HSIOM_MASK,
 669:.\Generated_Source\PSoC4/I2COLED.c ****                                        I2COLED_SS3_HSIOM_POS, hsiomSel[I2COLED_SS3_PIN_INDEX]);
 670:.\Generated_Source\PSoC4/I2COLED.c **** 
 671:.\Generated_Source\PSoC4/I2COLED.c ****         I2COLED_spi_ss3_SetDriveMode((uint8) pinsDm[I2COLED_SS3_PIN_INDEX]);
 672:.\Generated_Source\PSoC4/I2COLED.c **** 
 673:.\Generated_Source\PSoC4/I2COLED.c ****         I2COLED_SET_INP_DIS(I2COLED_spi_ss3_INP_DIS,
 674:.\Generated_Source\PSoC4/I2COLED.c ****                                      I2COLED_spi_ss3_MASK,
 675:.\Generated_Source\PSoC4/I2COLED.c ****                                      (0u != (pinsInBuf & I2COLED_SS3_PIN_MASK)));
 676:.\Generated_Source\PSoC4/I2COLED.c ****     #endif /* (I2COLED_SS3_PIN) */
 677:.\Generated_Source\PSoC4/I2COLED.c ****     }
 678:.\Generated_Source\PSoC4/I2COLED.c **** 
 679:.\Generated_Source\PSoC4/I2COLED.c **** #endif /* (I2COLED_SCB_MODE_UNCONFIG_CONST_CFG) */
 680:.\Generated_Source\PSoC4/I2COLED.c **** 
 681:.\Generated_Source\PSoC4/I2COLED.c **** 
 682:.\Generated_Source\PSoC4/I2COLED.c **** #if (I2COLED_CY_SCBIP_V0 || I2COLED_CY_SCBIP_V1)
 683:.\Generated_Source\PSoC4/I2COLED.c ****     /*******************************************************************************
 684:.\Generated_Source\PSoC4/I2COLED.c ****     * Function Name: I2COLED_I2CSlaveNackGeneration
 685:.\Generated_Source\PSoC4/I2COLED.c ****     ********************************************************************************
 686:.\Generated_Source\PSoC4/I2COLED.c ****     *
 687:.\Generated_Source\PSoC4/I2COLED.c ****     * Summary:
 688:.\Generated_Source\PSoC4/I2COLED.c ****     *  Sets command to generate NACK to the address or data.
 689:.\Generated_Source\PSoC4/I2COLED.c ****     *
 690:.\Generated_Source\PSoC4/I2COLED.c ****     * Parameters:
 691:.\Generated_Source\PSoC4/I2COLED.c ****     *  None
 692:.\Generated_Source\PSoC4/I2COLED.c ****     *
 693:.\Generated_Source\PSoC4/I2COLED.c ****     * Return:
 694:.\Generated_Source\PSoC4/I2COLED.c ****     *  None
 695:.\Generated_Source\PSoC4/I2COLED.c ****     *
 696:.\Generated_Source\PSoC4/I2COLED.c ****     *******************************************************************************/
 697:.\Generated_Source\PSoC4/I2COLED.c ****     void I2COLED_I2CSlaveNackGeneration(void)
 698:.\Generated_Source\PSoC4/I2COLED.c ****     {
 369              		.loc 1 698 0
 370              		.cfi_startproc
 371 0000 80B5     		push	{r7, lr}
 372              		.cfi_def_cfa_offset 8
 373              		.cfi_offset 7, -8
 374              		.cfi_offset 14, -4
 375 0002 00AF     		add	r7, sp, #0
 376              		.cfi_def_cfa_register 7
 699:.\Generated_Source\PSoC4/I2COLED.c ****         /* Check for EC_AM toggle condition: EC_AM and clock stretching for address are enabled */
 700:.\Generated_Source\PSoC4/I2COLED.c ****         if ((0u != (I2COLED_CTRL_REG & I2COLED_CTRL_EC_AM_MODE)) &&
 377              		.loc 1 700 0
 378 0004 0E4B     		ldr	r3, .L25
 379 0006 1A68     		ldr	r2, [r3]
 380 0008 8023     		mov	r3, #128
 381 000a 5B00     		lsl	r3, r3, #1
 382 000c 1340     		and	r3, r2
 383 000e 12D0     		beq	.L24
ARM GAS  C:\DOCUME~1\Owner\LOCALS~1\Temp\ccwmnyAP.s 			page 20


 701:.\Generated_Source\PSoC4/I2COLED.c ****             (0u == (I2COLED_I2C_CTRL_REG & I2COLED_I2C_CTRL_S_NOT_READY_ADDR_NACK)))
 384              		.loc 1 701 0 discriminator 1
 385 0010 0C4B     		ldr	r3, .L25+4
 386 0012 1A68     		ldr	r2, [r3]
 387 0014 8023     		mov	r3, #128
 388 0016 DB01     		lsl	r3, r3, #7
 389 0018 1340     		and	r3, r2
 700:.\Generated_Source\PSoC4/I2COLED.c ****         if ((0u != (I2COLED_CTRL_REG & I2COLED_CTRL_EC_AM_MODE)) &&
 390              		.loc 1 700 0 discriminator 1
 391 001a 0CD1     		bne	.L24
 702:.\Generated_Source\PSoC4/I2COLED.c ****         {
 703:.\Generated_Source\PSoC4/I2COLED.c ****             /* Toggle EC_AM before NACK generation */
 704:.\Generated_Source\PSoC4/I2COLED.c ****             I2COLED_CTRL_REG &= ~I2COLED_CTRL_EC_AM_MODE;
 392              		.loc 1 704 0
 393 001c 084B     		ldr	r3, .L25
 394 001e 084A     		ldr	r2, .L25
 395 0020 1168     		ldr	r1, [r2]
 396 0022 094A     		ldr	r2, .L25+8
 397 0024 0A40     		and	r2, r1
 398 0026 1A60     		str	r2, [r3]
 705:.\Generated_Source\PSoC4/I2COLED.c ****             I2COLED_CTRL_REG |=  I2COLED_CTRL_EC_AM_MODE;
 399              		.loc 1 705 0
 400 0028 054B     		ldr	r3, .L25
 401 002a 054A     		ldr	r2, .L25
 402 002c 1268     		ldr	r2, [r2]
 403 002e 8021     		mov	r1, #128
 404 0030 4900     		lsl	r1, r1, #1
 405 0032 0A43     		orr	r2, r1
 406 0034 1A60     		str	r2, [r3]
 407              	.L24:
 706:.\Generated_Source\PSoC4/I2COLED.c ****         }
 707:.\Generated_Source\PSoC4/I2COLED.c **** 
 708:.\Generated_Source\PSoC4/I2COLED.c ****         I2COLED_I2C_SLAVE_CMD_REG = I2COLED_I2C_SLAVE_CMD_S_NACK;
 408              		.loc 1 708 0
 409 0036 054B     		ldr	r3, .L25+12
 410 0038 0222     		mov	r2, #2
 411 003a 1A60     		str	r2, [r3]
 709:.\Generated_Source\PSoC4/I2COLED.c ****     }
 412              		.loc 1 709 0
 413 003c BD46     		mov	sp, r7
 414              		@ sp needed
 415 003e 80BD     		pop	{r7, pc}
 416              	.L26:
 417              		.align	2
 418              	.L25:
 419 0040 00000740 		.word	1074200576
 420 0044 60000740 		.word	1074200672
 421 0048 FFFEFFFF 		.word	-257
 422 004c 6C000740 		.word	1074200684
 423              		.cfi_endproc
 424              	.LFE9:
 425              		.size	I2COLED_I2CSlaveNackGeneration, .-I2COLED_I2CSlaveNackGeneration
 426              		.text
 427              	.Letext0:
 428              		.file 2 ".\\Generated_Source\\PSoC4/cytypes.h"