ARM GAS  C:\DOCUME~1\Owner\LOCALS~1\Temp\cc1p5VcC.s 			page 1


   1              		.cpu cortex-m0
   2              		.fpu softvfp
   3              		.eabi_attribute 20, 1
   4              		.eabi_attribute 21, 1
   5              		.eabi_attribute 23, 3
   6              		.eabi_attribute 24, 1
   7              		.eabi_attribute 25, 1
   8              		.eabi_attribute 26, 1
   9              		.eabi_attribute 30, 6
  10              		.eabi_attribute 34, 0
  11              		.eabi_attribute 18, 4
  12              		.code	16
  13              		.file	"ssd1306.c"
  14              		.text
  15              	.Ltext0:
  16              		.cfi_sections	.debug_frame
  17              		.section	.rodata
  18              		.align	2
  19              		.type	font, %object
  20              		.size	font, 1275
  21              	font:
  22 0000 00       		.byte	0
  23 0001 00       		.byte	0
  24 0002 00       		.byte	0
  25 0003 00       		.byte	0
  26 0004 00       		.byte	0
  27 0005 3E       		.byte	62
  28 0006 5B       		.byte	91
  29 0007 4F       		.byte	79
  30 0008 5B       		.byte	91
  31 0009 3E       		.byte	62
  32 000a 3E       		.byte	62
  33 000b 6B       		.byte	107
  34 000c 4F       		.byte	79
  35 000d 6B       		.byte	107
  36 000e 3E       		.byte	62
  37 000f 1C       		.byte	28
  38 0010 3E       		.byte	62
  39 0011 7C       		.byte	124
  40 0012 3E       		.byte	62
  41 0013 1C       		.byte	28
  42 0014 18       		.byte	24
  43 0015 3C       		.byte	60
  44 0016 7E       		.byte	126
  45 0017 3C       		.byte	60
  46 0018 18       		.byte	24
  47 0019 1C       		.byte	28
  48 001a 57       		.byte	87
  49 001b 7D       		.byte	125
  50 001c 57       		.byte	87
  51 001d 1C       		.byte	28
  52 001e 1C       		.byte	28
  53 001f 5E       		.byte	94
  54 0020 7F       		.byte	127
  55 0021 5E       		.byte	94
  56 0022 1C       		.byte	28
  57 0023 00       		.byte	0
ARM GAS  C:\DOCUME~1\Owner\LOCALS~1\Temp\cc1p5VcC.s 			page 2


  58 0024 18       		.byte	24
  59 0025 3C       		.byte	60
  60 0026 18       		.byte	24
  61 0027 00       		.byte	0
  62 0028 FF       		.byte	-1
  63 0029 E7       		.byte	-25
  64 002a C3       		.byte	-61
  65 002b E7       		.byte	-25
  66 002c FF       		.byte	-1
  67 002d 00       		.byte	0
  68 002e 18       		.byte	24
  69 002f 24       		.byte	36
  70 0030 18       		.byte	24
  71 0031 00       		.byte	0
  72 0032 FF       		.byte	-1
  73 0033 E7       		.byte	-25
  74 0034 DB       		.byte	-37
  75 0035 E7       		.byte	-25
  76 0036 FF       		.byte	-1
  77 0037 30       		.byte	48
  78 0038 48       		.byte	72
  79 0039 3A       		.byte	58
  80 003a 06       		.byte	6
  81 003b 0E       		.byte	14
  82 003c 26       		.byte	38
  83 003d 29       		.byte	41
  84 003e 79       		.byte	121
  85 003f 29       		.byte	41
  86 0040 26       		.byte	38
  87 0041 40       		.byte	64
  88 0042 7F       		.byte	127
  89 0043 05       		.byte	5
  90 0044 05       		.byte	5
  91 0045 07       		.byte	7
  92 0046 40       		.byte	64
  93 0047 7F       		.byte	127
  94 0048 05       		.byte	5
  95 0049 25       		.byte	37
  96 004a 3F       		.byte	63
  97 004b 5A       		.byte	90
  98 004c 3C       		.byte	60
  99 004d E7       		.byte	-25
 100 004e 3C       		.byte	60
 101 004f 5A       		.byte	90
 102 0050 7F       		.byte	127
 103 0051 3E       		.byte	62
 104 0052 1C       		.byte	28
 105 0053 1C       		.byte	28
 106 0054 08       		.byte	8
 107 0055 08       		.byte	8
 108 0056 1C       		.byte	28
 109 0057 1C       		.byte	28
 110 0058 3E       		.byte	62
 111 0059 7F       		.byte	127
 112 005a 14       		.byte	20
 113 005b 22       		.byte	34
 114 005c 7F       		.byte	127
ARM GAS  C:\DOCUME~1\Owner\LOCALS~1\Temp\cc1p5VcC.s 			page 3


 115 005d 22       		.byte	34
 116 005e 14       		.byte	20
 117 005f 5F       		.byte	95
 118 0060 5F       		.byte	95
 119 0061 00       		.byte	0
 120 0062 5F       		.byte	95
 121 0063 5F       		.byte	95
 122 0064 06       		.byte	6
 123 0065 09       		.byte	9
 124 0066 7F       		.byte	127
 125 0067 01       		.byte	1
 126 0068 7F       		.byte	127
 127 0069 00       		.byte	0
 128 006a 66       		.byte	102
 129 006b 89       		.byte	-119
 130 006c 95       		.byte	-107
 131 006d 6A       		.byte	106
 132 006e 60       		.byte	96
 133 006f 60       		.byte	96
 134 0070 60       		.byte	96
 135 0071 60       		.byte	96
 136 0072 60       		.byte	96
 137 0073 94       		.byte	-108
 138 0074 A2       		.byte	-94
 139 0075 FF       		.byte	-1
 140 0076 A2       		.byte	-94
 141 0077 94       		.byte	-108
 142 0078 08       		.byte	8
 143 0079 04       		.byte	4
 144 007a 7E       		.byte	126
 145 007b 04       		.byte	4
 146 007c 08       		.byte	8
 147 007d 10       		.byte	16
 148 007e 20       		.byte	32
 149 007f 7E       		.byte	126
 150 0080 20       		.byte	32
 151 0081 10       		.byte	16
 152 0082 08       		.byte	8
 153 0083 08       		.byte	8
 154 0084 2A       		.byte	42
 155 0085 1C       		.byte	28
 156 0086 08       		.byte	8
 157 0087 08       		.byte	8
 158 0088 1C       		.byte	28
 159 0089 2A       		.byte	42
 160 008a 08       		.byte	8
 161 008b 08       		.byte	8
 162 008c 1E       		.byte	30
 163 008d 10       		.byte	16
 164 008e 10       		.byte	16
 165 008f 10       		.byte	16
 166 0090 10       		.byte	16
 167 0091 0C       		.byte	12
 168 0092 1E       		.byte	30
 169 0093 0C       		.byte	12
 170 0094 1E       		.byte	30
 171 0095 0C       		.byte	12
ARM GAS  C:\DOCUME~1\Owner\LOCALS~1\Temp\cc1p5VcC.s 			page 4


 172 0096 30       		.byte	48
 173 0097 38       		.byte	56
 174 0098 3E       		.byte	62
 175 0099 38       		.byte	56
 176 009a 30       		.byte	48
 177 009b 06       		.byte	6
 178 009c 0E       		.byte	14
 179 009d 3E       		.byte	62
 180 009e 0E       		.byte	14
 181 009f 06       		.byte	6
 182 00a0 00       		.byte	0
 183 00a1 00       		.byte	0
 184 00a2 00       		.byte	0
 185 00a3 00       		.byte	0
 186 00a4 00       		.byte	0
 187 00a5 00       		.byte	0
 188 00a6 00       		.byte	0
 189 00a7 5F       		.byte	95
 190 00a8 00       		.byte	0
 191 00a9 00       		.byte	0
 192 00aa 00       		.byte	0
 193 00ab 07       		.byte	7
 194 00ac 00       		.byte	0
 195 00ad 07       		.byte	7
 196 00ae 00       		.byte	0
 197 00af 14       		.byte	20
 198 00b0 7F       		.byte	127
 199 00b1 14       		.byte	20
 200 00b2 7F       		.byte	127
 201 00b3 14       		.byte	20
 202 00b4 24       		.byte	36
 203 00b5 2A       		.byte	42
 204 00b6 7F       		.byte	127
 205 00b7 2A       		.byte	42
 206 00b8 12       		.byte	18
 207 00b9 23       		.byte	35
 208 00ba 13       		.byte	19
 209 00bb 08       		.byte	8
 210 00bc 64       		.byte	100
 211 00bd 62       		.byte	98
 212 00be 36       		.byte	54
 213 00bf 49       		.byte	73
 214 00c0 56       		.byte	86
 215 00c1 20       		.byte	32
 216 00c2 50       		.byte	80
 217 00c3 00       		.byte	0
 218 00c4 08       		.byte	8
 219 00c5 07       		.byte	7
 220 00c6 03       		.byte	3
 221 00c7 00       		.byte	0
 222 00c8 00       		.byte	0
 223 00c9 1C       		.byte	28
 224 00ca 22       		.byte	34
 225 00cb 41       		.byte	65
 226 00cc 00       		.byte	0
 227 00cd 00       		.byte	0
 228 00ce 41       		.byte	65
ARM GAS  C:\DOCUME~1\Owner\LOCALS~1\Temp\cc1p5VcC.s 			page 5


 229 00cf 22       		.byte	34
 230 00d0 1C       		.byte	28
 231 00d1 00       		.byte	0
 232 00d2 2A       		.byte	42
 233 00d3 1C       		.byte	28
 234 00d4 7F       		.byte	127
 235 00d5 1C       		.byte	28
 236 00d6 2A       		.byte	42
 237 00d7 08       		.byte	8
 238 00d8 08       		.byte	8
 239 00d9 3E       		.byte	62
 240 00da 08       		.byte	8
 241 00db 08       		.byte	8
 242 00dc 00       		.byte	0
 243 00dd 80       		.byte	-128
 244 00de 70       		.byte	112
 245 00df 30       		.byte	48
 246 00e0 00       		.byte	0
 247 00e1 08       		.byte	8
 248 00e2 08       		.byte	8
 249 00e3 08       		.byte	8
 250 00e4 08       		.byte	8
 251 00e5 08       		.byte	8
 252 00e6 00       		.byte	0
 253 00e7 00       		.byte	0
 254 00e8 60       		.byte	96
 255 00e9 60       		.byte	96
 256 00ea 00       		.byte	0
 257 00eb 20       		.byte	32
 258 00ec 10       		.byte	16
 259 00ed 08       		.byte	8
 260 00ee 04       		.byte	4
 261 00ef 02       		.byte	2
 262 00f0 3E       		.byte	62
 263 00f1 51       		.byte	81
 264 00f2 49       		.byte	73
 265 00f3 45       		.byte	69
 266 00f4 3E       		.byte	62
 267 00f5 00       		.byte	0
 268 00f6 42       		.byte	66
 269 00f7 7F       		.byte	127
 270 00f8 40       		.byte	64
 271 00f9 00       		.byte	0
 272 00fa 72       		.byte	114
 273 00fb 49       		.byte	73
 274 00fc 49       		.byte	73
 275 00fd 49       		.byte	73
 276 00fe 46       		.byte	70
 277 00ff 21       		.byte	33
 278 0100 41       		.byte	65
 279 0101 49       		.byte	73
 280 0102 4D       		.byte	77
 281 0103 33       		.byte	51
 282 0104 18       		.byte	24
 283 0105 14       		.byte	20
 284 0106 12       		.byte	18
 285 0107 7F       		.byte	127
ARM GAS  C:\DOCUME~1\Owner\LOCALS~1\Temp\cc1p5VcC.s 			page 6


 286 0108 10       		.byte	16
 287 0109 27       		.byte	39
 288 010a 45       		.byte	69
 289 010b 45       		.byte	69
 290 010c 45       		.byte	69
 291 010d 39       		.byte	57
 292 010e 3C       		.byte	60
 293 010f 4A       		.byte	74
 294 0110 49       		.byte	73
 295 0111 49       		.byte	73
 296 0112 31       		.byte	49
 297 0113 41       		.byte	65
 298 0114 21       		.byte	33
 299 0115 11       		.byte	17
 300 0116 09       		.byte	9
 301 0117 07       		.byte	7
 302 0118 36       		.byte	54
 303 0119 49       		.byte	73
 304 011a 49       		.byte	73
 305 011b 49       		.byte	73
 306 011c 36       		.byte	54
 307 011d 46       		.byte	70
 308 011e 49       		.byte	73
 309 011f 49       		.byte	73
 310 0120 29       		.byte	41
 311 0121 1E       		.byte	30
 312 0122 00       		.byte	0
 313 0123 00       		.byte	0
 314 0124 14       		.byte	20
 315 0125 00       		.byte	0
 316 0126 00       		.byte	0
 317 0127 00       		.byte	0
 318 0128 40       		.byte	64
 319 0129 34       		.byte	52
 320 012a 00       		.byte	0
 321 012b 00       		.byte	0
 322 012c 00       		.byte	0
 323 012d 08       		.byte	8
 324 012e 14       		.byte	20
 325 012f 22       		.byte	34
 326 0130 41       		.byte	65
 327 0131 14       		.byte	20
 328 0132 14       		.byte	20
 329 0133 14       		.byte	20
 330 0134 14       		.byte	20
 331 0135 14       		.byte	20
 332 0136 00       		.byte	0
 333 0137 41       		.byte	65
 334 0138 22       		.byte	34
 335 0139 14       		.byte	20
 336 013a 08       		.byte	8
 337 013b 02       		.byte	2
 338 013c 01       		.byte	1
 339 013d 59       		.byte	89
 340 013e 09       		.byte	9
 341 013f 06       		.byte	6
 342 0140 3E       		.byte	62
ARM GAS  C:\DOCUME~1\Owner\LOCALS~1\Temp\cc1p5VcC.s 			page 7


 343 0141 41       		.byte	65
 344 0142 5D       		.byte	93
 345 0143 59       		.byte	89
 346 0144 4E       		.byte	78
 347 0145 7C       		.byte	124
 348 0146 12       		.byte	18
 349 0147 11       		.byte	17
 350 0148 12       		.byte	18
 351 0149 7C       		.byte	124
 352 014a 7F       		.byte	127
 353 014b 49       		.byte	73
 354 014c 49       		.byte	73
 355 014d 49       		.byte	73
 356 014e 36       		.byte	54
 357 014f 3E       		.byte	62
 358 0150 41       		.byte	65
 359 0151 41       		.byte	65
 360 0152 41       		.byte	65
 361 0153 22       		.byte	34
 362 0154 7F       		.byte	127
 363 0155 41       		.byte	65
 364 0156 41       		.byte	65
 365 0157 41       		.byte	65
 366 0158 3E       		.byte	62
 367 0159 7F       		.byte	127
 368 015a 49       		.byte	73
 369 015b 49       		.byte	73
 370 015c 49       		.byte	73
 371 015d 41       		.byte	65
 372 015e 7F       		.byte	127
 373 015f 09       		.byte	9
 374 0160 09       		.byte	9
 375 0161 09       		.byte	9
 376 0162 01       		.byte	1
 377 0163 3E       		.byte	62
 378 0164 41       		.byte	65
 379 0165 41       		.byte	65
 380 0166 51       		.byte	81
 381 0167 73       		.byte	115
 382 0168 7F       		.byte	127
 383 0169 08       		.byte	8
 384 016a 08       		.byte	8
 385 016b 08       		.byte	8
 386 016c 7F       		.byte	127
 387 016d 00       		.byte	0
 388 016e 41       		.byte	65
 389 016f 7F       		.byte	127
 390 0170 41       		.byte	65
 391 0171 00       		.byte	0
 392 0172 20       		.byte	32
 393 0173 40       		.byte	64
 394 0174 41       		.byte	65
 395 0175 3F       		.byte	63
 396 0176 01       		.byte	1
 397 0177 7F       		.byte	127
 398 0178 08       		.byte	8
 399 0179 14       		.byte	20
ARM GAS  C:\DOCUME~1\Owner\LOCALS~1\Temp\cc1p5VcC.s 			page 8


 400 017a 22       		.byte	34
 401 017b 41       		.byte	65
 402 017c 7F       		.byte	127
 403 017d 40       		.byte	64
 404 017e 40       		.byte	64
 405 017f 40       		.byte	64
 406 0180 40       		.byte	64
 407 0181 7F       		.byte	127
 408 0182 02       		.byte	2
 409 0183 1C       		.byte	28
 410 0184 02       		.byte	2
 411 0185 7F       		.byte	127
 412 0186 7F       		.byte	127
 413 0187 04       		.byte	4
 414 0188 08       		.byte	8
 415 0189 10       		.byte	16
 416 018a 7F       		.byte	127
 417 018b 3E       		.byte	62
 418 018c 41       		.byte	65
 419 018d 41       		.byte	65
 420 018e 41       		.byte	65
 421 018f 3E       		.byte	62
 422 0190 7F       		.byte	127
 423 0191 09       		.byte	9
 424 0192 09       		.byte	9
 425 0193 09       		.byte	9
 426 0194 06       		.byte	6
 427 0195 3E       		.byte	62
 428 0196 41       		.byte	65
 429 0197 51       		.byte	81
 430 0198 21       		.byte	33
 431 0199 5E       		.byte	94
 432 019a 7F       		.byte	127
 433 019b 09       		.byte	9
 434 019c 19       		.byte	25
 435 019d 29       		.byte	41
 436 019e 46       		.byte	70
 437 019f 26       		.byte	38
 438 01a0 49       		.byte	73
 439 01a1 49       		.byte	73
 440 01a2 49       		.byte	73
 441 01a3 32       		.byte	50
 442 01a4 03       		.byte	3
 443 01a5 01       		.byte	1
 444 01a6 7F       		.byte	127
 445 01a7 01       		.byte	1
 446 01a8 03       		.byte	3
 447 01a9 3F       		.byte	63
 448 01aa 40       		.byte	64
 449 01ab 40       		.byte	64
 450 01ac 40       		.byte	64
 451 01ad 3F       		.byte	63
 452 01ae 1F       		.byte	31
 453 01af 20       		.byte	32
 454 01b0 40       		.byte	64
 455 01b1 20       		.byte	32
 456 01b2 1F       		.byte	31
ARM GAS  C:\DOCUME~1\Owner\LOCALS~1\Temp\cc1p5VcC.s 			page 9


 457 01b3 3F       		.byte	63
 458 01b4 40       		.byte	64
 459 01b5 38       		.byte	56
 460 01b6 40       		.byte	64
 461 01b7 3F       		.byte	63
 462 01b8 63       		.byte	99
 463 01b9 14       		.byte	20
 464 01ba 08       		.byte	8
 465 01bb 14       		.byte	20
 466 01bc 63       		.byte	99
 467 01bd 03       		.byte	3
 468 01be 04       		.byte	4
 469 01bf 78       		.byte	120
 470 01c0 04       		.byte	4
 471 01c1 03       		.byte	3
 472 01c2 61       		.byte	97
 473 01c3 59       		.byte	89
 474 01c4 49       		.byte	73
 475 01c5 4D       		.byte	77
 476 01c6 43       		.byte	67
 477 01c7 00       		.byte	0
 478 01c8 7F       		.byte	127
 479 01c9 41       		.byte	65
 480 01ca 41       		.byte	65
 481 01cb 41       		.byte	65
 482 01cc 02       		.byte	2
 483 01cd 04       		.byte	4
 484 01ce 08       		.byte	8
 485 01cf 10       		.byte	16
 486 01d0 20       		.byte	32
 487 01d1 00       		.byte	0
 488 01d2 41       		.byte	65
 489 01d3 41       		.byte	65
 490 01d4 41       		.byte	65
 491 01d5 7F       		.byte	127
 492 01d6 04       		.byte	4
 493 01d7 02       		.byte	2
 494 01d8 01       		.byte	1
 495 01d9 02       		.byte	2
 496 01da 04       		.byte	4
 497 01db 40       		.byte	64
 498 01dc 40       		.byte	64
 499 01dd 40       		.byte	64
 500 01de 40       		.byte	64
 501 01df 40       		.byte	64
 502 01e0 00       		.byte	0
 503 01e1 03       		.byte	3
 504 01e2 07       		.byte	7
 505 01e3 08       		.byte	8
 506 01e4 00       		.byte	0
 507 01e5 20       		.byte	32
 508 01e6 54       		.byte	84
 509 01e7 54       		.byte	84
 510 01e8 78       		.byte	120
 511 01e9 40       		.byte	64
 512 01ea 7F       		.byte	127
 513 01eb 28       		.byte	40
ARM GAS  C:\DOCUME~1\Owner\LOCALS~1\Temp\cc1p5VcC.s 			page 10


 514 01ec 44       		.byte	68
 515 01ed 44       		.byte	68
 516 01ee 38       		.byte	56
 517 01ef 38       		.byte	56
 518 01f0 44       		.byte	68
 519 01f1 44       		.byte	68
 520 01f2 44       		.byte	68
 521 01f3 28       		.byte	40
 522 01f4 38       		.byte	56
 523 01f5 44       		.byte	68
 524 01f6 44       		.byte	68
 525 01f7 28       		.byte	40
 526 01f8 7F       		.byte	127
 527 01f9 38       		.byte	56
 528 01fa 54       		.byte	84
 529 01fb 54       		.byte	84
 530 01fc 54       		.byte	84
 531 01fd 18       		.byte	24
 532 01fe 00       		.byte	0
 533 01ff 08       		.byte	8
 534 0200 7E       		.byte	126
 535 0201 09       		.byte	9
 536 0202 02       		.byte	2
 537 0203 18       		.byte	24
 538 0204 A4       		.byte	-92
 539 0205 A4       		.byte	-92
 540 0206 9C       		.byte	-100
 541 0207 78       		.byte	120
 542 0208 7F       		.byte	127
 543 0209 08       		.byte	8
 544 020a 04       		.byte	4
 545 020b 04       		.byte	4
 546 020c 78       		.byte	120
 547 020d 00       		.byte	0
 548 020e 44       		.byte	68
 549 020f 7D       		.byte	125
 550 0210 40       		.byte	64
 551 0211 00       		.byte	0
 552 0212 20       		.byte	32
 553 0213 40       		.byte	64
 554 0214 40       		.byte	64
 555 0215 3D       		.byte	61
 556 0216 00       		.byte	0
 557 0217 7F       		.byte	127
 558 0218 10       		.byte	16
 559 0219 28       		.byte	40
 560 021a 44       		.byte	68
 561 021b 00       		.byte	0
 562 021c 00       		.byte	0
 563 021d 41       		.byte	65
 564 021e 7F       		.byte	127
 565 021f 40       		.byte	64
 566 0220 00       		.byte	0
 567 0221 7C       		.byte	124
 568 0222 04       		.byte	4
 569 0223 78       		.byte	120
 570 0224 04       		.byte	4
ARM GAS  C:\DOCUME~1\Owner\LOCALS~1\Temp\cc1p5VcC.s 			page 11


 571 0225 78       		.byte	120
 572 0226 7C       		.byte	124
 573 0227 08       		.byte	8
 574 0228 04       		.byte	4
 575 0229 04       		.byte	4
 576 022a 78       		.byte	120
 577 022b 38       		.byte	56
 578 022c 44       		.byte	68
 579 022d 44       		.byte	68
 580 022e 44       		.byte	68
 581 022f 38       		.byte	56
 582 0230 FC       		.byte	-4
 583 0231 18       		.byte	24
 584 0232 24       		.byte	36
 585 0233 24       		.byte	36
 586 0234 18       		.byte	24
 587 0235 18       		.byte	24
 588 0236 24       		.byte	36
 589 0237 24       		.byte	36
 590 0238 18       		.byte	24
 591 0239 FC       		.byte	-4
 592 023a 7C       		.byte	124
 593 023b 08       		.byte	8
 594 023c 04       		.byte	4
 595 023d 04       		.byte	4
 596 023e 08       		.byte	8
 597 023f 48       		.byte	72
 598 0240 54       		.byte	84
 599 0241 54       		.byte	84
 600 0242 54       		.byte	84
 601 0243 24       		.byte	36
 602 0244 04       		.byte	4
 603 0245 04       		.byte	4
 604 0246 3F       		.byte	63
 605 0247 44       		.byte	68
 606 0248 24       		.byte	36
 607 0249 3C       		.byte	60
 608 024a 40       		.byte	64
 609 024b 40       		.byte	64
 610 024c 20       		.byte	32
 611 024d 7C       		.byte	124
 612 024e 1C       		.byte	28
 613 024f 20       		.byte	32
 614 0250 40       		.byte	64
 615 0251 20       		.byte	32
 616 0252 1C       		.byte	28
 617 0253 3C       		.byte	60
 618 0254 40       		.byte	64
 619 0255 30       		.byte	48
 620 0256 40       		.byte	64
 621 0257 3C       		.byte	60
 622 0258 44       		.byte	68
 623 0259 28       		.byte	40
 624 025a 10       		.byte	16
 625 025b 28       		.byte	40
 626 025c 44       		.byte	68
 627 025d 4C       		.byte	76
ARM GAS  C:\DOCUME~1\Owner\LOCALS~1\Temp\cc1p5VcC.s 			page 12


 628 025e 90       		.byte	-112
 629 025f 90       		.byte	-112
 630 0260 90       		.byte	-112
 631 0261 7C       		.byte	124
 632 0262 44       		.byte	68
 633 0263 64       		.byte	100
 634 0264 54       		.byte	84
 635 0265 4C       		.byte	76
 636 0266 44       		.byte	68
 637 0267 00       		.byte	0
 638 0268 08       		.byte	8
 639 0269 36       		.byte	54
 640 026a 41       		.byte	65
 641 026b 00       		.byte	0
 642 026c 00       		.byte	0
 643 026d 00       		.byte	0
 644 026e 77       		.byte	119
 645 026f 00       		.byte	0
 646 0270 00       		.byte	0
 647 0271 00       		.byte	0
 648 0272 41       		.byte	65
 649 0273 36       		.byte	54
 650 0274 08       		.byte	8
 651 0275 00       		.byte	0
 652 0276 02       		.byte	2
 653 0277 01       		.byte	1
 654 0278 02       		.byte	2
 655 0279 04       		.byte	4
 656 027a 02       		.byte	2
 657 027b 3C       		.byte	60
 658 027c 26       		.byte	38
 659 027d 23       		.byte	35
 660 027e 26       		.byte	38
 661 027f 3C       		.byte	60
 662 0280 1E       		.byte	30
 663 0281 A1       		.byte	-95
 664 0282 A1       		.byte	-95
 665 0283 61       		.byte	97
 666 0284 12       		.byte	18
 667 0285 3A       		.byte	58
 668 0286 40       		.byte	64
 669 0287 40       		.byte	64
 670 0288 20       		.byte	32
 671 0289 7A       		.byte	122
 672 028a 38       		.byte	56
 673 028b 54       		.byte	84
 674 028c 54       		.byte	84
 675 028d 55       		.byte	85
 676 028e 59       		.byte	89
 677 028f 21       		.byte	33
 678 0290 55       		.byte	85
 679 0291 55       		.byte	85
 680 0292 79       		.byte	121
 681 0293 41       		.byte	65
 682 0294 22       		.byte	34
 683 0295 54       		.byte	84
 684 0296 54       		.byte	84
ARM GAS  C:\DOCUME~1\Owner\LOCALS~1\Temp\cc1p5VcC.s 			page 13


 685 0297 78       		.byte	120
 686 0298 42       		.byte	66
 687 0299 21       		.byte	33
 688 029a 55       		.byte	85
 689 029b 54       		.byte	84
 690 029c 78       		.byte	120
 691 029d 40       		.byte	64
 692 029e 20       		.byte	32
 693 029f 54       		.byte	84
 694 02a0 55       		.byte	85
 695 02a1 79       		.byte	121
 696 02a2 40       		.byte	64
 697 02a3 0C       		.byte	12
 698 02a4 1E       		.byte	30
 699 02a5 52       		.byte	82
 700 02a6 72       		.byte	114
 701 02a7 12       		.byte	18
 702 02a8 39       		.byte	57
 703 02a9 55       		.byte	85
 704 02aa 55       		.byte	85
 705 02ab 55       		.byte	85
 706 02ac 59       		.byte	89
 707 02ad 39       		.byte	57
 708 02ae 54       		.byte	84
 709 02af 54       		.byte	84
 710 02b0 54       		.byte	84
 711 02b1 59       		.byte	89
 712 02b2 39       		.byte	57
 713 02b3 55       		.byte	85
 714 02b4 54       		.byte	84
 715 02b5 54       		.byte	84
 716 02b6 58       		.byte	88
 717 02b7 00       		.byte	0
 718 02b8 00       		.byte	0
 719 02b9 45       		.byte	69
 720 02ba 7C       		.byte	124
 721 02bb 41       		.byte	65
 722 02bc 00       		.byte	0
 723 02bd 02       		.byte	2
 724 02be 45       		.byte	69
 725 02bf 7D       		.byte	125
 726 02c0 42       		.byte	66
 727 02c1 00       		.byte	0
 728 02c2 01       		.byte	1
 729 02c3 45       		.byte	69
 730 02c4 7C       		.byte	124
 731 02c5 40       		.byte	64
 732 02c6 7D       		.byte	125
 733 02c7 12       		.byte	18
 734 02c8 11       		.byte	17
 735 02c9 12       		.byte	18
 736 02ca 7D       		.byte	125
 737 02cb F0       		.byte	-16
 738 02cc 28       		.byte	40
 739 02cd 25       		.byte	37
 740 02ce 28       		.byte	40
 741 02cf F0       		.byte	-16
ARM GAS  C:\DOCUME~1\Owner\LOCALS~1\Temp\cc1p5VcC.s 			page 14


 742 02d0 7C       		.byte	124
 743 02d1 54       		.byte	84
 744 02d2 55       		.byte	85
 745 02d3 45       		.byte	69
 746 02d4 00       		.byte	0
 747 02d5 20       		.byte	32
 748 02d6 54       		.byte	84
 749 02d7 54       		.byte	84
 750 02d8 7C       		.byte	124
 751 02d9 54       		.byte	84
 752 02da 7C       		.byte	124
 753 02db 0A       		.byte	10
 754 02dc 09       		.byte	9
 755 02dd 7F       		.byte	127
 756 02de 49       		.byte	73
 757 02df 32       		.byte	50
 758 02e0 49       		.byte	73
 759 02e1 49       		.byte	73
 760 02e2 49       		.byte	73
 761 02e3 32       		.byte	50
 762 02e4 3A       		.byte	58
 763 02e5 44       		.byte	68
 764 02e6 44       		.byte	68
 765 02e7 44       		.byte	68
 766 02e8 3A       		.byte	58
 767 02e9 32       		.byte	50
 768 02ea 4A       		.byte	74
 769 02eb 48       		.byte	72
 770 02ec 48       		.byte	72
 771 02ed 30       		.byte	48
 772 02ee 3A       		.byte	58
 773 02ef 41       		.byte	65
 774 02f0 41       		.byte	65
 775 02f1 21       		.byte	33
 776 02f2 7A       		.byte	122
 777 02f3 3A       		.byte	58
 778 02f4 42       		.byte	66
 779 02f5 40       		.byte	64
 780 02f6 20       		.byte	32
 781 02f7 78       		.byte	120
 782 02f8 00       		.byte	0
 783 02f9 9D       		.byte	-99
 784 02fa A0       		.byte	-96
 785 02fb A0       		.byte	-96
 786 02fc 7D       		.byte	125
 787 02fd 3D       		.byte	61
 788 02fe 42       		.byte	66
 789 02ff 42       		.byte	66
 790 0300 42       		.byte	66
 791 0301 3D       		.byte	61
 792 0302 3D       		.byte	61
 793 0303 40       		.byte	64
 794 0304 40       		.byte	64
 795 0305 40       		.byte	64
 796 0306 3D       		.byte	61
 797 0307 3C       		.byte	60
 798 0308 24       		.byte	36
ARM GAS  C:\DOCUME~1\Owner\LOCALS~1\Temp\cc1p5VcC.s 			page 15


 799 0309 FF       		.byte	-1
 800 030a 24       		.byte	36
 801 030b 24       		.byte	36
 802 030c 48       		.byte	72
 803 030d 7E       		.byte	126
 804 030e 49       		.byte	73
 805 030f 43       		.byte	67
 806 0310 66       		.byte	102
 807 0311 2B       		.byte	43
 808 0312 2F       		.byte	47
 809 0313 FC       		.byte	-4
 810 0314 2F       		.byte	47
 811 0315 2B       		.byte	43
 812 0316 FF       		.byte	-1
 813 0317 09       		.byte	9
 814 0318 29       		.byte	41
 815 0319 F6       		.byte	-10
 816 031a 20       		.byte	32
 817 031b C0       		.byte	-64
 818 031c 88       		.byte	-120
 819 031d 7E       		.byte	126
 820 031e 09       		.byte	9
 821 031f 03       		.byte	3
 822 0320 20       		.byte	32
 823 0321 54       		.byte	84
 824 0322 54       		.byte	84
 825 0323 79       		.byte	121
 826 0324 41       		.byte	65
 827 0325 00       		.byte	0
 828 0326 00       		.byte	0
 829 0327 44       		.byte	68
 830 0328 7D       		.byte	125
 831 0329 41       		.byte	65
 832 032a 30       		.byte	48
 833 032b 48       		.byte	72
 834 032c 48       		.byte	72
 835 032d 4A       		.byte	74
 836 032e 32       		.byte	50
 837 032f 38       		.byte	56
 838 0330 40       		.byte	64
 839 0331 40       		.byte	64
 840 0332 22       		.byte	34
 841 0333 7A       		.byte	122
 842 0334 00       		.byte	0
 843 0335 7A       		.byte	122
 844 0336 0A       		.byte	10
 845 0337 0A       		.byte	10
 846 0338 72       		.byte	114
 847 0339 7D       		.byte	125
 848 033a 0D       		.byte	13
 849 033b 19       		.byte	25
 850 033c 31       		.byte	49
 851 033d 7D       		.byte	125
 852 033e 26       		.byte	38
 853 033f 29       		.byte	41
 854 0340 29       		.byte	41
 855 0341 2F       		.byte	47
ARM GAS  C:\DOCUME~1\Owner\LOCALS~1\Temp\cc1p5VcC.s 			page 16


 856 0342 28       		.byte	40
 857 0343 26       		.byte	38
 858 0344 29       		.byte	41
 859 0345 29       		.byte	41
 860 0346 29       		.byte	41
 861 0347 26       		.byte	38
 862 0348 30       		.byte	48
 863 0349 48       		.byte	72
 864 034a 4D       		.byte	77
 865 034b 40       		.byte	64
 866 034c 20       		.byte	32
 867 034d 38       		.byte	56
 868 034e 08       		.byte	8
 869 034f 08       		.byte	8
 870 0350 08       		.byte	8
 871 0351 08       		.byte	8
 872 0352 08       		.byte	8
 873 0353 08       		.byte	8
 874 0354 08       		.byte	8
 875 0355 08       		.byte	8
 876 0356 38       		.byte	56
 877 0357 2F       		.byte	47
 878 0358 10       		.byte	16
 879 0359 C8       		.byte	-56
 880 035a AC       		.byte	-84
 881 035b BA       		.byte	-70
 882 035c 2F       		.byte	47
 883 035d 10       		.byte	16
 884 035e 28       		.byte	40
 885 035f 34       		.byte	52
 886 0360 FA       		.byte	-6
 887 0361 00       		.byte	0
 888 0362 00       		.byte	0
 889 0363 7B       		.byte	123
 890 0364 00       		.byte	0
 891 0365 00       		.byte	0
 892 0366 08       		.byte	8
 893 0367 14       		.byte	20
 894 0368 2A       		.byte	42
 895 0369 14       		.byte	20
 896 036a 22       		.byte	34
 897 036b 22       		.byte	34
 898 036c 14       		.byte	20
 899 036d 2A       		.byte	42
 900 036e 14       		.byte	20
 901 036f 08       		.byte	8
 902 0370 AA       		.byte	-86
 903 0371 00       		.byte	0
 904 0372 55       		.byte	85
 905 0373 00       		.byte	0
 906 0374 AA       		.byte	-86
 907 0375 AA       		.byte	-86
 908 0376 55       		.byte	85
 909 0377 AA       		.byte	-86
 910 0378 55       		.byte	85
 911 0379 AA       		.byte	-86
 912 037a 00       		.byte	0
ARM GAS  C:\DOCUME~1\Owner\LOCALS~1\Temp\cc1p5VcC.s 			page 17


 913 037b 00       		.byte	0
 914 037c 00       		.byte	0
 915 037d FF       		.byte	-1
 916 037e 00       		.byte	0
 917 037f 10       		.byte	16
 918 0380 10       		.byte	16
 919 0381 10       		.byte	16
 920 0382 FF       		.byte	-1
 921 0383 00       		.byte	0
 922 0384 14       		.byte	20
 923 0385 14       		.byte	20
 924 0386 14       		.byte	20
 925 0387 FF       		.byte	-1
 926 0388 00       		.byte	0
 927 0389 10       		.byte	16
 928 038a 10       		.byte	16
 929 038b FF       		.byte	-1
 930 038c 00       		.byte	0
 931 038d FF       		.byte	-1
 932 038e 10       		.byte	16
 933 038f 10       		.byte	16
 934 0390 F0       		.byte	-16
 935 0391 10       		.byte	16
 936 0392 F0       		.byte	-16
 937 0393 14       		.byte	20
 938 0394 14       		.byte	20
 939 0395 14       		.byte	20
 940 0396 FC       		.byte	-4
 941 0397 00       		.byte	0
 942 0398 14       		.byte	20
 943 0399 14       		.byte	20
 944 039a F7       		.byte	-9
 945 039b 00       		.byte	0
 946 039c FF       		.byte	-1
 947 039d 00       		.byte	0
 948 039e 00       		.byte	0
 949 039f FF       		.byte	-1
 950 03a0 00       		.byte	0
 951 03a1 FF       		.byte	-1
 952 03a2 14       		.byte	20
 953 03a3 14       		.byte	20
 954 03a4 F4       		.byte	-12
 955 03a5 04       		.byte	4
 956 03a6 FC       		.byte	-4
 957 03a7 14       		.byte	20
 958 03a8 14       		.byte	20
 959 03a9 17       		.byte	23
 960 03aa 10       		.byte	16
 961 03ab 1F       		.byte	31
 962 03ac 10       		.byte	16
 963 03ad 10       		.byte	16
 964 03ae 1F       		.byte	31
 965 03af 10       		.byte	16
 966 03b0 1F       		.byte	31
 967 03b1 14       		.byte	20
 968 03b2 14       		.byte	20
 969 03b3 14       		.byte	20
ARM GAS  C:\DOCUME~1\Owner\LOCALS~1\Temp\cc1p5VcC.s 			page 18


 970 03b4 1F       		.byte	31
 971 03b5 00       		.byte	0
 972 03b6 10       		.byte	16
 973 03b7 10       		.byte	16
 974 03b8 10       		.byte	16
 975 03b9 F0       		.byte	-16
 976 03ba 00       		.byte	0
 977 03bb 00       		.byte	0
 978 03bc 00       		.byte	0
 979 03bd 00       		.byte	0
 980 03be 1F       		.byte	31
 981 03bf 10       		.byte	16
 982 03c0 10       		.byte	16
 983 03c1 10       		.byte	16
 984 03c2 10       		.byte	16
 985 03c3 1F       		.byte	31
 986 03c4 10       		.byte	16
 987 03c5 10       		.byte	16
 988 03c6 10       		.byte	16
 989 03c7 10       		.byte	16
 990 03c8 F0       		.byte	-16
 991 03c9 10       		.byte	16
 992 03ca 00       		.byte	0
 993 03cb 00       		.byte	0
 994 03cc 00       		.byte	0
 995 03cd FF       		.byte	-1
 996 03ce 10       		.byte	16
 997 03cf 10       		.byte	16
 998 03d0 10       		.byte	16
 999 03d1 10       		.byte	16
 1000 03d2 10       		.byte	16
 1001 03d3 10       		.byte	16
 1002 03d4 10       		.byte	16
 1003 03d5 10       		.byte	16
 1004 03d6 10       		.byte	16
 1005 03d7 FF       		.byte	-1
 1006 03d8 10       		.byte	16
 1007 03d9 00       		.byte	0
 1008 03da 00       		.byte	0
 1009 03db 00       		.byte	0
 1010 03dc FF       		.byte	-1
 1011 03dd 14       		.byte	20
 1012 03de 00       		.byte	0
 1013 03df 00       		.byte	0
 1014 03e0 FF       		.byte	-1
 1015 03e1 00       		.byte	0
 1016 03e2 FF       		.byte	-1
 1017 03e3 00       		.byte	0
 1018 03e4 00       		.byte	0
 1019 03e5 1F       		.byte	31
 1020 03e6 10       		.byte	16
 1021 03e7 17       		.byte	23
 1022 03e8 00       		.byte	0
 1023 03e9 00       		.byte	0
 1024 03ea FC       		.byte	-4
 1025 03eb 04       		.byte	4
 1026 03ec F4       		.byte	-12
ARM GAS  C:\DOCUME~1\Owner\LOCALS~1\Temp\cc1p5VcC.s 			page 19


 1027 03ed 14       		.byte	20
 1028 03ee 14       		.byte	20
 1029 03ef 17       		.byte	23
 1030 03f0 10       		.byte	16
 1031 03f1 17       		.byte	23
 1032 03f2 14       		.byte	20
 1033 03f3 14       		.byte	20
 1034 03f4 F4       		.byte	-12
 1035 03f5 04       		.byte	4
 1036 03f6 F4       		.byte	-12
 1037 03f7 00       		.byte	0
 1038 03f8 00       		.byte	0
 1039 03f9 FF       		.byte	-1
 1040 03fa 00       		.byte	0
 1041 03fb F7       		.byte	-9
 1042 03fc 14       		.byte	20
 1043 03fd 14       		.byte	20
 1044 03fe 14       		.byte	20
 1045 03ff 14       		.byte	20
 1046 0400 14       		.byte	20
 1047 0401 14       		.byte	20
 1048 0402 14       		.byte	20
 1049 0403 F7       		.byte	-9
 1050 0404 00       		.byte	0
 1051 0405 F7       		.byte	-9
 1052 0406 14       		.byte	20
 1053 0407 14       		.byte	20
 1054 0408 14       		.byte	20
 1055 0409 17       		.byte	23
 1056 040a 14       		.byte	20
 1057 040b 10       		.byte	16
 1058 040c 10       		.byte	16
 1059 040d 1F       		.byte	31
 1060 040e 10       		.byte	16
 1061 040f 1F       		.byte	31
 1062 0410 14       		.byte	20
 1063 0411 14       		.byte	20
 1064 0412 14       		.byte	20
 1065 0413 F4       		.byte	-12
 1066 0414 14       		.byte	20
 1067 0415 10       		.byte	16
 1068 0416 10       		.byte	16
 1069 0417 F0       		.byte	-16
 1070 0418 10       		.byte	16
 1071 0419 F0       		.byte	-16
 1072 041a 00       		.byte	0
 1073 041b 00       		.byte	0
 1074 041c 1F       		.byte	31
 1075 041d 10       		.byte	16
 1076 041e 1F       		.byte	31
 1077 041f 00       		.byte	0
 1078 0420 00       		.byte	0
 1079 0421 00       		.byte	0
 1080 0422 1F       		.byte	31
 1081 0423 14       		.byte	20
 1082 0424 00       		.byte	0
 1083 0425 00       		.byte	0
ARM GAS  C:\DOCUME~1\Owner\LOCALS~1\Temp\cc1p5VcC.s 			page 20


 1084 0426 00       		.byte	0
 1085 0427 FC       		.byte	-4
 1086 0428 14       		.byte	20
 1087 0429 00       		.byte	0
 1088 042a 00       		.byte	0
 1089 042b F0       		.byte	-16
 1090 042c 10       		.byte	16
 1091 042d F0       		.byte	-16
 1092 042e 10       		.byte	16
 1093 042f 10       		.byte	16
 1094 0430 FF       		.byte	-1
 1095 0431 10       		.byte	16
 1096 0432 FF       		.byte	-1
 1097 0433 14       		.byte	20
 1098 0434 14       		.byte	20
 1099 0435 14       		.byte	20
 1100 0436 FF       		.byte	-1
 1101 0437 14       		.byte	20
 1102 0438 10       		.byte	16
 1103 0439 10       		.byte	16
 1104 043a 10       		.byte	16
 1105 043b 1F       		.byte	31
 1106 043c 00       		.byte	0
 1107 043d 00       		.byte	0
 1108 043e 00       		.byte	0
 1109 043f 00       		.byte	0
 1110 0440 F0       		.byte	-16
 1111 0441 10       		.byte	16
 1112 0442 FF       		.byte	-1
 1113 0443 FF       		.byte	-1
 1114 0444 FF       		.byte	-1
 1115 0445 FF       		.byte	-1
 1116 0446 FF       		.byte	-1
 1117 0447 F0       		.byte	-16
 1118 0448 F0       		.byte	-16
 1119 0449 F0       		.byte	-16
 1120 044a F0       		.byte	-16
 1121 044b F0       		.byte	-16
 1122 044c FF       		.byte	-1
 1123 044d FF       		.byte	-1
 1124 044e FF       		.byte	-1
 1125 044f 00       		.byte	0
 1126 0450 00       		.byte	0
 1127 0451 00       		.byte	0
 1128 0452 00       		.byte	0
 1129 0453 00       		.byte	0
 1130 0454 FF       		.byte	-1
 1131 0455 FF       		.byte	-1
 1132 0456 0F       		.byte	15
 1133 0457 0F       		.byte	15
 1134 0458 0F       		.byte	15
 1135 0459 0F       		.byte	15
 1136 045a 0F       		.byte	15
 1137 045b 38       		.byte	56
 1138 045c 44       		.byte	68
 1139 045d 44       		.byte	68
 1140 045e 38       		.byte	56
ARM GAS  C:\DOCUME~1\Owner\LOCALS~1\Temp\cc1p5VcC.s 			page 21


 1141 045f 44       		.byte	68
 1142 0460 FC       		.byte	-4
 1143 0461 4A       		.byte	74
 1144 0462 4A       		.byte	74
 1145 0463 4A       		.byte	74
 1146 0464 34       		.byte	52
 1147 0465 7E       		.byte	126
 1148 0466 02       		.byte	2
 1149 0467 02       		.byte	2
 1150 0468 06       		.byte	6
 1151 0469 06       		.byte	6
 1152 046a 02       		.byte	2
 1153 046b 7E       		.byte	126
 1154 046c 02       		.byte	2
 1155 046d 7E       		.byte	126
 1156 046e 02       		.byte	2
 1157 046f 63       		.byte	99
 1158 0470 55       		.byte	85
 1159 0471 49       		.byte	73
 1160 0472 41       		.byte	65
 1161 0473 63       		.byte	99
 1162 0474 38       		.byte	56
 1163 0475 44       		.byte	68
 1164 0476 44       		.byte	68
 1165 0477 3C       		.byte	60
 1166 0478 04       		.byte	4
 1167 0479 40       		.byte	64
 1168 047a 7E       		.byte	126
 1169 047b 20       		.byte	32
 1170 047c 1E       		.byte	30
 1171 047d 20       		.byte	32
 1172 047e 06       		.byte	6
 1173 047f 02       		.byte	2
 1174 0480 7E       		.byte	126
 1175 0481 02       		.byte	2
 1176 0482 02       		.byte	2
 1177 0483 99       		.byte	-103
 1178 0484 A5       		.byte	-91
 1179 0485 E7       		.byte	-25
 1180 0486 A5       		.byte	-91
 1181 0487 99       		.byte	-103
 1182 0488 1C       		.byte	28
 1183 0489 2A       		.byte	42
 1184 048a 49       		.byte	73
 1185 048b 2A       		.byte	42
 1186 048c 1C       		.byte	28
 1187 048d 4C       		.byte	76
 1188 048e 72       		.byte	114
 1189 048f 01       		.byte	1
 1190 0490 72       		.byte	114
 1191 0491 4C       		.byte	76
 1192 0492 30       		.byte	48
 1193 0493 4A       		.byte	74
 1194 0494 4D       		.byte	77
 1195 0495 4D       		.byte	77
 1196 0496 30       		.byte	48
 1197 0497 30       		.byte	48
ARM GAS  C:\DOCUME~1\Owner\LOCALS~1\Temp\cc1p5VcC.s 			page 22


 1198 0498 48       		.byte	72
 1199 0499 78       		.byte	120
 1200 049a 48       		.byte	72
 1201 049b 30       		.byte	48
 1202 049c BC       		.byte	-68
 1203 049d 62       		.byte	98
 1204 049e 5A       		.byte	90
 1205 049f 46       		.byte	70
 1206 04a0 3D       		.byte	61
 1207 04a1 3E       		.byte	62
 1208 04a2 49       		.byte	73
 1209 04a3 49       		.byte	73
 1210 04a4 49       		.byte	73
 1211 04a5 00       		.byte	0
 1212 04a6 7E       		.byte	126
 1213 04a7 01       		.byte	1
 1214 04a8 01       		.byte	1
 1215 04a9 01       		.byte	1
 1216 04aa 7E       		.byte	126
 1217 04ab 2A       		.byte	42
 1218 04ac 2A       		.byte	42
 1219 04ad 2A       		.byte	42
 1220 04ae 2A       		.byte	42
 1221 04af 2A       		.byte	42
 1222 04b0 44       		.byte	68
 1223 04b1 44       		.byte	68
 1224 04b2 5F       		.byte	95
 1225 04b3 44       		.byte	68
 1226 04b4 44       		.byte	68
 1227 04b5 40       		.byte	64
 1228 04b6 51       		.byte	81
 1229 04b7 4A       		.byte	74
 1230 04b8 44       		.byte	68
 1231 04b9 40       		.byte	64
 1232 04ba 40       		.byte	64
 1233 04bb 44       		.byte	68
 1234 04bc 4A       		.byte	74
 1235 04bd 51       		.byte	81
 1236 04be 40       		.byte	64
 1237 04bf 00       		.byte	0
 1238 04c0 00       		.byte	0
 1239 04c1 FF       		.byte	-1
 1240 04c2 01       		.byte	1
 1241 04c3 03       		.byte	3
 1242 04c4 E0       		.byte	-32
 1243 04c5 80       		.byte	-128
 1244 04c6 FF       		.byte	-1
 1245 04c7 00       		.byte	0
 1246 04c8 00       		.byte	0
 1247 04c9 08       		.byte	8
 1248 04ca 08       		.byte	8
 1249 04cb 6B       		.byte	107
 1250 04cc 6B       		.byte	107
 1251 04cd 08       		.byte	8
 1252 04ce 36       		.byte	54
 1253 04cf 12       		.byte	18
 1254 04d0 36       		.byte	54
ARM GAS  C:\DOCUME~1\Owner\LOCALS~1\Temp\cc1p5VcC.s 			page 23


 1255 04d1 24       		.byte	36
 1256 04d2 36       		.byte	54
 1257 04d3 06       		.byte	6
 1258 04d4 0F       		.byte	15
 1259 04d5 09       		.byte	9
 1260 04d6 0F       		.byte	15
 1261 04d7 06       		.byte	6
 1262 04d8 00       		.byte	0
 1263 04d9 00       		.byte	0
 1264 04da 18       		.byte	24
 1265 04db 18       		.byte	24
 1266 04dc 00       		.byte	0
 1267 04dd 00       		.byte	0
 1268 04de 00       		.byte	0
 1269 04df 10       		.byte	16
 1270 04e0 10       		.byte	16
 1271 04e1 00       		.byte	0
 1272 04e2 30       		.byte	48
 1273 04e3 40       		.byte	64
 1274 04e4 FF       		.byte	-1
 1275 04e5 01       		.byte	1
 1276 04e6 01       		.byte	1
 1277 04e7 00       		.byte	0
 1278 04e8 1F       		.byte	31
 1279 04e9 01       		.byte	1
 1280 04ea 01       		.byte	1
 1281 04eb 1E       		.byte	30
 1282 04ec 00       		.byte	0
 1283 04ed 19       		.byte	25
 1284 04ee 1D       		.byte	29
 1285 04ef 17       		.byte	23
 1286 04f0 12       		.byte	18
 1287 04f1 00       		.byte	0
 1288 04f2 3C       		.byte	60
 1289 04f3 3C       		.byte	60
 1290 04f4 3C       		.byte	60
 1291 04f5 3C       		.byte	60
 1292 04f6 00       		.byte	0
 1293 04f7 00       		.byte	0
 1294 04f8 00       		.byte	0
 1295 04f9 00       		.byte	0
 1296 04fa 00       		.byte	0
 1297              		.bss
 1298              	_i2caddr:
 1299 0000 00       		.space	1
 1300              		.data
 1301              		.align	2
 1302              		.type	SSD1306_buffer, %object
 1303              		.size	SSD1306_buffer, 1025
 1304              	SSD1306_buffer:
 1305 0000 40       		.byte	64
 1306 0001 00000000 		.space	1024
 1306      00000000 
 1306      00000000 
 1306      00000000 
 1306      00000000 
 1307 0401 000000   		.align	2
ARM GAS  C:\DOCUME~1\Owner\LOCALS~1\Temp\cc1p5VcC.s 			page 24


 1308              		.type	_displaybuf, %object
 1309              		.size	_displaybuf, 4
 1310              	_displaybuf:
 1311 0404 01000000 		.word	SSD1306_buffer+1
 1312              		.align	1
 1313              		.type	_displaybuf_size, %object
 1314              		.size	_displaybuf_size, 2
 1315              	_displaybuf_size:
 1316 0408 0004     		.short	1024
 1317 040a 0000     		.section	.rodata
 1318 04fb 00       		.align	2
 1319              	.LC0:
 1320 04fc 00       		.byte	0
 1321 04fd AE       		.byte	-82
 1322 04fe D5       		.byte	-43
 1323 04ff 80       		.byte	-128
 1324 0500 A8       		.byte	-88
 1325 0501 3F       		.byte	63
 1326 0502 D3       		.byte	-45
 1327 0503 00       		.byte	0
 1328 0504 40       		.byte	64
 1329 0505 8D       		.byte	-115
 1330 0506 14       		.byte	20
 1331 0507 20       		.byte	32
 1332 0508 00       		.byte	0
 1333 0509 A1       		.byte	-95
 1334 050a C8       		.byte	-56
 1335 050b DA       		.byte	-38
 1336 050c 12       		.byte	18
 1337 050d 81       		.byte	-127
 1338 050e CF       		.byte	-49
 1339 050f D9       		.byte	-39
 1340 0510 F1       		.byte	-15
 1341 0511 DB       		.byte	-37
 1342 0512 40       		.byte	64
 1343 0513 A4       		.byte	-92
 1344 0514 A6       		.byte	-90
 1345 0515 AF       		.byte	-81
 1346              		.section	.text.display_init,"ax",%progbits
 1347              		.align	2
 1348              		.global	display_init
 1349              		.code	16
 1350              		.thumb_func
 1351              		.type	display_init, %function
 1352              	display_init:
 1353              	.LFB33:
 1354              		.file 1 ".\\ssd1306.c"
   1:.\ssd1306.c   **** /*
   2:.\ssd1306.c   **** 
   3:.\ssd1306.c   **** SSD1306 I2C driver
   4:.\ssd1306.c   **** 
   5:.\ssd1306.c   **** Derk Steggewentz, 3/2015 
   6:.\ssd1306.c   **** 
   7:.\ssd1306.c   **** This is a I2C driver for SSD1306 OLED displays including graphics library.
   8:.\ssd1306.c   **** 
   9:.\ssd1306.c   **** 
  10:.\ssd1306.c   **** The graphics library part (gfx_ functions) is based on the Adafruit graphics library.
ARM GAS  C:\DOCUME~1\Owner\LOCALS~1\Temp\cc1p5VcC.s 			page 25


  11:.\ssd1306.c   **** 
  12:.\ssd1306.c   **** 
  13:.\ssd1306.c   **** No license restrictions on my part, do whatever you want as long as you follow the inherited
  14:.\ssd1306.c   **** license requirements (applying to the Adafruit graphics library part).
  15:.\ssd1306.c   **** 
  16:.\ssd1306.c   **** 
  17:.\ssd1306.c   **** ===== derived license (for graphics library) ======
  18:.\ssd1306.c   **** 
  19:.\ssd1306.c   **** Copyright (c) 2013 Adafruit Industries. All rights reserved.
  20:.\ssd1306.c   **** 
  21:.\ssd1306.c   **** Redistribution and use in source and binary forms, with or without
  22:.\ssd1306.c   **** modification, are permitted provided that the following conditions are met:
  23:.\ssd1306.c   **** - Redistributions of source code must retain the above copyright notice,
  24:.\ssd1306.c   **** this list of conditions and the following disclaimer.
  25:.\ssd1306.c   **** - Redistributions in binary form must reproduce the above copyright notice,
  26:.\ssd1306.c   **** this list of conditions and the following disclaimer in the documentation
  27:.\ssd1306.c   **** and/or other materials provided with the distribution.
  28:.\ssd1306.c   **** THIS SOFTWARE IS PROVIDED BY THE COPYRIGHT HOLDERS AND CONTRIBUTORS "AS IS"
  29:.\ssd1306.c   **** AND ANY EXPRESS OR IMPLIED WARRANTIES, INCLUDING, BUT NOT LIMITED TO, THE
  30:.\ssd1306.c   **** IMPLIED WARRANTIES OF MERCHANTABILITY AND FITNESS FOR A PARTICULAR PURPOSE
  31:.\ssd1306.c   **** ARE DISCLAIMED. IN NO EVENT SHALL THE COPYRIGHT HOLDER OR CONTRIBUTORS BE
  32:.\ssd1306.c   **** LIABLE FOR ANY DIRECT, INDIRECT, INCIDENTAL, SPECIAL, EXEMPLARY, OR
  33:.\ssd1306.c   **** CONSEQUENTIAL DAMAGES (INCLUDING, BUT NOT LIMITED TO, PROCUREMENT OF
  34:.\ssd1306.c   **** SUBSTITUTE GOODS OR SERVICES; LOSS OF USE, DATA, OR PROFITS; OR BUSINESS
  35:.\ssd1306.c   **** INTERRUPTION) HOWEVER CAUSED AND ON ANY THEORY OF LIABILITY, WHETHER IN
  36:.\ssd1306.c   **** CONTRACT, STRICT LIABILITY, OR TORT (INCLUDING NEGLIGENCE OR OTHERWISE)
  37:.\ssd1306.c   **** ARISING IN ANY WAY OUT OF THE USE OF THIS SOFTWARE, EVEN IF ADVISED OF THE
  38:.\ssd1306.c   **** POSSIBILITY OF SUCH DAMAGE.
  39:.\ssd1306.c   **** 
  40:.\ssd1306.c   **** */
  41:.\ssd1306.c   **** 
  42:.\ssd1306.c   **** 
  43:.\ssd1306.c   **** #include <project.h>
  44:.\ssd1306.c   **** #include <stdlib.h>
  45:.\ssd1306.c   **** 
  46:.\ssd1306.c   **** #include "font.h"
  47:.\ssd1306.c   **** #include "ssd1306.h"
  48:.\ssd1306.c   **** 
  49:.\ssd1306.c   **** 
  50:.\ssd1306.c   **** #define DISPLAYWIDTH 128
  51:.\ssd1306.c   **** #define DISPLAYHEIGHT 64
  52:.\ssd1306.c   ****     
  53:.\ssd1306.c   **** #define SSD1306_SETCONTRAST 0x81
  54:.\ssd1306.c   **** #define SSD1306_DISPLAYALLON_RESUME 0xA4
  55:.\ssd1306.c   **** #define SSD1306_DISPLAYALLON 0xA5
  56:.\ssd1306.c   **** #define SSD1306_NORMALDISPLAY 0xA6
  57:.\ssd1306.c   **** #define SSD1306_INVERTDISPLAY 0xA7
  58:.\ssd1306.c   **** #define SSD1306_DISPLAYOFF 0xAE
  59:.\ssd1306.c   **** #define SSD1306_DISPLAYON 0xAF
  60:.\ssd1306.c   **** #define SSD1306_SETDISPLAYOFFSET 0xD3
  61:.\ssd1306.c   **** #define SSD1306_SETCOMPINS 0xDA
  62:.\ssd1306.c   **** #define SSD1306_SETVCOMDETECT 0xDB
  63:.\ssd1306.c   **** #define SSD1306_SETDISPLAYCLOCKDIV 0xD5
  64:.\ssd1306.c   **** #define SSD1306_SETPRECHARGE 0xD9
  65:.\ssd1306.c   **** #define SSD1306_SETMULTIPLEX 0xA8
  66:.\ssd1306.c   **** #define SSD1306_SETLOWCOLUMN 0x00
  67:.\ssd1306.c   **** #define SSD1306_SETHIGHCOLUMN 0x10
ARM GAS  C:\DOCUME~1\Owner\LOCALS~1\Temp\cc1p5VcC.s 			page 26


  68:.\ssd1306.c   **** #define SSD1306_SETSTARTLINE 0x40
  69:.\ssd1306.c   **** #define SSD1306_MEMORYMODE 0x20
  70:.\ssd1306.c   **** #define SSD1306_COLUMNADDR 0x21
  71:.\ssd1306.c   **** #define SSD1306_PAGEADDR 0x22
  72:.\ssd1306.c   **** #define SSD1306_COMSCANINC 0xC0
  73:.\ssd1306.c   **** #define SSD1306_COMSCANDEC 0xC8
  74:.\ssd1306.c   **** #define SSD1306_SEGREMAP 0xA0
  75:.\ssd1306.c   **** #define SSD1306_CHARGEPUMP 0x8D
  76:.\ssd1306.c   **** #define SSD1306_EXTERNALVCC 0x1
  77:.\ssd1306.c   **** #define SSD1306_SWITCHCAPVCC 0x2
  78:.\ssd1306.c   **** #define SSD1306_ACTIVATE_SCROLL 0x2F
  79:.\ssd1306.c   **** #define SSD1306_DEACTIVATE_SCROLL 0x2E
  80:.\ssd1306.c   **** 
  81:.\ssd1306.c   **** 
  82:.\ssd1306.c   **** // I2C result status
  83:.\ssd1306.c   **** #define TRANSFER_CMPLT    (0x00u)
  84:.\ssd1306.c   **** #define TRANSFER_ERROR    (0xFFu)
  85:.\ssd1306.c   **** 
  86:.\ssd1306.c   **** 
  87:.\ssd1306.c   **** static uint32 display_write_buf( uint8* buf, uint16_t size );
  88:.\ssd1306.c   **** 
  89:.\ssd1306.c   **** void gfx_init( int16_t width, int16_t height );
  90:.\ssd1306.c   **** 
  91:.\ssd1306.c   **** static uint8 _i2caddr;
  92:.\ssd1306.c   **** 
  93:.\ssd1306.c   **** // display memory buffer ( === MUST INCLUDE === the preceding I2C 0x40 control byte for the display
  94:.\ssd1306.c   **** static uint8_t SSD1306_buffer[DISPLAYHEIGHT * DISPLAYWIDTH / 8 + 1] = { 0x40 };
  95:.\ssd1306.c   **** // pointer to actual display memory buffer
  96:.\ssd1306.c   **** static uint8_t* _displaybuf = SSD1306_buffer+1;
  97:.\ssd1306.c   **** static uint16_t _displaybuf_size = sizeof(SSD1306_buffer) - 1;
  98:.\ssd1306.c   **** 
  99:.\ssd1306.c   **** // see data sheet page 25 for Graphic Display Data RAM organization
 100:.\ssd1306.c   **** // 8 pages, each page a row of DISPLAYWIDTH bytes
 101:.\ssd1306.c   **** // start address of of row: y/8*DISPLAYWIDTH
 102:.\ssd1306.c   **** // x pos in row: == x 
 103:.\ssd1306.c   **** #define GDDRAM_ADDRESS(X,Y) ((_displaybuf)+((Y)/8)*(DISPLAYWIDTH)+(X))
 104:.\ssd1306.c   **** 
 105:.\ssd1306.c   **** // lower 3 bit of y determine vertical pixel position (pos 0...7) in GDDRAM byte
 106:.\ssd1306.c   **** // (y&0x07) == position of pixel on row (page). LSB is top, MSB bottom
 107:.\ssd1306.c   **** #define GDDRAM_PIXMASK(Y) (1 << ((Y)&0x07))
 108:.\ssd1306.c   **** 
 109:.\ssd1306.c   **** #define PIXEL_ON(X,Y) (*GDDRAM_ADDRESS(x,y) |= GDDRAM_PIXMASK(y))
 110:.\ssd1306.c   **** #define PIXEL_OFF(X,Y) (*GDDRAM_ADDRESS(x,y) &= ~GDDRAM_PIXMASK(y))
 111:.\ssd1306.c   **** #define PIXEL_TOGGLE(X,Y) (*GDDRAM_ADDRESS(x,y) ^= GDDRAM_PIXMASK(y)) 
 112:.\ssd1306.c   **** 
 113:.\ssd1306.c   **** 
 114:.\ssd1306.c   **** 
 115:.\ssd1306.c   **** // call before first use of other functions
 116:.\ssd1306.c   **** void display_init( uint8 i2caddr ){
 1355              		.loc 1 116 0
 1356              		.cfi_startproc
 1357 0000 80B5     		push	{r7, lr}
 1358              		.cfi_def_cfa_offset 8
 1359              		.cfi_offset 7, -8
 1360              		.cfi_offset 14, -4
 1361 0002 8AB0     		sub	sp, sp, #40
 1362              		.cfi_def_cfa_offset 48
ARM GAS  C:\DOCUME~1\Owner\LOCALS~1\Temp\cc1p5VcC.s 			page 27


 1363 0004 00AF     		add	r7, sp, #0
 1364              		.cfi_def_cfa_register 7
 1365 0006 021C     		mov	r2, r0
 1366 0008 FB1D     		add	r3, r7, #7
 1367 000a 1A70     		strb	r2, [r3]
 117:.\ssd1306.c   ****     
 118:.\ssd1306.c   ****     _i2caddr = i2caddr;
 1368              		.loc 1 118 0
 1369 000c 0D4B     		ldr	r3, .L2
 1370 000e FA1D     		add	r2, r7, #7
 1371 0010 1278     		ldrb	r2, [r2]
 1372 0012 1A70     		strb	r2, [r3]
 119:.\ssd1306.c   ****     gfx_init( DISPLAYWIDTH, DISPLAYHEIGHT );
 1373              		.loc 1 119 0
 1374 0014 8020     		mov	r0, #128
 1375 0016 4021     		mov	r1, #64
 1376 0018 FFF7FEFF 		bl	gfx_init
 120:.\ssd1306.c   ****     
 121:.\ssd1306.c   ****     uint8 cmdbuf[] = {
 1377              		.loc 1 121 0
 1378 001c 3A1C     		mov	r2, r7
 1379 001e 0C32     		add	r2, r2, #12
 1380 0020 094B     		ldr	r3, .L2+4
 1381 0022 111C     		mov	r1, r2
 1382 0024 1A1C     		mov	r2, r3
 1383 0026 1A23     		mov	r3, #26
 1384 0028 081C     		mov	r0, r1
 1385 002a 111C     		mov	r1, r2
 1386 002c 1A1C     		mov	r2, r3
 1387 002e FFF7FEFF 		bl	memcpy
 122:.\ssd1306.c   ****         0x00,
 123:.\ssd1306.c   ****         SSD1306_DISPLAYOFF,
 124:.\ssd1306.c   ****         SSD1306_SETDISPLAYCLOCKDIV,
 125:.\ssd1306.c   ****         0x80,
 126:.\ssd1306.c   ****         SSD1306_SETMULTIPLEX,
 127:.\ssd1306.c   ****         0x3f,
 128:.\ssd1306.c   ****         SSD1306_SETDISPLAYOFFSET,
 129:.\ssd1306.c   ****         0x00,
 130:.\ssd1306.c   ****         SSD1306_SETSTARTLINE | 0x0,
 131:.\ssd1306.c   ****         SSD1306_CHARGEPUMP,
 132:.\ssd1306.c   ****         0x14,
 133:.\ssd1306.c   ****         SSD1306_MEMORYMODE,
 134:.\ssd1306.c   ****         0x00,
 135:.\ssd1306.c   ****         SSD1306_SEGREMAP | 0x1,
 136:.\ssd1306.c   ****         SSD1306_COMSCANDEC,
 137:.\ssd1306.c   ****         SSD1306_SETCOMPINS,
 138:.\ssd1306.c   ****         0x12,
 139:.\ssd1306.c   ****         SSD1306_SETCONTRAST,
 140:.\ssd1306.c   ****         0xcf,
 141:.\ssd1306.c   ****         SSD1306_SETPRECHARGE,
 142:.\ssd1306.c   ****         0xf1,
 143:.\ssd1306.c   ****         SSD1306_SETVCOMDETECT,
 144:.\ssd1306.c   ****         0x40,
 145:.\ssd1306.c   ****         SSD1306_DISPLAYALLON_RESUME,
 146:.\ssd1306.c   ****         SSD1306_NORMALDISPLAY,
 147:.\ssd1306.c   ****         SSD1306_DISPLAYON
 148:.\ssd1306.c   ****     };
ARM GAS  C:\DOCUME~1\Owner\LOCALS~1\Temp\cc1p5VcC.s 			page 28


 149:.\ssd1306.c   ****     
 150:.\ssd1306.c   ****     display_write_buf( cmdbuf, sizeof(cmdbuf) ); 
 1388              		.loc 1 150 0
 1389 0032 3B1C     		mov	r3, r7
 1390 0034 0C33     		add	r3, r3, #12
 1391 0036 181C     		mov	r0, r3
 1392 0038 1A21     		mov	r1, #26
 1393 003a FFF7FEFF 		bl	display_write_buf
 151:.\ssd1306.c   **** }
 1394              		.loc 1 151 0
 1395 003e BD46     		mov	sp, r7
 1396 0040 0AB0     		add	sp, sp, #40
 1397              		@ sp needed
 1398 0042 80BD     		pop	{r7, pc}
 1399              	.L3:
 1400              		.align	2
 1401              	.L2:
 1402 0044 00000000 		.word	_i2caddr
 1403 0048 FC040000 		.word	.LC0
 1404              		.cfi_endproc
 1405              	.LFE33:
 1406              		.size	display_init, .-display_init
 1407              		.section	.text.display_write_buf,"ax",%progbits
 1408              		.align	2
 1409              		.code	16
 1410              		.thumb_func
 1411              		.type	display_write_buf, %function
 1412              	display_write_buf:
 1413              	.LFB34:
 152:.\ssd1306.c   **** 
 153:.\ssd1306.c   **** 
 154:.\ssd1306.c   **** // for submitting command sequences:
 155:.\ssd1306.c   **** //  buf[0] must be 0x00
 156:.\ssd1306.c   **** // for submitting bulk data (writing to display RAM):
 157:.\ssd1306.c   **** //  buf[0] must be 0x40
 158:.\ssd1306.c   **** static uint32 display_write_buf( uint8* buf, uint16_t size ){
 1414              		.loc 1 158 0
 1415              		.cfi_startproc
 1416 0000 80B5     		push	{r7, lr}
 1417              		.cfi_def_cfa_offset 8
 1418              		.cfi_offset 7, -8
 1419              		.cfi_offset 14, -4
 1420 0002 84B0     		sub	sp, sp, #16
 1421              		.cfi_def_cfa_offset 24
 1422 0004 00AF     		add	r7, sp, #0
 1423              		.cfi_def_cfa_register 7
 1424 0006 7860     		str	r0, [r7, #4]
 1425 0008 0A1C     		mov	r2, r1
 1426 000a BB1C     		add	r3, r7, #2
 1427 000c 1A80     		strh	r2, [r3]
 159:.\ssd1306.c   **** 
 160:.\ssd1306.c   ****     uint32 status = TRANSFER_ERROR;
 1428              		.loc 1 160 0
 1429 000e FF23     		mov	r3, #255
 1430 0010 FB60     		str	r3, [r7, #12]
 161:.\ssd1306.c   **** 
 162:.\ssd1306.c   ****     I2COLED_I2CMasterWriteBuf(_i2caddr, buf, size, I2COLED_I2C_MODE_COMPLETE_XFER);
ARM GAS  C:\DOCUME~1\Owner\LOCALS~1\Temp\cc1p5VcC.s 			page 29


 1431              		.loc 1 162 0
 1432 0012 154B     		ldr	r3, .L8
 1433 0014 1B78     		ldrb	r3, [r3]
 1434 0016 191C     		mov	r1, r3
 1435 0018 BB1C     		add	r3, r7, #2
 1436 001a 1B88     		ldrh	r3, [r3]
 1437 001c 7A68     		ldr	r2, [r7, #4]
 1438 001e 081C     		mov	r0, r1
 1439 0020 111C     		mov	r1, r2
 1440 0022 1A1C     		mov	r2, r3
 1441 0024 0023     		mov	r3, #0
 1442 0026 FFF7FEFF 		bl	I2COLED_I2CMasterWriteBuf
 163:.\ssd1306.c   ****     while( 0u == (I2COLED_I2CMasterStatus() & I2COLED_I2C_MSTAT_WR_CMPLT) );
 1443              		.loc 1 163 0
 1444 002a C046     		mov	r8, r8
 1445              	.L5:
 1446              		.loc 1 163 0 is_stmt 0 discriminator 1
 1447 002c FFF7FEFF 		bl	I2COLED_I2CMasterStatus
 1448 0030 021C     		mov	r2, r0
 1449 0032 0223     		mov	r3, #2
 1450 0034 1340     		and	r3, r2
 1451 0036 F9D0     		beq	.L5
 164:.\ssd1306.c   **** 
 165:.\ssd1306.c   ****     if( 0u == (I2COLED_I2C_MSTAT_ERR_XFER & I2COLED_I2CMasterStatus()) ){
 1452              		.loc 1 165 0 is_stmt 1
 1453 0038 FFF7FEFF 		bl	I2COLED_I2CMasterStatus
 1454 003c 021C     		mov	r2, r0
 1455 003e 8023     		mov	r3, #128
 1456 0040 9B00     		lsl	r3, r3, #2
 1457 0042 1340     		and	r3, r2
 1458 0044 08D1     		bne	.L6
 166:.\ssd1306.c   ****         // Check if all bytes was written 
 167:.\ssd1306.c   ****         if( I2COLED_I2CMasterGetWriteBufSize() == size ){
 1459              		.loc 1 167 0
 1460 0046 FFF7FEFF 		bl	I2COLED_I2CMasterGetWriteBufSize
 1461 004a 021C     		mov	r2, r0
 1462 004c BB1C     		add	r3, r7, #2
 1463 004e 1B88     		ldrh	r3, [r3]
 1464 0050 9A42     		cmp	r2, r3
 1465 0052 01D1     		bne	.L6
 168:.\ssd1306.c   ****             status = TRANSFER_CMPLT;
 1466              		.loc 1 168 0
 1467 0054 0023     		mov	r3, #0
 1468 0056 FB60     		str	r3, [r7, #12]
 1469              	.L6:
 169:.\ssd1306.c   ****         }
 170:.\ssd1306.c   ****     }
 171:.\ssd1306.c   ****     I2COLED_I2CMasterClearStatus();
 1470              		.loc 1 171 0
 1471 0058 FFF7FEFF 		bl	I2COLED_I2CMasterClearStatus
 172:.\ssd1306.c   **** 
 173:.\ssd1306.c   ****     return status;
 1472              		.loc 1 173 0
 1473 005c FB68     		ldr	r3, [r7, #12]
 174:.\ssd1306.c   **** }
 1474              		.loc 1 174 0
 1475 005e 181C     		mov	r0, r3
ARM GAS  C:\DOCUME~1\Owner\LOCALS~1\Temp\cc1p5VcC.s 			page 30


 1476 0060 BD46     		mov	sp, r7
 1477 0062 04B0     		add	sp, sp, #16
 1478              		@ sp needed
 1479 0064 80BD     		pop	{r7, pc}
 1480              	.L9:
 1481 0066 C046     		.align	2
 1482              	.L8:
 1483 0068 00000000 		.word	_i2caddr
 1484              		.cfi_endproc
 1485              	.LFE34:
 1486              		.size	display_write_buf, .-display_write_buf
 1487              		.section	.text.display_setPixel,"ax",%progbits
 1488              		.align	2
 1489              		.code	16
 1490              		.thumb_func
 1491              		.type	display_setPixel, %function
 1492              	display_setPixel:
 1493              	.LFB35:
 175:.\ssd1306.c   **** 
 176:.\ssd1306.c   **** 
 177:.\ssd1306.c   **** // used by gfx_ functions. Needs to be implemented by display_
 178:.\ssd1306.c   **** static void display_setPixel( int16_t x, int16_t y, uint16_t color ){
 1494              		.loc 1 178 0
 1495              		.cfi_startproc
 1496 0000 90B5     		push	{r4, r7, lr}
 1497              		.cfi_def_cfa_offset 12
 1498              		.cfi_offset 4, -12
 1499              		.cfi_offset 7, -8
 1500              		.cfi_offset 14, -4
 1501 0002 83B0     		sub	sp, sp, #12
 1502              		.cfi_def_cfa_offset 24
 1503 0004 00AF     		add	r7, sp, #0
 1504              		.cfi_def_cfa_register 7
 1505 0006 BB1D     		add	r3, r7, #6
 1506 0008 1880     		strh	r0, [r3]
 1507 000a 3B1D     		add	r3, r7, #4
 1508 000c 1980     		strh	r1, [r3]
 1509 000e BB1C     		add	r3, r7, #2
 1510 0010 1A80     		strh	r2, [r3]
 179:.\ssd1306.c   ****     
 180:.\ssd1306.c   ****     if( (x < 0) || (x >= DISPLAYWIDTH) || (y < 0) || (y >= DISPLAYHEIGHT) )
 1511              		.loc 1 180 0
 1512 0012 BB1D     		add	r3, r7, #6
 1513 0014 0022     		mov	r2, #0
 1514 0016 9B5E     		ldrsh	r3, [r3, r2]
 1515 0018 002B     		cmp	r3, #0
 1516 001a 0EDB     		blt	.L11
 1517              		.loc 1 180 0 is_stmt 0 discriminator 1
 1518 001c BB1D     		add	r3, r7, #6
 1519 001e 0024     		mov	r4, #0
 1520 0020 1B5F     		ldrsh	r3, [r3, r4]
 1521 0022 7F2B     		cmp	r3, #127
 1522 0024 09DC     		bgt	.L11
 1523 0026 3B1D     		add	r3, r7, #4
 1524 0028 0022     		mov	r2, #0
 1525 002a 9B5E     		ldrsh	r3, [r3, r2]
 1526 002c 002B     		cmp	r3, #0
ARM GAS  C:\DOCUME~1\Owner\LOCALS~1\Temp\cc1p5VcC.s 			page 31


 1527 002e 04DB     		blt	.L11
 1528 0030 3B1D     		add	r3, r7, #4
 1529 0032 0024     		mov	r4, #0
 1530 0034 1B5F     		ldrsh	r3, [r3, r4]
 1531 0036 3F2B     		cmp	r3, #63
 1532 0038 00DD     		ble	.L12
 1533              	.L11:
 181:.\ssd1306.c   ****         return;
 1534              		.loc 1 181 0 is_stmt 1
 1535 003a 91E0     		b	.L10
 1536              	.L12:
 182:.\ssd1306.c   **** 
 183:.\ssd1306.c   ****     switch( color ){
 1537              		.loc 1 183 0
 1538 003c BB1C     		add	r3, r7, #2
 1539 003e 1B88     		ldrh	r3, [r3]
 1540 0040 012B     		cmp	r3, #1
 1541 0042 04D0     		beq	.L14
 1542 0044 022B     		cmp	r3, #2
 1543 0046 5ED0     		beq	.L15
 1544 0048 002B     		cmp	r3, #0
 1545 004a 2DD0     		beq	.L16
 1546 004c 88E0     		b	.L10
 1547              	.L14:
 184:.\ssd1306.c   ****         case WHITE: 
 185:.\ssd1306.c   ****             PIXEL_ON(x,y);
 1548              		.loc 1 185 0
 1549 004e 464B     		ldr	r3, .L20
 1550 0050 1968     		ldr	r1, [r3]
 1551 0052 3B1D     		add	r3, r7, #4
 1552 0054 0022     		mov	r2, #0
 1553 0056 9B5E     		ldrsh	r3, [r3, r2]
 1554 0058 002B     		cmp	r3, #0
 1555 005a 00DA     		bge	.L17
 1556 005c 0733     		add	r3, r3, #7
 1557              	.L17:
 1558 005e DB10     		asr	r3, r3, #3
 1559 0060 9BB2     		uxth	r3, r3
 1560 0062 1AB2     		sxth	r2, r3
 1561 0064 D201     		lsl	r2, r2, #7
 1562 0066 101C     		mov	r0, r2
 1563 0068 BA1D     		add	r2, r7, #6
 1564 006a 0024     		mov	r4, #0
 1565 006c 125F     		ldrsh	r2, [r2, r4]
 1566 006e 8218     		add	r2, r0, r2
 1567 0070 8918     		add	r1, r1, r2
 1568 0072 3D4A     		ldr	r2, .L20
 1569 0074 1268     		ldr	r2, [r2]
 1570 0076 1BB2     		sxth	r3, r3
 1571 0078 DB01     		lsl	r3, r3, #7
 1572 007a 181C     		mov	r0, r3
 1573 007c BB1D     		add	r3, r7, #6
 1574 007e 0024     		mov	r4, #0
 1575 0080 1B5F     		ldrsh	r3, [r3, r4]
 1576 0082 C318     		add	r3, r0, r3
 1577 0084 D318     		add	r3, r2, r3
 1578 0086 1B78     		ldrb	r3, [r3]
ARM GAS  C:\DOCUME~1\Owner\LOCALS~1\Temp\cc1p5VcC.s 			page 32


 1579 0088 DAB2     		uxtb	r2, r3
 1580 008a 3B1D     		add	r3, r7, #4
 1581 008c 1B88     		ldrh	r3, [r3]
 1582 008e 181C     		mov	r0, r3
 1583 0090 0723     		mov	r3, #7
 1584 0092 0340     		and	r3, r0
 1585 0094 0120     		mov	r0, #1
 1586 0096 041C     		mov	r4, r0
 1587 0098 9C40     		lsl	r4, r4, r3
 1588 009a 231C     		mov	r3, r4
 1589 009c DBB2     		uxtb	r3, r3
 1590 009e 1343     		orr	r3, r2
 1591 00a0 DBB2     		uxtb	r3, r3
 1592 00a2 DBB2     		uxtb	r3, r3
 1593 00a4 0B70     		strb	r3, [r1]
 186:.\ssd1306.c   ****             break;
 1594              		.loc 1 186 0
 1595 00a6 5BE0     		b	.L10
 1596              	.L16:
 187:.\ssd1306.c   ****         case BLACK:
 188:.\ssd1306.c   ****             PIXEL_OFF(x,y);
 1597              		.loc 1 188 0
 1598 00a8 2F4B     		ldr	r3, .L20
 1599 00aa 1968     		ldr	r1, [r3]
 1600 00ac 3B1D     		add	r3, r7, #4
 1601 00ae 0022     		mov	r2, #0
 1602 00b0 9B5E     		ldrsh	r3, [r3, r2]
 1603 00b2 002B     		cmp	r3, #0
 1604 00b4 00DA     		bge	.L18
 1605 00b6 0733     		add	r3, r3, #7
 1606              	.L18:
 1607 00b8 DB10     		asr	r3, r3, #3
 1608 00ba 9BB2     		uxth	r3, r3
 1609 00bc 1AB2     		sxth	r2, r3
 1610 00be D201     		lsl	r2, r2, #7
 1611 00c0 101C     		mov	r0, r2
 1612 00c2 BA1D     		add	r2, r7, #6
 1613 00c4 0024     		mov	r4, #0
 1614 00c6 125F     		ldrsh	r2, [r2, r4]
 1615 00c8 8218     		add	r2, r0, r2
 1616 00ca 8918     		add	r1, r1, r2
 1617 00cc 264A     		ldr	r2, .L20
 1618 00ce 1268     		ldr	r2, [r2]
 1619 00d0 1BB2     		sxth	r3, r3
 1620 00d2 DB01     		lsl	r3, r3, #7
 1621 00d4 181C     		mov	r0, r3
 1622 00d6 BB1D     		add	r3, r7, #6
 1623 00d8 0024     		mov	r4, #0
 1624 00da 1B5F     		ldrsh	r3, [r3, r4]
 1625 00dc C318     		add	r3, r0, r3
 1626 00de D318     		add	r3, r2, r3
 1627 00e0 1B78     		ldrb	r3, [r3]
 1628 00e2 DBB2     		uxtb	r3, r3
 1629 00e4 3A1D     		add	r2, r7, #4
 1630 00e6 1288     		ldrh	r2, [r2]
 1631 00e8 101C     		mov	r0, r2
 1632 00ea 0722     		mov	r2, #7
ARM GAS  C:\DOCUME~1\Owner\LOCALS~1\Temp\cc1p5VcC.s 			page 33


 1633 00ec 0240     		and	r2, r0
 1634 00ee 0120     		mov	r0, #1
 1635 00f0 041C     		mov	r4, r0
 1636 00f2 9440     		lsl	r4, r4, r2
 1637 00f4 221C     		mov	r2, r4
 1638 00f6 D2B2     		uxtb	r2, r2
 1639 00f8 D243     		mvn	r2, r2
 1640 00fa D2B2     		uxtb	r2, r2
 1641 00fc 1340     		and	r3, r2
 1642 00fe DBB2     		uxtb	r3, r3
 1643 0100 DBB2     		uxtb	r3, r3
 1644 0102 0B70     		strb	r3, [r1]
 189:.\ssd1306.c   ****             break;
 1645              		.loc 1 189 0
 1646 0104 2CE0     		b	.L10
 1647              	.L15:
 190:.\ssd1306.c   ****         case INVERSE: 
 191:.\ssd1306.c   ****             PIXEL_TOGGLE(x,y);
 1648              		.loc 1 191 0
 1649 0106 184B     		ldr	r3, .L20
 1650 0108 1968     		ldr	r1, [r3]
 1651 010a 3B1D     		add	r3, r7, #4
 1652 010c 0022     		mov	r2, #0
 1653 010e 9B5E     		ldrsh	r3, [r3, r2]
 1654 0110 002B     		cmp	r3, #0
 1655 0112 00DA     		bge	.L19
 1656 0114 0733     		add	r3, r3, #7
 1657              	.L19:
 1658 0116 DB10     		asr	r3, r3, #3
 1659 0118 9BB2     		uxth	r3, r3
 1660 011a 1AB2     		sxth	r2, r3
 1661 011c D201     		lsl	r2, r2, #7
 1662 011e 101C     		mov	r0, r2
 1663 0120 BA1D     		add	r2, r7, #6
 1664 0122 0024     		mov	r4, #0
 1665 0124 125F     		ldrsh	r2, [r2, r4]
 1666 0126 8218     		add	r2, r0, r2
 1667 0128 8918     		add	r1, r1, r2
 1668 012a 0F4A     		ldr	r2, .L20
 1669 012c 1268     		ldr	r2, [r2]
 1670 012e 1BB2     		sxth	r3, r3
 1671 0130 DB01     		lsl	r3, r3, #7
 1672 0132 181C     		mov	r0, r3
 1673 0134 BB1D     		add	r3, r7, #6
 1674 0136 0024     		mov	r4, #0
 1675 0138 1B5F     		ldrsh	r3, [r3, r4]
 1676 013a C318     		add	r3, r0, r3
 1677 013c D318     		add	r3, r2, r3
 1678 013e 1B78     		ldrb	r3, [r3]
 1679 0140 DAB2     		uxtb	r2, r3
 1680 0142 3B1D     		add	r3, r7, #4
 1681 0144 1B88     		ldrh	r3, [r3]
 1682 0146 181C     		mov	r0, r3
 1683 0148 0723     		mov	r3, #7
 1684 014a 0340     		and	r3, r0
 1685 014c 0120     		mov	r0, #1
 1686 014e 041C     		mov	r4, r0
ARM GAS  C:\DOCUME~1\Owner\LOCALS~1\Temp\cc1p5VcC.s 			page 34


 1687 0150 9C40     		lsl	r4, r4, r3
 1688 0152 231C     		mov	r3, r4
 1689 0154 DBB2     		uxtb	r3, r3
 1690 0156 5340     		eor	r3, r2
 1691 0158 DBB2     		uxtb	r3, r3
 1692 015a DBB2     		uxtb	r3, r3
 1693 015c 0B70     		strb	r3, [r1]
 192:.\ssd1306.c   ****             break;
 1694              		.loc 1 192 0
 1695 015e C046     		mov	r8, r8
 1696              	.L10:
 193:.\ssd1306.c   ****     }
 194:.\ssd1306.c   **** }
 1697              		.loc 1 194 0
 1698 0160 BD46     		mov	sp, r7
 1699 0162 03B0     		add	sp, sp, #12
 1700              		@ sp needed
 1701 0164 90BD     		pop	{r4, r7, pc}
 1702              	.L21:
 1703 0166 C046     		.align	2
 1704              	.L20:
 1705 0168 04040000 		.word	_displaybuf
 1706              		.cfi_endproc
 1707              	.LFE35:
 1708              		.size	display_setPixel, .-display_setPixel
 1709              		.section	.text.display_clear,"ax",%progbits
 1710              		.align	2
 1711              		.global	display_clear
 1712              		.code	16
 1713              		.thumb_func
 1714              		.type	display_clear, %function
 1715              	display_clear:
 1716              	.LFB36:
 195:.\ssd1306.c   **** 
 196:.\ssd1306.c   **** 
 197:.\ssd1306.c   **** void display_clear(void){
 1717              		.loc 1 197 0
 1718              		.cfi_startproc
 1719 0000 80B5     		push	{r7, lr}
 1720              		.cfi_def_cfa_offset 8
 1721              		.cfi_offset 7, -8
 1722              		.cfi_offset 14, -4
 1723 0002 00AF     		add	r7, sp, #0
 1724              		.cfi_def_cfa_register 7
 198:.\ssd1306.c   ****     memset( _displaybuf, 0, _displaybuf_size );
 1725              		.loc 1 198 0
 1726 0004 064B     		ldr	r3, .L23
 1727 0006 1A68     		ldr	r2, [r3]
 1728 0008 064B     		ldr	r3, .L23+4
 1729 000a 1B88     		ldrh	r3, [r3]
 1730 000c 101C     		mov	r0, r2
 1731 000e 0021     		mov	r1, #0
 1732 0010 1A1C     		mov	r2, r3
 1733 0012 FFF7FEFF 		bl	memset
 199:.\ssd1306.c   ****     SSD1306_buffer[0] = 0x40; // to be sure its there
 1734              		.loc 1 199 0
 1735 0016 044B     		ldr	r3, .L23+8
ARM GAS  C:\DOCUME~1\Owner\LOCALS~1\Temp\cc1p5VcC.s 			page 35


 1736 0018 4022     		mov	r2, #64
 1737 001a 1A70     		strb	r2, [r3]
 200:.\ssd1306.c   **** }
 1738              		.loc 1 200 0
 1739 001c BD46     		mov	sp, r7
 1740              		@ sp needed
 1741 001e 80BD     		pop	{r7, pc}
 1742              	.L24:
 1743              		.align	2
 1744              	.L23:
 1745 0020 04040000 		.word	_displaybuf
 1746 0024 08040000 		.word	_displaybuf_size
 1747 0028 00000000 		.word	SSD1306_buffer
 1748              		.cfi_endproc
 1749              	.LFE36:
 1750              		.size	display_clear, .-display_clear
 1751              		.section	.text.display_contrast,"ax",%progbits
 1752              		.align	2
 1753              		.global	display_contrast
 1754              		.code	16
 1755              		.thumb_func
 1756              		.type	display_contrast, %function
 1757              	display_contrast:
 1758              	.LFB37:
 201:.\ssd1306.c   **** 
 202:.\ssd1306.c   **** 
 203:.\ssd1306.c   **** // contrast: 0 ...255
 204:.\ssd1306.c   **** void display_contrast( uint8_t contrast ){
 1759              		.loc 1 204 0
 1760              		.cfi_startproc
 1761 0000 80B5     		push	{r7, lr}
 1762              		.cfi_def_cfa_offset 8
 1763              		.cfi_offset 7, -8
 1764              		.cfi_offset 14, -4
 1765 0002 84B0     		sub	sp, sp, #16
 1766              		.cfi_def_cfa_offset 24
 1767 0004 00AF     		add	r7, sp, #0
 1768              		.cfi_def_cfa_register 7
 1769 0006 021C     		mov	r2, r0
 1770 0008 FB1D     		add	r3, r7, #7
 1771 000a 1A70     		strb	r2, [r3]
 205:.\ssd1306.c   ****         
 206:.\ssd1306.c   ****     uint8 cmdbuf[] = {
 1772              		.loc 1 206 0
 1773 000c 3B1C     		mov	r3, r7
 1774 000e 0C33     		add	r3, r3, #12
 1775 0010 0022     		mov	r2, #0
 1776 0012 1A70     		strb	r2, [r3]
 1777 0014 3B1C     		mov	r3, r7
 1778 0016 0C33     		add	r3, r3, #12
 1779 0018 8122     		mov	r2, #129
 1780 001a 5A70     		strb	r2, [r3, #1]
 1781 001c 3B1C     		mov	r3, r7
 1782 001e 0C33     		add	r3, r3, #12
 1783 0020 FA1D     		add	r2, r7, #7
 1784 0022 1278     		ldrb	r2, [r2]
 1785 0024 9A70     		strb	r2, [r3, #2]
ARM GAS  C:\DOCUME~1\Owner\LOCALS~1\Temp\cc1p5VcC.s 			page 36


 207:.\ssd1306.c   ****         0x00,  
 208:.\ssd1306.c   ****         SSD1306_SETCONTRAST,
 209:.\ssd1306.c   ****         contrast
 210:.\ssd1306.c   ****     };
 211:.\ssd1306.c   ****     display_write_buf( cmdbuf, sizeof(cmdbuf) ); 
 1786              		.loc 1 211 0
 1787 0026 3B1C     		mov	r3, r7
 1788 0028 0C33     		add	r3, r3, #12
 1789 002a 181C     		mov	r0, r3
 1790 002c 0321     		mov	r1, #3
 1791 002e FFF7FEFF 		bl	display_write_buf
 212:.\ssd1306.c   **** }
 1792              		.loc 1 212 0
 1793 0032 BD46     		mov	sp, r7
 1794 0034 04B0     		add	sp, sp, #16
 1795              		@ sp needed
 1796 0036 80BD     		pop	{r7, pc}
 1797              		.cfi_endproc
 1798              	.LFE37:
 1799              		.size	display_contrast, .-display_contrast
 1800              		.section	.text.display_invert,"ax",%progbits
 1801              		.align	2
 1802              		.global	display_invert
 1803              		.code	16
 1804              		.thumb_func
 1805              		.type	display_invert, %function
 1806              	display_invert:
 1807              	.LFB38:
 213:.\ssd1306.c   **** 
 214:.\ssd1306.c   **** 
 215:.\ssd1306.c   **** // invert <> 0 for inverse display, invert == 0 for normal display
 216:.\ssd1306.c   **** void display_invert( uint8_t invert ){
 1808              		.loc 1 216 0
 1809              		.cfi_startproc
 1810 0000 80B5     		push	{r7, lr}
 1811              		.cfi_def_cfa_offset 8
 1812              		.cfi_offset 7, -8
 1813              		.cfi_offset 14, -4
 1814 0002 84B0     		sub	sp, sp, #16
 1815              		.cfi_def_cfa_offset 24
 1816 0004 00AF     		add	r7, sp, #0
 1817              		.cfi_def_cfa_register 7
 1818 0006 021C     		mov	r2, r0
 1819 0008 FB1D     		add	r3, r7, #7
 1820 000a 1A70     		strb	r2, [r3]
 217:.\ssd1306.c   **** 
 218:.\ssd1306.c   ****     uint8 cmdbuf[] = {
 1821              		.loc 1 218 0
 1822 000c 3B1C     		mov	r3, r7
 1823 000e 0C33     		add	r3, r3, #12
 1824 0010 0022     		mov	r2, #0
 1825 0012 1A70     		strb	r2, [r3]
 1826 0014 3B1C     		mov	r3, r7
 1827 0016 0C33     		add	r3, r3, #12
 1828 0018 0022     		mov	r2, #0
 1829 001a 5A70     		strb	r2, [r3, #1]
 219:.\ssd1306.c   ****         0x00,  
ARM GAS  C:\DOCUME~1\Owner\LOCALS~1\Temp\cc1p5VcC.s 			page 37


 220:.\ssd1306.c   ****         0
 221:.\ssd1306.c   ****     };
 222:.\ssd1306.c   ****     cmdbuf[1] = invert ? SSD1306_INVERTDISPLAY : SSD1306_NORMALDISPLAY;
 1830              		.loc 1 222 0
 1831 001c FB1D     		add	r3, r7, #7
 1832 001e 1B78     		ldrb	r3, [r3]
 1833 0020 002B     		cmp	r3, #0
 1834 0022 01D0     		beq	.L27
 1835              		.loc 1 222 0 is_stmt 0 discriminator 1
 1836 0024 A723     		mov	r3, #167
 1837 0026 00E0     		b	.L28
 1838              	.L27:
 1839              		.loc 1 222 0 discriminator 2
 1840 0028 A623     		mov	r3, #166
 1841              	.L28:
 1842              		.loc 1 222 0 discriminator 3
 1843 002a 3A1C     		mov	r2, r7
 1844 002c 0C32     		add	r2, r2, #12
 1845 002e 5370     		strb	r3, [r2, #1]
 223:.\ssd1306.c   ****     display_write_buf( cmdbuf, sizeof(cmdbuf) ); 
 1846              		.loc 1 223 0 is_stmt 1 discriminator 3
 1847 0030 3B1C     		mov	r3, r7
 1848 0032 0C33     		add	r3, r3, #12
 1849 0034 181C     		mov	r0, r3
 1850 0036 0221     		mov	r1, #2
 1851 0038 FFF7FEFF 		bl	display_write_buf
 224:.\ssd1306.c   **** }
 1852              		.loc 1 224 0 discriminator 3
 1853 003c BD46     		mov	sp, r7
 1854 003e 04B0     		add	sp, sp, #16
 1855              		@ sp needed
 1856 0040 80BD     		pop	{r7, pc}
 1857              		.cfi_endproc
 1858              	.LFE38:
 1859              		.size	display_invert, .-display_invert
 1860 0042 C046     		.section	.rodata
 1861 0516 0000     		.align	2
 1862              	.LC1:
 1863 0518 00       		.byte	0
 1864 0519 21       		.byte	33
 1865 051a 00       		.byte	0
 1866 051b 7F       		.byte	127
 1867 051c 22       		.byte	34
 1868 051d 00       		.byte	0
 1869 051e 07       		.byte	7
 1870 051f 00       		.section	.text.display_update,"ax",%progbits
 1871              		.align	2
 1872              		.global	display_update
 1873              		.code	16
 1874              		.thumb_func
 1875              		.type	display_update, %function
 1876              	display_update:
 1877              	.LFB39:
 225:.\ssd1306.c   **** 
 226:.\ssd1306.c   **** 
 227:.\ssd1306.c   **** void display_update(void) {
 1878              		.loc 1 227 0
ARM GAS  C:\DOCUME~1\Owner\LOCALS~1\Temp\cc1p5VcC.s 			page 38


 1879              		.cfi_startproc
 1880 0000 80B5     		push	{r7, lr}
 1881              		.cfi_def_cfa_offset 8
 1882              		.cfi_offset 7, -8
 1883              		.cfi_offset 14, -4
 1884 0002 82B0     		sub	sp, sp, #8
 1885              		.cfi_def_cfa_offset 16
 1886 0004 00AF     		add	r7, sp, #0
 1887              		.cfi_def_cfa_register 7
 228:.\ssd1306.c   ****       
 229:.\ssd1306.c   ****     uint8 cmdbuf[] = {
 1888              		.loc 1 229 0
 1889 0006 3A1C     		mov	r2, r7
 1890 0008 0B4B     		ldr	r3, .L30
 1891 000a 111C     		mov	r1, r2
 1892 000c 1A1C     		mov	r2, r3
 1893 000e 0723     		mov	r3, #7
 1894 0010 081C     		mov	r0, r1
 1895 0012 111C     		mov	r1, r2
 1896 0014 1A1C     		mov	r2, r3
 1897 0016 FFF7FEFF 		bl	memcpy
 230:.\ssd1306.c   ****         0x00,
 231:.\ssd1306.c   ****         SSD1306_COLUMNADDR,
 232:.\ssd1306.c   ****         0,                      // start
 233:.\ssd1306.c   ****         DISPLAYWIDTH-1, // end
 234:.\ssd1306.c   ****         SSD1306_PAGEADDR,
 235:.\ssd1306.c   ****         0,                      // start
 236:.\ssd1306.c   ****         7                       // end
 237:.\ssd1306.c   ****     };
 238:.\ssd1306.c   ****     display_write_buf( cmdbuf, sizeof(cmdbuf) ); 
 1898              		.loc 1 238 0
 1899 001a 3B1C     		mov	r3, r7
 1900 001c 181C     		mov	r0, r3
 1901 001e 0721     		mov	r1, #7
 1902 0020 FFF7FEFF 		bl	display_write_buf
 239:.\ssd1306.c   ****     display_write_buf( SSD1306_buffer, sizeof(SSD1306_buffer) );
 1903              		.loc 1 239 0
 1904 0024 054A     		ldr	r2, .L30+4
 1905 0026 064B     		ldr	r3, .L30+8
 1906 0028 101C     		mov	r0, r2
 1907 002a 191C     		mov	r1, r3
 1908 002c FFF7FEFF 		bl	display_write_buf
 240:.\ssd1306.c   **** }
 1909              		.loc 1 240 0
 1910 0030 BD46     		mov	sp, r7
 1911 0032 02B0     		add	sp, sp, #8
 1912              		@ sp needed
 1913 0034 80BD     		pop	{r7, pc}
 1914              	.L31:
 1915 0036 C046     		.align	2
 1916              	.L30:
 1917 0038 18050000 		.word	.LC1
 1918 003c 00000000 		.word	SSD1306_buffer
 1919 0040 01040000 		.word	1025
 1920              		.cfi_endproc
 1921              	.LFE39:
 1922              		.size	display_update, .-display_update
ARM GAS  C:\DOCUME~1\Owner\LOCALS~1\Temp\cc1p5VcC.s 			page 39


 1923              		.section	.text.display_line,"ax",%progbits
 1924              		.align	2
 1925              		.code	16
 1926              		.thumb_func
 1927              		.type	display_line, %function
 1928              	display_line:
 1929              	.LFB40:
 241:.\ssd1306.c   **** 
 242:.\ssd1306.c   **** 
 243:.\ssd1306.c   **** // draws horizontal or vertical line
 244:.\ssd1306.c   **** // Note: no check for valid coords, this needs to be done by caller
 245:.\ssd1306.c   **** // should only be called from gfx_hvline which is doing all validity checking
 246:.\ssd1306.c   **** static void display_line( int16_t x1, int16_t y1, int16_t x2, int16_t y2, uint16_t color ){
 1930              		.loc 1 246 0
 1931              		.cfi_startproc
 1932 0000 90B5     		push	{r4, r7, lr}
 1933              		.cfi_def_cfa_offset 12
 1934              		.cfi_offset 4, -12
 1935              		.cfi_offset 7, -8
 1936              		.cfi_offset 14, -4
 1937 0002 8DB0     		sub	sp, sp, #52
 1938              		.cfi_def_cfa_offset 64
 1939 0004 00AF     		add	r7, sp, #0
 1940              		.cfi_def_cfa_register 7
 1941 0006 041C     		mov	r4, r0
 1942 0008 081C     		mov	r0, r1
 1943 000a 111C     		mov	r1, r2
 1944 000c 1A1C     		mov	r2, r3
 1945 000e BB1D     		add	r3, r7, #6
 1946 0010 1C80     		strh	r4, [r3]
 1947 0012 3B1D     		add	r3, r7, #4
 1948 0014 1880     		strh	r0, [r3]
 1949 0016 BB1C     		add	r3, r7, #2
 1950 0018 1980     		strh	r1, [r3]
 1951 001a 3B1C     		mov	r3, r7
 1952 001c 1A80     		strh	r2, [r3]
 247:.\ssd1306.c   **** 
 248:.\ssd1306.c   ****     if( x1 == x2 ){
 1953              		.loc 1 248 0
 1954 001e BA1D     		add	r2, r7, #6
 1955 0020 BB1C     		add	r3, r7, #2
 1956 0022 0020     		mov	r0, #0
 1957 0024 125E     		ldrsh	r2, [r2, r0]
 1958 0026 0021     		mov	r1, #0
 1959 0028 5B5E     		ldrsh	r3, [r3, r1]
 1960 002a 9A42     		cmp	r2, r3
 1961 002c 00D0     		beq	.LCB545
 1962 002e DCE0     		b	.L33	@long jump
 1963              	.LCB545:
 1964              	.LBB2:
 249:.\ssd1306.c   ****         // vertical
 250:.\ssd1306.c   ****         uint8_t* pstart = GDDRAM_ADDRESS(x1,y1);
 1965              		.loc 1 250 0
 1966 0030 9E4B     		ldr	r3, .L61
 1967 0032 1A68     		ldr	r2, [r3]
 1968 0034 3B1D     		add	r3, r7, #4
 1969 0036 0020     		mov	r0, #0
ARM GAS  C:\DOCUME~1\Owner\LOCALS~1\Temp\cc1p5VcC.s 			page 40


 1970 0038 1B5E     		ldrsh	r3, [r3, r0]
 1971 003a 002B     		cmp	r3, #0
 1972 003c 00DA     		bge	.L34
 1973 003e 0733     		add	r3, r3, #7
 1974              	.L34:
 1975 0040 DB10     		asr	r3, r3, #3
 1976 0042 9BB2     		uxth	r3, r3
 1977 0044 1BB2     		sxth	r3, r3
 1978 0046 DB01     		lsl	r3, r3, #7
 1979 0048 191C     		mov	r1, r3
 1980 004a BB1D     		add	r3, r7, #6
 1981 004c 0020     		mov	r0, #0
 1982 004e 1B5E     		ldrsh	r3, [r3, r0]
 1983 0050 CB18     		add	r3, r1, r3
 1984 0052 D318     		add	r3, r2, r3
 1985 0054 3B62     		str	r3, [r7, #32]
 251:.\ssd1306.c   ****         uint8_t* pend = GDDRAM_ADDRESS(x2,y2);       
 1986              		.loc 1 251 0
 1987 0056 954B     		ldr	r3, .L61
 1988 0058 1A68     		ldr	r2, [r3]
 1989 005a 3B1C     		mov	r3, r7
 1990 005c 0021     		mov	r1, #0
 1991 005e 5B5E     		ldrsh	r3, [r3, r1]
 1992 0060 002B     		cmp	r3, #0
 1993 0062 00DA     		bge	.L35
 1994 0064 0733     		add	r3, r3, #7
 1995              	.L35:
 1996 0066 DB10     		asr	r3, r3, #3
 1997 0068 9BB2     		uxth	r3, r3
 1998 006a 1BB2     		sxth	r3, r3
 1999 006c DB01     		lsl	r3, r3, #7
 2000 006e 191C     		mov	r1, r3
 2001 0070 BB1C     		add	r3, r7, #2
 2002 0072 0020     		mov	r0, #0
 2003 0074 1B5E     		ldrsh	r3, [r3, r0]
 2004 0076 CB18     		add	r3, r1, r3
 2005 0078 D318     		add	r3, r2, r3
 2006 007a FB61     		str	r3, [r7, #28]
 252:.\ssd1306.c   ****         uint8_t* ptr = pstart;             
 2007              		.loc 1 252 0
 2008 007c 3B6A     		ldr	r3, [r7, #32]
 2009 007e FB62     		str	r3, [r7, #44]
 253:.\ssd1306.c   ****         
 254:.\ssd1306.c   ****         while( ptr <= pend ){
 2010              		.loc 1 254 0
 2011 0080 ADE0     		b	.L36
 2012              	.L52:
 2013              	.LBB3:
 255:.\ssd1306.c   ****             
 256:.\ssd1306.c   ****             uint8_t mask;
 257:.\ssd1306.c   ****             if( ptr == pstart ){
 2014              		.loc 1 257 0
 2015 0082 FA6A     		ldr	r2, [r7, #44]
 2016 0084 3B6A     		ldr	r3, [r7, #32]
 2017 0086 9A42     		cmp	r2, r3
 2018 0088 3BD1     		bne	.L37
 2019              	.LBB4:
ARM GAS  C:\DOCUME~1\Owner\LOCALS~1\Temp\cc1p5VcC.s 			page 41


 258:.\ssd1306.c   ****                 // top
 259:.\ssd1306.c   ****                 uint8_t lbit = y1 % 8;
 2020              		.loc 1 259 0
 2021 008a 3B1D     		add	r3, r7, #4
 2022 008c 0021     		mov	r1, #0
 2023 008e 5A5E     		ldrsh	r2, [r3, r1]
 2024 0090 874B     		ldr	r3, .L61+4
 2025 0092 1340     		and	r3, r2
 2026 0094 04D5     		bpl	.L38
 2027 0096 013B     		sub	r3, r3, #1
 2028 0098 0822     		mov	r2, #8
 2029 009a 5242     		neg	r2, r2
 2030 009c 1343     		orr	r3, r2
 2031 009e 0133     		add	r3, r3, #1
 2032              	.L38:
 2033 00a0 9AB2     		uxth	r2, r3
 2034 00a2 3B1C     		mov	r3, r7
 2035 00a4 1B33     		add	r3, r3, #27
 2036 00a6 1A70     		strb	r2, [r3]
 260:.\ssd1306.c   ****                 // bottom (line can be very short, all inside this one byte)
 261:.\ssd1306.c   ****                 uint8_t ubit = lbit + y2 - y1;
 2037              		.loc 1 261 0
 2038 00a8 3B1C     		mov	r3, r7
 2039 00aa 1B88     		ldrh	r3, [r3]
 2040 00ac DAB2     		uxtb	r2, r3
 2041 00ae 3B1C     		mov	r3, r7
 2042 00b0 1B33     		add	r3, r3, #27
 2043 00b2 1B78     		ldrb	r3, [r3]
 2044 00b4 D318     		add	r3, r2, r3
 2045 00b6 D9B2     		uxtb	r1, r3
 2046 00b8 3B1D     		add	r3, r7, #4
 2047 00ba 1B88     		ldrh	r3, [r3]
 2048 00bc DAB2     		uxtb	r2, r3
 2049 00be 3B1C     		mov	r3, r7
 2050 00c0 2A33     		add	r3, r3, #42
 2051 00c2 8A1A     		sub	r2, r1, r2
 2052 00c4 1A70     		strb	r2, [r3]
 262:.\ssd1306.c   ****                 if( ubit >= 7 )
 2053              		.loc 1 262 0
 2054 00c6 3B1C     		mov	r3, r7
 2055 00c8 2A33     		add	r3, r3, #42
 2056 00ca 1B78     		ldrb	r3, [r3]
 2057 00cc 062B     		cmp	r3, #6
 2058 00ce 03D9     		bls	.L39
 263:.\ssd1306.c   ****                     ubit = 7;
 2059              		.loc 1 263 0
 2060 00d0 3B1C     		mov	r3, r7
 2061 00d2 2A33     		add	r3, r3, #42
 2062 00d4 0722     		mov	r2, #7
 2063 00d6 1A70     		strb	r2, [r3]
 2064              	.L39:
 264:.\ssd1306.c   ****                 mask = ((1 << (ubit-lbit+1)) - 1) << lbit;    
 2065              		.loc 1 264 0
 2066 00d8 3B1C     		mov	r3, r7
 2067 00da 2A33     		add	r3, r3, #42
 2068 00dc 1A78     		ldrb	r2, [r3]
 2069 00de 3B1C     		mov	r3, r7
ARM GAS  C:\DOCUME~1\Owner\LOCALS~1\Temp\cc1p5VcC.s 			page 42


 2070 00e0 1B33     		add	r3, r3, #27
 2071 00e2 1B78     		ldrb	r3, [r3]
 2072 00e4 D31A     		sub	r3, r2, r3
 2073 00e6 0133     		add	r3, r3, #1
 2074 00e8 0122     		mov	r2, #1
 2075 00ea 101C     		mov	r0, r2
 2076 00ec 9840     		lsl	r0, r0, r3
 2077 00ee 031C     		mov	r3, r0
 2078 00f0 5A1E     		sub	r2, r3, #1
 2079 00f2 3B1C     		mov	r3, r7
 2080 00f4 1B33     		add	r3, r3, #27
 2081 00f6 1B78     		ldrb	r3, [r3]
 2082 00f8 9A40     		lsl	r2, r2, r3
 2083 00fa 3B1C     		mov	r3, r7
 2084 00fc 2B33     		add	r3, r3, #43
 2085 00fe 1A70     		strb	r2, [r3]
 2086              	.LBE4:
 2087 0100 19E0     		b	.L40
 2088              	.L37:
 265:.\ssd1306.c   ****             }else if( ptr == pend ){
 2089              		.loc 1 265 0
 2090 0102 FA6A     		ldr	r2, [r7, #44]
 2091 0104 FB69     		ldr	r3, [r7, #28]
 2092 0106 9A42     		cmp	r2, r3
 2093 0108 15D1     		bne	.L40
 266:.\ssd1306.c   ****                 // top is always bit 0, that makes it easy
 267:.\ssd1306.c   ****                 // bottom
 268:.\ssd1306.c   ****                 mask = (1 << (y2 % 8)) - 1;    
 2094              		.loc 1 268 0
 2095 010a 3B1C     		mov	r3, r7
 2096 010c 0021     		mov	r1, #0
 2097 010e 5A5E     		ldrsh	r2, [r3, r1]
 2098 0110 674B     		ldr	r3, .L61+4
 2099 0112 1340     		and	r3, r2
 2100 0114 04D5     		bpl	.L41
 2101 0116 013B     		sub	r3, r3, #1
 2102 0118 0822     		mov	r2, #8
 2103 011a 5242     		neg	r2, r2
 2104 011c 1343     		orr	r3, r2
 2105 011e 0133     		add	r3, r3, #1
 2106              	.L41:
 2107 0120 9BB2     		uxth	r3, r3
 2108 0122 1BB2     		sxth	r3, r3
 2109 0124 0122     		mov	r2, #1
 2110 0126 101C     		mov	r0, r2
 2111 0128 9840     		lsl	r0, r0, r3
 2112 012a 031C     		mov	r3, r0
 2113 012c DAB2     		uxtb	r2, r3
 2114 012e 3B1C     		mov	r3, r7
 2115 0130 2B33     		add	r3, r3, #43
 2116 0132 013A     		sub	r2, r2, #1
 2117 0134 1A70     		strb	r2, [r3]
 2118              	.L40:
 269:.\ssd1306.c   ****             }
 270:.\ssd1306.c   **** 
 271:.\ssd1306.c   ****             if( ptr == pstart || ptr == pend ){
 2119              		.loc 1 271 0
ARM GAS  C:\DOCUME~1\Owner\LOCALS~1\Temp\cc1p5VcC.s 			page 43


 2120 0136 FA6A     		ldr	r2, [r7, #44]
 2121 0138 3B6A     		ldr	r3, [r7, #32]
 2122 013a 9A42     		cmp	r2, r3
 2123 013c 03D0     		beq	.L42
 2124              		.loc 1 271 0 is_stmt 0 discriminator 1
 2125 013e FA6A     		ldr	r2, [r7, #44]
 2126 0140 FB69     		ldr	r3, [r7, #28]
 2127 0142 9A42     		cmp	r2, r3
 2128 0144 2CD1     		bne	.L43
 2129              	.L42:
 272:.\ssd1306.c   ****                 switch( color ){
 2130              		.loc 1 272 0 is_stmt 1
 2131 0146 3B1C     		mov	r3, r7
 2132 0148 4033     		add	r3, r3, #64
 2133 014a 1B88     		ldrh	r3, [r3]
 2134 014c 012B     		cmp	r3, #1
 2135 014e 04D0     		beq	.L45
 2136 0150 022B     		cmp	r3, #2
 2137 0152 1AD0     		beq	.L46
 2138 0154 002B     		cmp	r3, #0
 2139 0156 0AD0     		beq	.L47
 273:.\ssd1306.c   ****                     case WHITE:     *ptr |= mask; break;
 274:.\ssd1306.c   ****                     case BLACK:     *ptr &= ~mask; break;
 275:.\ssd1306.c   ****                     case INVERSE:   *ptr ^= mask; break;
 276:.\ssd1306.c   ****                 };  
 2140              		.loc 1 276 0
 2141 0158 3EE0     		b	.L48
 2142              	.L45:
 273:.\ssd1306.c   ****                     case WHITE:     *ptr |= mask; break;
 2143              		.loc 1 273 0
 2144 015a FB6A     		ldr	r3, [r7, #44]
 2145 015c 1A78     		ldrb	r2, [r3]
 2146 015e 3B1C     		mov	r3, r7
 2147 0160 2B33     		add	r3, r3, #43
 2148 0162 1B78     		ldrb	r3, [r3]
 2149 0164 1343     		orr	r3, r2
 2150 0166 DAB2     		uxtb	r2, r3
 2151 0168 FB6A     		ldr	r3, [r7, #44]
 2152 016a 1A70     		strb	r2, [r3]
 2153 016c 17E0     		b	.L44
 2154              	.L47:
 274:.\ssd1306.c   ****                     case BLACK:     *ptr &= ~mask; break;
 2155              		.loc 1 274 0
 2156 016e FB6A     		ldr	r3, [r7, #44]
 2157 0170 1B78     		ldrb	r3, [r3]
 2158 0172 DBB2     		uxtb	r3, r3
 2159 0174 3A1C     		mov	r2, r7
 2160 0176 2B32     		add	r2, r2, #43
 2161 0178 1278     		ldrb	r2, [r2]
 2162 017a D243     		mvn	r2, r2
 2163 017c D2B2     		uxtb	r2, r2
 2164 017e 1340     		and	r3, r2
 2165 0180 DBB2     		uxtb	r3, r3
 2166 0182 DAB2     		uxtb	r2, r3
 2167 0184 FB6A     		ldr	r3, [r7, #44]
 2168 0186 1A70     		strb	r2, [r3]
 2169 0188 09E0     		b	.L44
ARM GAS  C:\DOCUME~1\Owner\LOCALS~1\Temp\cc1p5VcC.s 			page 44


 2170              	.L46:
 275:.\ssd1306.c   ****                     case INVERSE:   *ptr ^= mask; break;
 2171              		.loc 1 275 0
 2172 018a FB6A     		ldr	r3, [r7, #44]
 2173 018c 1A78     		ldrb	r2, [r3]
 2174 018e 3B1C     		mov	r3, r7
 2175 0190 2B33     		add	r3, r3, #43
 2176 0192 1B78     		ldrb	r3, [r3]
 2177 0194 5340     		eor	r3, r2
 2178 0196 DAB2     		uxtb	r2, r3
 2179 0198 FB6A     		ldr	r3, [r7, #44]
 2180 019a 1A70     		strb	r2, [r3]
 2181 019c C046     		mov	r8, r8
 2182              	.L44:
 2183              		.loc 1 276 0
 2184 019e 1BE0     		b	.L48
 2185              	.L43:
 277:.\ssd1306.c   ****             }else{
 278:.\ssd1306.c   ****                 switch( color ){
 2186              		.loc 1 278 0
 2187 01a0 3B1C     		mov	r3, r7
 2188 01a2 4033     		add	r3, r3, #64
 2189 01a4 1B88     		ldrh	r3, [r3]
 2190 01a6 012B     		cmp	r3, #1
 2191 01a8 04D0     		beq	.L49
 2192 01aa 022B     		cmp	r3, #2
 2193 01ac 0AD0     		beq	.L50
 2194 01ae 002B     		cmp	r3, #0
 2195 01b0 04D0     		beq	.L51
 2196 01b2 11E0     		b	.L48
 2197              	.L49:
 279:.\ssd1306.c   ****                     case WHITE:     *ptr = 0xff; break;
 2198              		.loc 1 279 0
 2199 01b4 FB6A     		ldr	r3, [r7, #44]
 2200 01b6 FF22     		mov	r2, #255
 2201 01b8 1A70     		strb	r2, [r3]
 2202 01ba 0DE0     		b	.L48
 2203              	.L51:
 280:.\ssd1306.c   ****                     case BLACK:     *ptr = 0x00; break;
 2204              		.loc 1 280 0
 2205 01bc FB6A     		ldr	r3, [r7, #44]
 2206 01be 0022     		mov	r2, #0
 2207 01c0 1A70     		strb	r2, [r3]
 2208 01c2 09E0     		b	.L48
 2209              	.L50:
 281:.\ssd1306.c   ****                     case INVERSE:   *ptr ^= mask; break;
 2210              		.loc 1 281 0
 2211 01c4 FB6A     		ldr	r3, [r7, #44]
 2212 01c6 1A78     		ldrb	r2, [r3]
 2213 01c8 3B1C     		mov	r3, r7
 2214 01ca 2B33     		add	r3, r3, #43
 2215 01cc 1B78     		ldrb	r3, [r3]
 2216 01ce 5340     		eor	r3, r2
 2217 01d0 DAB2     		uxtb	r2, r3
 2218 01d2 FB6A     		ldr	r3, [r7, #44]
 2219 01d4 1A70     		strb	r2, [r3]
 2220 01d6 C046     		mov	r8, r8
ARM GAS  C:\DOCUME~1\Owner\LOCALS~1\Temp\cc1p5VcC.s 			page 45


 2221              	.L48:
 282:.\ssd1306.c   ****                 };  
 283:.\ssd1306.c   ****             }
 284:.\ssd1306.c   ****             
 285:.\ssd1306.c   ****             ptr += DISPLAYWIDTH;
 2222              		.loc 1 285 0
 2223 01d8 FB6A     		ldr	r3, [r7, #44]
 2224 01da 8033     		add	r3, r3, #128
 2225 01dc FB62     		str	r3, [r7, #44]
 2226              	.L36:
 2227              	.LBE3:
 254:.\ssd1306.c   ****         while( ptr <= pend ){
 2228              		.loc 1 254 0 discriminator 1
 2229 01de FA6A     		ldr	r2, [r7, #44]
 2230 01e0 FB69     		ldr	r3, [r7, #28]
 2231 01e2 9A42     		cmp	r2, r3
 2232 01e4 00D8     		bhi	.LCB811
 2233 01e6 4CE7     		b	.L52	@long jump
 2234              	.LCB811:
 2235              	.LBE2:
 2236 01e8 5CE0     		b	.L32
 2237              	.L33:
 2238              	.LBB5:
 286:.\ssd1306.c   ****         }
 287:.\ssd1306.c   ****     }else{
 288:.\ssd1306.c   ****         // horizontal
 289:.\ssd1306.c   ****         uint8_t* pstart = GDDRAM_ADDRESS(x1,y1);
 2239              		.loc 1 289 0
 2240 01ea 304B     		ldr	r3, .L61
 2241 01ec 1A68     		ldr	r2, [r3]
 2242 01ee 3B1D     		add	r3, r7, #4
 2243 01f0 0021     		mov	r1, #0
 2244 01f2 5B5E     		ldrsh	r3, [r3, r1]
 2245 01f4 002B     		cmp	r3, #0
 2246 01f6 00DA     		bge	.L54
 2247 01f8 0733     		add	r3, r3, #7
 2248              	.L54:
 2249 01fa DB10     		asr	r3, r3, #3
 2250 01fc 9BB2     		uxth	r3, r3
 2251 01fe 1BB2     		sxth	r3, r3
 2252 0200 DB01     		lsl	r3, r3, #7
 2253 0202 191C     		mov	r1, r3
 2254 0204 BB1D     		add	r3, r7, #6
 2255 0206 0020     		mov	r0, #0
 2256 0208 1B5E     		ldrsh	r3, [r3, r0]
 2257 020a CB18     		add	r3, r1, r3
 2258 020c D318     		add	r3, r2, r3
 2259 020e 7B61     		str	r3, [r7, #20]
 290:.\ssd1306.c   ****         uint8_t* pend = pstart + x2 - x1;
 2260              		.loc 1 290 0
 2261 0210 BB1C     		add	r3, r7, #2
 2262 0212 0021     		mov	r1, #0
 2263 0214 5A5E     		ldrsh	r2, [r3, r1]
 2264 0216 BB1D     		add	r3, r7, #6
 2265 0218 0020     		mov	r0, #0
 2266 021a 1B5E     		ldrsh	r3, [r3, r0]
 2267 021c D31A     		sub	r3, r2, r3
ARM GAS  C:\DOCUME~1\Owner\LOCALS~1\Temp\cc1p5VcC.s 			page 46


 2268 021e 7A69     		ldr	r2, [r7, #20]
 2269 0220 D318     		add	r3, r2, r3
 2270 0222 3B61     		str	r3, [r7, #16]
 291:.\ssd1306.c   ****         uint8_t pixmask = GDDRAM_PIXMASK(y1);    
 2271              		.loc 1 291 0
 2272 0224 3B1D     		add	r3, r7, #4
 2273 0226 1B88     		ldrh	r3, [r3]
 2274 0228 1A1C     		mov	r2, r3
 2275 022a 0723     		mov	r3, #7
 2276 022c 1340     		and	r3, r2
 2277 022e 0122     		mov	r2, #1
 2278 0230 9A40     		lsl	r2, r2, r3
 2279 0232 3B1C     		mov	r3, r7
 2280 0234 0F33     		add	r3, r3, #15
 2281 0236 1A70     		strb	r2, [r3]
 292:.\ssd1306.c   **** 
 293:.\ssd1306.c   ****         uint8_t* ptr = pstart;
 2282              		.loc 1 293 0
 2283 0238 7B69     		ldr	r3, [r7, #20]
 2284 023a 7B62     		str	r3, [r7, #36]
 294:.\ssd1306.c   ****         while( ptr <= pend ){
 2285              		.loc 1 294 0
 2286 023c 2EE0     		b	.L55
 2287              	.L60:
 295:.\ssd1306.c   ****             switch( color ){
 2288              		.loc 1 295 0
 2289 023e 3B1C     		mov	r3, r7
 2290 0240 4033     		add	r3, r3, #64
 2291 0242 1B88     		ldrh	r3, [r3]
 2292 0244 012B     		cmp	r3, #1
 2293 0246 04D0     		beq	.L57
 2294 0248 022B     		cmp	r3, #2
 2295 024a 1AD0     		beq	.L58
 2296 024c 002B     		cmp	r3, #0
 2297 024e 0AD0     		beq	.L59
 2298 0250 21E0     		b	.L56
 2299              	.L57:
 296:.\ssd1306.c   ****                 case WHITE:     *ptr |= pixmask; break;
 2300              		.loc 1 296 0
 2301 0252 7B6A     		ldr	r3, [r7, #36]
 2302 0254 1A78     		ldrb	r2, [r3]
 2303 0256 3B1C     		mov	r3, r7
 2304 0258 0F33     		add	r3, r3, #15
 2305 025a 1B78     		ldrb	r3, [r3]
 2306 025c 1343     		orr	r3, r2
 2307 025e DAB2     		uxtb	r2, r3
 2308 0260 7B6A     		ldr	r3, [r7, #36]
 2309 0262 1A70     		strb	r2, [r3]
 2310 0264 17E0     		b	.L56
 2311              	.L59:
 297:.\ssd1306.c   ****                 case BLACK:     *ptr &= ~pixmask; break;
 2312              		.loc 1 297 0
 2313 0266 7B6A     		ldr	r3, [r7, #36]
 2314 0268 1B78     		ldrb	r3, [r3]
 2315 026a DBB2     		uxtb	r3, r3
 2316 026c 3A1C     		mov	r2, r7
 2317 026e 0F32     		add	r2, r2, #15
ARM GAS  C:\DOCUME~1\Owner\LOCALS~1\Temp\cc1p5VcC.s 			page 47


 2318 0270 1278     		ldrb	r2, [r2]
 2319 0272 D243     		mvn	r2, r2
 2320 0274 D2B2     		uxtb	r2, r2
 2321 0276 1340     		and	r3, r2
 2322 0278 DBB2     		uxtb	r3, r3
 2323 027a DAB2     		uxtb	r2, r3
 2324 027c 7B6A     		ldr	r3, [r7, #36]
 2325 027e 1A70     		strb	r2, [r3]
 2326 0280 09E0     		b	.L56
 2327              	.L58:
 298:.\ssd1306.c   ****                 case INVERSE:   *ptr ^= pixmask; break;
 2328              		.loc 1 298 0
 2329 0282 7B6A     		ldr	r3, [r7, #36]
 2330 0284 1A78     		ldrb	r2, [r3]
 2331 0286 3B1C     		mov	r3, r7
 2332 0288 0F33     		add	r3, r3, #15
 2333 028a 1B78     		ldrb	r3, [r3]
 2334 028c 5340     		eor	r3, r2
 2335 028e DAB2     		uxtb	r2, r3
 2336 0290 7B6A     		ldr	r3, [r7, #36]
 2337 0292 1A70     		strb	r2, [r3]
 2338 0294 C046     		mov	r8, r8
 2339              	.L56:
 299:.\ssd1306.c   ****             };
 300:.\ssd1306.c   ****             ptr++;
 2340              		.loc 1 300 0
 2341 0296 7B6A     		ldr	r3, [r7, #36]
 2342 0298 0133     		add	r3, r3, #1
 2343 029a 7B62     		str	r3, [r7, #36]
 2344              	.L55:
 294:.\ssd1306.c   ****         while( ptr <= pend ){
 2345              		.loc 1 294 0 discriminator 1
 2346 029c 7A6A     		ldr	r2, [r7, #36]
 2347 029e 3B69     		ldr	r3, [r7, #16]
 2348 02a0 9A42     		cmp	r2, r3
 2349 02a2 CCD9     		bls	.L60
 2350              	.L32:
 2351              	.LBE5:
 301:.\ssd1306.c   ****         }
 302:.\ssd1306.c   ****     }
 303:.\ssd1306.c   **** }
 2352              		.loc 1 303 0
 2353 02a4 BD46     		mov	sp, r7
 2354 02a6 0DB0     		add	sp, sp, #52
 2355              		@ sp needed
 2356 02a8 90BD     		pop	{r4, r7, pc}
 2357              	.L62:
 2358 02aa C046     		.align	2
 2359              	.L61:
 2360 02ac 04040000 		.word	_displaybuf
 2361 02b0 07000080 		.word	-2147483641
 2362              		.cfi_endproc
 2363              	.LFE40:
 2364              		.size	display_line, .-display_line
 2365              		.section	.text.display_stopscroll,"ax",%progbits
 2366              		.align	2
 2367              		.global	display_stopscroll
ARM GAS  C:\DOCUME~1\Owner\LOCALS~1\Temp\cc1p5VcC.s 			page 48


 2368              		.code	16
 2369              		.thumb_func
 2370              		.type	display_stopscroll, %function
 2371              	display_stopscroll:
 2372              	.LFB41:
 304:.\ssd1306.c   **** 
 305:.\ssd1306.c   **** 
 306:.\ssd1306.c   **** 
 307:.\ssd1306.c   **** void display_stopscroll(void){
 2373              		.loc 1 307 0
 2374              		.cfi_startproc
 2375 0000 80B5     		push	{r7, lr}
 2376              		.cfi_def_cfa_offset 8
 2377              		.cfi_offset 7, -8
 2378              		.cfi_offset 14, -4
 2379 0002 82B0     		sub	sp, sp, #8
 2380              		.cfi_def_cfa_offset 16
 2381 0004 00AF     		add	r7, sp, #0
 2382              		.cfi_def_cfa_register 7
 308:.\ssd1306.c   **** 
 309:.\ssd1306.c   ****     uint8 cmdbuf[] = {
 2383              		.loc 1 309 0
 2384 0006 3B1D     		add	r3, r7, #4
 2385 0008 0022     		mov	r2, #0
 2386 000a 1A70     		strb	r2, [r3]
 2387 000c 3B1D     		add	r3, r7, #4
 2388 000e 2E22     		mov	r2, #46
 2389 0010 5A70     		strb	r2, [r3, #1]
 310:.\ssd1306.c   ****         0x00,
 311:.\ssd1306.c   ****         SSD1306_DEACTIVATE_SCROLL
 312:.\ssd1306.c   ****     };
 313:.\ssd1306.c   ****     display_write_buf( cmdbuf, sizeof(cmdbuf) ); 
 2390              		.loc 1 313 0
 2391 0012 3B1D     		add	r3, r7, #4
 2392 0014 181C     		mov	r0, r3
 2393 0016 0221     		mov	r1, #2
 2394 0018 FFF7FEFF 		bl	display_write_buf
 314:.\ssd1306.c   **** }
 2395              		.loc 1 314 0
 2396 001c BD46     		mov	sp, r7
 2397 001e 02B0     		add	sp, sp, #8
 2398              		@ sp needed
 2399 0020 80BD     		pop	{r7, pc}
 2400              		.cfi_endproc
 2401              	.LFE41:
 2402              		.size	display_stopscroll, .-display_stopscroll
 2403 0022 C046     		.section	.text.display_scroll,"ax",%progbits
 2404              		.align	2
 2405              		.global	display_scroll
 2406              		.code	16
 2407              		.thumb_func
 2408              		.type	display_scroll, %function
 2409              	display_scroll:
 2410              	.LFB42:
 315:.\ssd1306.c   **** 
 316:.\ssd1306.c   **** void display_scroll( SCROLL_AREA start, SCROLL_AREA end, SCROLL_DIR dir, SCROLL_SPEED speed ){
 2411              		.loc 1 316 0
ARM GAS  C:\DOCUME~1\Owner\LOCALS~1\Temp\cc1p5VcC.s 			page 49


 2412              		.cfi_startproc
 2413 0000 90B5     		push	{r4, r7, lr}
 2414              		.cfi_def_cfa_offset 12
 2415              		.cfi_offset 4, -12
 2416              		.cfi_offset 7, -8
 2417              		.cfi_offset 14, -4
 2418 0002 87B0     		sub	sp, sp, #28
 2419              		.cfi_def_cfa_offset 40
 2420 0004 00AF     		add	r7, sp, #0
 2421              		.cfi_def_cfa_register 7
 2422 0006 041C     		mov	r4, r0
 2423 0008 081C     		mov	r0, r1
 2424 000a 111C     		mov	r1, r2
 2425 000c 1A1C     		mov	r2, r3
 2426 000e FB1D     		add	r3, r7, #7
 2427 0010 1C70     		strb	r4, [r3]
 2428 0012 BB1D     		add	r3, r7, #6
 2429 0014 1870     		strb	r0, [r3]
 2430 0016 7B1D     		add	r3, r7, #5
 2431 0018 1970     		strb	r1, [r3]
 2432 001a 3B1D     		add	r3, r7, #4
 2433 001c 1A70     		strb	r2, [r3]
 317:.\ssd1306.c   ****    
 318:.\ssd1306.c   ****     uint8 cmdbuf[] = {
 2434              		.loc 1 318 0
 2435 001e 3B1C     		mov	r3, r7
 2436 0020 0C33     		add	r3, r3, #12
 2437 0022 0022     		mov	r2, #0
 2438 0024 1A70     		strb	r2, [r3]
 2439 0026 3B1C     		mov	r3, r7
 2440 0028 0C33     		add	r3, r3, #12
 2441 002a 7A1D     		add	r2, r7, #5
 2442 002c 1278     		ldrb	r2, [r2]
 2443 002e 5A70     		strb	r2, [r3, #1]
 2444 0030 3B1C     		mov	r3, r7
 2445 0032 0C33     		add	r3, r3, #12
 2446 0034 0022     		mov	r2, #0
 2447 0036 9A70     		strb	r2, [r3, #2]
 2448 0038 3B1C     		mov	r3, r7
 2449 003a 0C33     		add	r3, r3, #12
 2450 003c FA1D     		add	r2, r7, #7
 2451 003e 1278     		ldrb	r2, [r2]
 2452 0040 DA70     		strb	r2, [r3, #3]
 2453 0042 3B1C     		mov	r3, r7
 2454 0044 0C33     		add	r3, r3, #12
 2455 0046 3A1D     		add	r2, r7, #4
 2456 0048 1278     		ldrb	r2, [r2]
 2457 004a 1A71     		strb	r2, [r3, #4]
 2458 004c 3B1C     		mov	r3, r7
 2459 004e 0C33     		add	r3, r3, #12
 2460 0050 BA1D     		add	r2, r7, #6
 2461 0052 1278     		ldrb	r2, [r2]
 2462 0054 5A71     		strb	r2, [r3, #5]
 2463 0056 3B1C     		mov	r3, r7
 2464 0058 0C33     		add	r3, r3, #12
 2465 005a 0022     		mov	r2, #0
 2466 005c 9A71     		strb	r2, [r3, #6]
ARM GAS  C:\DOCUME~1\Owner\LOCALS~1\Temp\cc1p5VcC.s 			page 50


 2467 005e 3B1C     		mov	r3, r7
 2468 0060 0C33     		add	r3, r3, #12
 2469 0062 FF22     		mov	r2, #255
 2470 0064 DA71     		strb	r2, [r3, #7]
 2471 0066 3B1C     		mov	r3, r7
 2472 0068 0C33     		add	r3, r3, #12
 2473 006a 2F22     		mov	r2, #47
 2474 006c 1A72     		strb	r2, [r3, #8]
 319:.\ssd1306.c   ****         0x00,
 320:.\ssd1306.c   ****         dir,                    // 0x26 or 0x2a
 321:.\ssd1306.c   ****         0x00,                   // dummy byte
 322:.\ssd1306.c   ****         start,                  // start page
 323:.\ssd1306.c   ****         speed,                  // scroll step interval in terms of frame frequency 
 324:.\ssd1306.c   ****         end,                    // end page
 325:.\ssd1306.c   ****         0x00,                   // dummy byte
 326:.\ssd1306.c   ****         0xFF,                   // dummy byte
 327:.\ssd1306.c   ****         SSD1306_ACTIVATE_SCROLL // 0x2F
 328:.\ssd1306.c   ****     };
 329:.\ssd1306.c   ****     display_write_buf( cmdbuf, sizeof(cmdbuf) ); 
 2475              		.loc 1 329 0
 2476 006e 3B1C     		mov	r3, r7
 2477 0070 0C33     		add	r3, r3, #12
 2478 0072 181C     		mov	r0, r3
 2479 0074 0921     		mov	r1, #9
 2480 0076 FFF7FEFF 		bl	display_write_buf
 330:.\ssd1306.c   **** }
 2481              		.loc 1 330 0
 2482 007a BD46     		mov	sp, r7
 2483 007c 07B0     		add	sp, sp, #28
 2484              		@ sp needed
 2485 007e 90BD     		pop	{r4, r7, pc}
 2486              		.cfi_endproc
 2487              	.LFE42:
 2488              		.size	display_scroll, .-display_scroll
 2489              		.comm	WIDTH,2,2
 2490              		.comm	HEIGHT,2,2
 2491              		.bss
 2492 0001 00       		.align	1
 2493              	_width:
 2494 0002 0000     		.space	2
 2495              		.align	1
 2496              	_height:
 2497 0004 0000     		.space	2
 2498              		.align	1
 2499              	cursor_x:
 2500 0006 0000     		.space	2
 2501              		.align	1
 2502              	cursor_y:
 2503 0008 0000     		.space	2
 2504              		.align	1
 2505              	textcolor:
 2506 000a 0000     		.space	2
 2507              		.align	1
 2508              	textbgcolor:
 2509 000c 0000     		.space	2
 2510              	textsize:
 2511 000e 00       		.space	1
ARM GAS  C:\DOCUME~1\Owner\LOCALS~1\Temp\cc1p5VcC.s 			page 51


 2512              		.comm	rotation,1,1
 2513              		.comm	wrap,1,1
 2514 000f 00       		.section	.text.gfx_init,"ax",%progbits
 2515              		.align	2
 2516              		.global	gfx_init
 2517              		.code	16
 2518              		.thumb_func
 2519              		.type	gfx_init, %function
 2520              	gfx_init:
 2521              	.LFB43:
 331:.\ssd1306.c   **** 
 332:.\ssd1306.c   **** 
 333:.\ssd1306.c   **** 
 334:.\ssd1306.c   **** // ============================================================
 335:.\ssd1306.c   **** // graphics library stuff
 336:.\ssd1306.c   **** 
 337:.\ssd1306.c   **** int16_t WIDTH, HEIGHT; // This is the 'raw' display w/h - never changes
 338:.\ssd1306.c   **** static int16_t _width, _height; // Display w/h as modified by current rotation
 339:.\ssd1306.c   **** static int16_t cursor_x, cursor_y;
 340:.\ssd1306.c   **** static uint16_t textcolor, textbgcolor;
 341:.\ssd1306.c   **** static uint8_t textsize;
 342:.\ssd1306.c   **** uint8_t rotation;
 343:.\ssd1306.c   **** uint8_t wrap; // If set, 'wrap' text at right edge of display
 344:.\ssd1306.c   **** 
 345:.\ssd1306.c   **** 
 346:.\ssd1306.c   **** 
 347:.\ssd1306.c   **** void gfx_init( int16_t width, int16_t height ){
 2522              		.loc 1 347 0
 2523              		.cfi_startproc
 2524 0000 80B5     		push	{r7, lr}
 2525              		.cfi_def_cfa_offset 8
 2526              		.cfi_offset 7, -8
 2527              		.cfi_offset 14, -4
 2528 0002 82B0     		sub	sp, sp, #8
 2529              		.cfi_def_cfa_offset 16
 2530 0004 00AF     		add	r7, sp, #0
 2531              		.cfi_def_cfa_register 7
 2532 0006 0A1C     		mov	r2, r1
 2533 0008 BB1D     		add	r3, r7, #6
 2534 000a 011C     		add	r1, r0, #0
 2535 000c 1980     		strh	r1, [r3]
 2536 000e 3B1D     		add	r3, r7, #4
 2537 0010 1A80     		strh	r2, [r3]
 348:.\ssd1306.c   ****     WIDTH = width;
 2538              		.loc 1 348 0
 2539 0012 154B     		ldr	r3, .L66
 2540 0014 BA1D     		add	r2, r7, #6
 2541 0016 1288     		ldrh	r2, [r2]
 2542 0018 1A80     		strh	r2, [r3]
 349:.\ssd1306.c   ****     HEIGHT = height;
 2543              		.loc 1 349 0
 2544 001a 144B     		ldr	r3, .L66+4
 2545 001c 3A1D     		add	r2, r7, #4
 2546 001e 1288     		ldrh	r2, [r2]
 2547 0020 1A80     		strh	r2, [r3]
 350:.\ssd1306.c   ****     _width = WIDTH;
 2548              		.loc 1 350 0
ARM GAS  C:\DOCUME~1\Owner\LOCALS~1\Temp\cc1p5VcC.s 			page 52


 2549 0022 114B     		ldr	r3, .L66
 2550 0024 1A88     		ldrh	r2, [r3]
 2551 0026 124B     		ldr	r3, .L66+8
 2552 0028 1A80     		strh	r2, [r3]
 351:.\ssd1306.c   ****     _height = HEIGHT;
 2553              		.loc 1 351 0
 2554 002a 104B     		ldr	r3, .L66+4
 2555 002c 1A88     		ldrh	r2, [r3]
 2556 002e 114B     		ldr	r3, .L66+12
 2557 0030 1A80     		strh	r2, [r3]
 352:.\ssd1306.c   ****     
 353:.\ssd1306.c   ****     rotation = 0;
 2558              		.loc 1 353 0
 2559 0032 114B     		ldr	r3, .L66+16
 2560 0034 0022     		mov	r2, #0
 2561 0036 1A70     		strb	r2, [r3]
 354:.\ssd1306.c   ****     cursor_y = cursor_x = 0;
 2562              		.loc 1 354 0
 2563 0038 104B     		ldr	r3, .L66+20
 2564 003a 0022     		mov	r2, #0
 2565 003c 1A80     		strh	r2, [r3]
 2566 003e 0F4B     		ldr	r3, .L66+20
 2567 0040 1A88     		ldrh	r2, [r3]
 2568 0042 0F4B     		ldr	r3, .L66+24
 2569 0044 1A80     		strh	r2, [r3]
 355:.\ssd1306.c   ****     textsize = 1;
 2570              		.loc 1 355 0
 2571 0046 0F4B     		ldr	r3, .L66+28
 2572 0048 0122     		mov	r2, #1
 2573 004a 1A70     		strb	r2, [r3]
 356:.\ssd1306.c   ****     textcolor = textbgcolor = 0xFFFF;
 2574              		.loc 1 356 0
 2575 004c 0E4B     		ldr	r3, .L66+32
 2576 004e 0122     		mov	r2, #1
 2577 0050 5242     		neg	r2, r2
 2578 0052 1A80     		strh	r2, [r3]
 2579 0054 0C4B     		ldr	r3, .L66+32
 2580 0056 1A88     		ldrh	r2, [r3]
 2581 0058 0C4B     		ldr	r3, .L66+36
 2582 005a 1A80     		strh	r2, [r3]
 357:.\ssd1306.c   ****     wrap = 1;
 2583              		.loc 1 357 0
 2584 005c 0C4B     		ldr	r3, .L66+40
 2585 005e 0122     		mov	r2, #1
 2586 0060 1A70     		strb	r2, [r3]
 358:.\ssd1306.c   **** }
 2587              		.loc 1 358 0
 2588 0062 BD46     		mov	sp, r7
 2589 0064 02B0     		add	sp, sp, #8
 2590              		@ sp needed
 2591 0066 80BD     		pop	{r7, pc}
 2592              	.L67:
 2593              		.align	2
 2594              	.L66:
 2595 0068 00000000 		.word	WIDTH
 2596 006c 00000000 		.word	HEIGHT
 2597 0070 02000000 		.word	_width
ARM GAS  C:\DOCUME~1\Owner\LOCALS~1\Temp\cc1p5VcC.s 			page 53


 2598 0074 04000000 		.word	_height
 2599 0078 00000000 		.word	rotation
 2600 007c 06000000 		.word	cursor_x
 2601 0080 08000000 		.word	cursor_y
 2602 0084 0E000000 		.word	textsize
 2603 0088 0C000000 		.word	textbgcolor
 2604 008c 0A000000 		.word	textcolor
 2605 0090 00000000 		.word	wrap
 2606              		.cfi_endproc
 2607              	.LFE43:
 2608              		.size	gfx_init, .-gfx_init
 2609              		.section	.text.gfx_width,"ax",%progbits
 2610              		.align	2
 2611              		.global	gfx_width
 2612              		.code	16
 2613              		.thumb_func
 2614              		.type	gfx_width, %function
 2615              	gfx_width:
 2616              	.LFB44:
 359:.\ssd1306.c   **** 
 360:.\ssd1306.c   **** // Return the size of the display (per current rotation)
 361:.\ssd1306.c   **** int16_t gfx_width(void){
 2617              		.loc 1 361 0
 2618              		.cfi_startproc
 2619 0000 80B5     		push	{r7, lr}
 2620              		.cfi_def_cfa_offset 8
 2621              		.cfi_offset 7, -8
 2622              		.cfi_offset 14, -4
 2623 0002 00AF     		add	r7, sp, #0
 2624              		.cfi_def_cfa_register 7
 362:.\ssd1306.c   ****     return _width;
 2625              		.loc 1 362 0
 2626 0004 024B     		ldr	r3, .L70
 2627 0006 1B88     		ldrh	r3, [r3]
 2628 0008 1BB2     		sxth	r3, r3
 363:.\ssd1306.c   **** }
 2629              		.loc 1 363 0
 2630 000a 181C     		mov	r0, r3
 2631 000c BD46     		mov	sp, r7
 2632              		@ sp needed
 2633 000e 80BD     		pop	{r7, pc}
 2634              	.L71:
 2635              		.align	2
 2636              	.L70:
 2637 0010 02000000 		.word	_width
 2638              		.cfi_endproc
 2639              	.LFE44:
 2640              		.size	gfx_width, .-gfx_width
 2641              		.section	.text.gfx_height,"ax",%progbits
 2642              		.align	2
 2643              		.global	gfx_height
 2644              		.code	16
 2645              		.thumb_func
 2646              		.type	gfx_height, %function
 2647              	gfx_height:
 2648              	.LFB45:
 364:.\ssd1306.c   **** 
ARM GAS  C:\DOCUME~1\Owner\LOCALS~1\Temp\cc1p5VcC.s 			page 54


 365:.\ssd1306.c   **** int16_t gfx_height(void){
 2649              		.loc 1 365 0
 2650              		.cfi_startproc
 2651 0000 80B5     		push	{r7, lr}
 2652              		.cfi_def_cfa_offset 8
 2653              		.cfi_offset 7, -8
 2654              		.cfi_offset 14, -4
 2655 0002 00AF     		add	r7, sp, #0
 2656              		.cfi_def_cfa_register 7
 366:.\ssd1306.c   ****     return _height;
 2657              		.loc 1 366 0
 2658 0004 024B     		ldr	r3, .L74
 2659 0006 1B88     		ldrh	r3, [r3]
 2660 0008 1BB2     		sxth	r3, r3
 367:.\ssd1306.c   **** }
 2661              		.loc 1 367 0
 2662 000a 181C     		mov	r0, r3
 2663 000c BD46     		mov	sp, r7
 2664              		@ sp needed
 2665 000e 80BD     		pop	{r7, pc}
 2666              	.L75:
 2667              		.align	2
 2668              	.L74:
 2669 0010 04000000 		.word	_height
 2670              		.cfi_endproc
 2671              	.LFE45:
 2672              		.size	gfx_height, .-gfx_height
 2673              		.section	.text.gfx_rotation,"ax",%progbits
 2674              		.align	2
 2675              		.global	gfx_rotation
 2676              		.code	16
 2677              		.thumb_func
 2678              		.type	gfx_rotation, %function
 2679              	gfx_rotation:
 2680              	.LFB46:
 368:.\ssd1306.c   **** 
 369:.\ssd1306.c   **** uint8_t gfx_rotation(void){
 2681              		.loc 1 369 0
 2682              		.cfi_startproc
 2683 0000 80B5     		push	{r7, lr}
 2684              		.cfi_def_cfa_offset 8
 2685              		.cfi_offset 7, -8
 2686              		.cfi_offset 14, -4
 2687 0002 00AF     		add	r7, sp, #0
 2688              		.cfi_def_cfa_register 7
 370:.\ssd1306.c   ****     return rotation;
 2689              		.loc 1 370 0
 2690 0004 024B     		ldr	r3, .L78
 2691 0006 1B78     		ldrb	r3, [r3]
 371:.\ssd1306.c   **** }
 2692              		.loc 1 371 0
 2693 0008 181C     		mov	r0, r3
 2694 000a BD46     		mov	sp, r7
 2695              		@ sp needed
 2696 000c 80BD     		pop	{r7, pc}
 2697              	.L79:
 2698 000e C046     		.align	2
ARM GAS  C:\DOCUME~1\Owner\LOCALS~1\Temp\cc1p5VcC.s 			page 55


 2699              	.L78:
 2700 0010 00000000 		.word	rotation
 2701              		.cfi_endproc
 2702              	.LFE46:
 2703              		.size	gfx_rotation, .-gfx_rotation
 2704              		.section	.text.gfx_setCursor,"ax",%progbits
 2705              		.align	2
 2706              		.global	gfx_setCursor
 2707              		.code	16
 2708              		.thumb_func
 2709              		.type	gfx_setCursor, %function
 2710              	gfx_setCursor:
 2711              	.LFB47:
 372:.\ssd1306.c   **** 
 373:.\ssd1306.c   **** void gfx_setCursor( int16_t x, int16_t y ){
 2712              		.loc 1 373 0
 2713              		.cfi_startproc
 2714 0000 80B5     		push	{r7, lr}
 2715              		.cfi_def_cfa_offset 8
 2716              		.cfi_offset 7, -8
 2717              		.cfi_offset 14, -4
 2718 0002 82B0     		sub	sp, sp, #8
 2719              		.cfi_def_cfa_offset 16
 2720 0004 00AF     		add	r7, sp, #0
 2721              		.cfi_def_cfa_register 7
 2722 0006 0A1C     		mov	r2, r1
 2723 0008 BB1D     		add	r3, r7, #6
 2724 000a 011C     		add	r1, r0, #0
 2725 000c 1980     		strh	r1, [r3]
 2726 000e 3B1D     		add	r3, r7, #4
 2727 0010 1A80     		strh	r2, [r3]
 374:.\ssd1306.c   ****     cursor_x = x;
 2728              		.loc 1 374 0
 2729 0012 054B     		ldr	r3, .L81
 2730 0014 BA1D     		add	r2, r7, #6
 2731 0016 1288     		ldrh	r2, [r2]
 2732 0018 1A80     		strh	r2, [r3]
 375:.\ssd1306.c   ****     cursor_y = y;
 2733              		.loc 1 375 0
 2734 001a 044B     		ldr	r3, .L81+4
 2735 001c 3A1D     		add	r2, r7, #4
 2736 001e 1288     		ldrh	r2, [r2]
 2737 0020 1A80     		strh	r2, [r3]
 376:.\ssd1306.c   **** }
 2738              		.loc 1 376 0
 2739 0022 BD46     		mov	sp, r7
 2740 0024 02B0     		add	sp, sp, #8
 2741              		@ sp needed
 2742 0026 80BD     		pop	{r7, pc}
 2743              	.L82:
 2744              		.align	2
 2745              	.L81:
 2746 0028 06000000 		.word	cursor_x
 2747 002c 08000000 		.word	cursor_y
 2748              		.cfi_endproc
 2749              	.LFE47:
 2750              		.size	gfx_setCursor, .-gfx_setCursor
ARM GAS  C:\DOCUME~1\Owner\LOCALS~1\Temp\cc1p5VcC.s 			page 56


 2751              		.section	.text.gfx_setTextSize,"ax",%progbits
 2752              		.align	2
 2753              		.global	gfx_setTextSize
 2754              		.code	16
 2755              		.thumb_func
 2756              		.type	gfx_setTextSize, %function
 2757              	gfx_setTextSize:
 2758              	.LFB48:
 377:.\ssd1306.c   **** 
 378:.\ssd1306.c   **** void gfx_setTextSize( uint8_t size ){
 2759              		.loc 1 378 0
 2760              		.cfi_startproc
 2761 0000 80B5     		push	{r7, lr}
 2762              		.cfi_def_cfa_offset 8
 2763              		.cfi_offset 7, -8
 2764              		.cfi_offset 14, -4
 2765 0002 82B0     		sub	sp, sp, #8
 2766              		.cfi_def_cfa_offset 16
 2767 0004 00AF     		add	r7, sp, #0
 2768              		.cfi_def_cfa_register 7
 2769 0006 021C     		mov	r2, r0
 2770 0008 FB1D     		add	r3, r7, #7
 2771 000a 1A70     		strb	r2, [r3]
 379:.\ssd1306.c   ****     textsize = (size > 0) ? size : 1;
 2772              		.loc 1 379 0
 2773 000c FB1D     		add	r3, r7, #7
 2774 000e 1B78     		ldrb	r3, [r3]
 2775 0010 002B     		cmp	r3, #0
 2776 0012 02D0     		beq	.L84
 2777              		.loc 1 379 0 is_stmt 0 discriminator 1
 2778 0014 FB1D     		add	r3, r7, #7
 2779 0016 1B78     		ldrb	r3, [r3]
 2780 0018 00E0     		b	.L85
 2781              	.L84:
 2782              		.loc 1 379 0 discriminator 2
 2783 001a 0123     		mov	r3, #1
 2784              	.L85:
 2785              		.loc 1 379 0 discriminator 3
 2786 001c 024A     		ldr	r2, .L86
 2787 001e 1370     		strb	r3, [r2]
 380:.\ssd1306.c   **** }
 2788              		.loc 1 380 0 is_stmt 1 discriminator 3
 2789 0020 BD46     		mov	sp, r7
 2790 0022 02B0     		add	sp, sp, #8
 2791              		@ sp needed
 2792 0024 80BD     		pop	{r7, pc}
 2793              	.L87:
 2794 0026 C046     		.align	2
 2795              	.L86:
 2796 0028 0E000000 		.word	textsize
 2797              		.cfi_endproc
 2798              	.LFE48:
 2799              		.size	gfx_setTextSize, .-gfx_setTextSize
 2800              		.section	.text.gfx_setTextColor,"ax",%progbits
 2801              		.align	2
 2802              		.global	gfx_setTextColor
 2803              		.code	16
ARM GAS  C:\DOCUME~1\Owner\LOCALS~1\Temp\cc1p5VcC.s 			page 57


 2804              		.thumb_func
 2805              		.type	gfx_setTextColor, %function
 2806              	gfx_setTextColor:
 2807              	.LFB49:
 381:.\ssd1306.c   **** 
 382:.\ssd1306.c   **** void gfx_setTextColor( uint16_t color ){
 2808              		.loc 1 382 0
 2809              		.cfi_startproc
 2810 0000 80B5     		push	{r7, lr}
 2811              		.cfi_def_cfa_offset 8
 2812              		.cfi_offset 7, -8
 2813              		.cfi_offset 14, -4
 2814 0002 82B0     		sub	sp, sp, #8
 2815              		.cfi_def_cfa_offset 16
 2816 0004 00AF     		add	r7, sp, #0
 2817              		.cfi_def_cfa_register 7
 2818 0006 021C     		mov	r2, r0
 2819 0008 BB1D     		add	r3, r7, #6
 2820 000a 1A80     		strh	r2, [r3]
 383:.\ssd1306.c   ****     // For 'transparent' background, we'll set the bg
 384:.\ssd1306.c   ****     // to the same as fg instead of using a flag
 385:.\ssd1306.c   ****     textcolor = textbgcolor = color;
 2821              		.loc 1 385 0
 2822 000c 054B     		ldr	r3, .L89
 2823 000e BA1D     		add	r2, r7, #6
 2824 0010 1288     		ldrh	r2, [r2]
 2825 0012 1A80     		strh	r2, [r3]
 2826 0014 034B     		ldr	r3, .L89
 2827 0016 1A88     		ldrh	r2, [r3]
 2828 0018 034B     		ldr	r3, .L89+4
 2829 001a 1A80     		strh	r2, [r3]
 386:.\ssd1306.c   **** }
 2830              		.loc 1 386 0
 2831 001c BD46     		mov	sp, r7
 2832 001e 02B0     		add	sp, sp, #8
 2833              		@ sp needed
 2834 0020 80BD     		pop	{r7, pc}
 2835              	.L90:
 2836 0022 C046     		.align	2
 2837              	.L89:
 2838 0024 0C000000 		.word	textbgcolor
 2839 0028 0A000000 		.word	textcolor
 2840              		.cfi_endproc
 2841              	.LFE49:
 2842              		.size	gfx_setTextColor, .-gfx_setTextColor
 2843              		.section	.text.gfx_setTextBg,"ax",%progbits
 2844              		.align	2
 2845              		.global	gfx_setTextBg
 2846              		.code	16
 2847              		.thumb_func
 2848              		.type	gfx_setTextBg, %function
 2849              	gfx_setTextBg:
 2850              	.LFB50:
 387:.\ssd1306.c   **** 
 388:.\ssd1306.c   **** void gfx_setTextBg( uint16_t color ){
 2851              		.loc 1 388 0
 2852              		.cfi_startproc
ARM GAS  C:\DOCUME~1\Owner\LOCALS~1\Temp\cc1p5VcC.s 			page 58


 2853 0000 80B5     		push	{r7, lr}
 2854              		.cfi_def_cfa_offset 8
 2855              		.cfi_offset 7, -8
 2856              		.cfi_offset 14, -4
 2857 0002 82B0     		sub	sp, sp, #8
 2858              		.cfi_def_cfa_offset 16
 2859 0004 00AF     		add	r7, sp, #0
 2860              		.cfi_def_cfa_register 7
 2861 0006 021C     		mov	r2, r0
 2862 0008 BB1D     		add	r3, r7, #6
 2863 000a 1A80     		strh	r2, [r3]
 389:.\ssd1306.c   ****     textbgcolor = color;
 2864              		.loc 1 389 0
 2865 000c 034B     		ldr	r3, .L92
 2866 000e BA1D     		add	r2, r7, #6
 2867 0010 1288     		ldrh	r2, [r2]
 2868 0012 1A80     		strh	r2, [r3]
 390:.\ssd1306.c   **** }
 2869              		.loc 1 390 0
 2870 0014 BD46     		mov	sp, r7
 2871 0016 02B0     		add	sp, sp, #8
 2872              		@ sp needed
 2873 0018 80BD     		pop	{r7, pc}
 2874              	.L93:
 2875 001a C046     		.align	2
 2876              	.L92:
 2877 001c 0C000000 		.word	textbgcolor
 2878              		.cfi_endproc
 2879              	.LFE50:
 2880              		.size	gfx_setTextBg, .-gfx_setTextBg
 2881              		.section	.text.gfx_setTextWrap,"ax",%progbits
 2882              		.align	2
 2883              		.global	gfx_setTextWrap
 2884              		.code	16
 2885              		.thumb_func
 2886              		.type	gfx_setTextWrap, %function
 2887              	gfx_setTextWrap:
 2888              	.LFB51:
 391:.\ssd1306.c   **** 
 392:.\ssd1306.c   **** void gfx_setTextWrap( uint8 w ){
 2889              		.loc 1 392 0
 2890              		.cfi_startproc
 2891 0000 80B5     		push	{r7, lr}
 2892              		.cfi_def_cfa_offset 8
 2893              		.cfi_offset 7, -8
 2894              		.cfi_offset 14, -4
 2895 0002 82B0     		sub	sp, sp, #8
 2896              		.cfi_def_cfa_offset 16
 2897 0004 00AF     		add	r7, sp, #0
 2898              		.cfi_def_cfa_register 7
 2899 0006 021C     		mov	r2, r0
 2900 0008 FB1D     		add	r3, r7, #7
 2901 000a 1A70     		strb	r2, [r3]
 393:.\ssd1306.c   ****     wrap = w;
 2902              		.loc 1 393 0
 2903 000c 034B     		ldr	r3, .L95
 2904 000e FA1D     		add	r2, r7, #7
ARM GAS  C:\DOCUME~1\Owner\LOCALS~1\Temp\cc1p5VcC.s 			page 59


 2905 0010 1278     		ldrb	r2, [r2]
 2906 0012 1A70     		strb	r2, [r3]
 394:.\ssd1306.c   **** }
 2907              		.loc 1 394 0
 2908 0014 BD46     		mov	sp, r7
 2909 0016 02B0     		add	sp, sp, #8
 2910              		@ sp needed
 2911 0018 80BD     		pop	{r7, pc}
 2912              	.L96:
 2913 001a C046     		.align	2
 2914              	.L95:
 2915 001c 00000000 		.word	wrap
 2916              		.cfi_endproc
 2917              	.LFE51:
 2918              		.size	gfx_setTextWrap, .-gfx_setTextWrap
 2919              		.section	.text.gfx_setRotation,"ax",%progbits
 2920              		.align	2
 2921              		.global	gfx_setRotation
 2922              		.code	16
 2923              		.thumb_func
 2924              		.type	gfx_setRotation, %function
 2925              	gfx_setRotation:
 2926              	.LFB52:
 395:.\ssd1306.c   **** 
 396:.\ssd1306.c   **** void gfx_setRotation( uint8_t x ){
 2927              		.loc 1 396 0
 2928              		.cfi_startproc
 2929 0000 80B5     		push	{r7, lr}
 2930              		.cfi_def_cfa_offset 8
 2931              		.cfi_offset 7, -8
 2932              		.cfi_offset 14, -4
 2933 0002 82B0     		sub	sp, sp, #8
 2934              		.cfi_def_cfa_offset 16
 2935 0004 00AF     		add	r7, sp, #0
 2936              		.cfi_def_cfa_register 7
 2937 0006 021C     		mov	r2, r0
 2938 0008 FB1D     		add	r3, r7, #7
 2939 000a 1A70     		strb	r2, [r3]
 397:.\ssd1306.c   ****     
 398:.\ssd1306.c   ****     rotation = (x & 3);
 2940              		.loc 1 398 0
 2941 000c FB1D     		add	r3, r7, #7
 2942 000e 1A78     		ldrb	r2, [r3]
 2943 0010 0323     		mov	r3, #3
 2944 0012 1340     		and	r3, r2
 2945 0014 DAB2     		uxtb	r2, r3
 2946 0016 124B     		ldr	r3, .L102
 2947 0018 1A70     		strb	r2, [r3]
 399:.\ssd1306.c   ****     switch( rotation ){
 2948              		.loc 1 399 0
 2949 001a 114B     		ldr	r3, .L102
 2950 001c 1B78     		ldrb	r3, [r3]
 2951 001e 012B     		cmp	r3, #1
 2952 0020 11D0     		beq	.L99
 2953 0022 02DC     		bgt	.L100
 2954 0024 002B     		cmp	r3, #0
 2955 0026 05D0     		beq	.L101
ARM GAS  C:\DOCUME~1\Owner\LOCALS~1\Temp\cc1p5VcC.s 			page 60


 2956 0028 16E0     		b	.L97
 2957              	.L100:
 2958 002a 022B     		cmp	r3, #2
 2959 002c 02D0     		beq	.L101
 2960 002e 032B     		cmp	r3, #3
 2961 0030 09D0     		beq	.L99
 2962 0032 11E0     		b	.L97
 2963              	.L101:
 400:.\ssd1306.c   ****         case 0:
 401:.\ssd1306.c   ****         case 2:
 402:.\ssd1306.c   ****             _width = WIDTH;
 2964              		.loc 1 402 0
 2965 0034 0B4B     		ldr	r3, .L102+4
 2966 0036 1A88     		ldrh	r2, [r3]
 2967 0038 0B4B     		ldr	r3, .L102+8
 2968 003a 1A80     		strh	r2, [r3]
 403:.\ssd1306.c   ****             _height = HEIGHT;
 2969              		.loc 1 403 0
 2970 003c 0B4B     		ldr	r3, .L102+12
 2971 003e 1A88     		ldrh	r2, [r3]
 2972 0040 0B4B     		ldr	r3, .L102+16
 2973 0042 1A80     		strh	r2, [r3]
 404:.\ssd1306.c   ****             break;
 2974              		.loc 1 404 0
 2975 0044 08E0     		b	.L97
 2976              	.L99:
 405:.\ssd1306.c   ****         case 1:
 406:.\ssd1306.c   ****         case 3:
 407:.\ssd1306.c   ****             _width = HEIGHT;
 2977              		.loc 1 407 0
 2978 0046 094B     		ldr	r3, .L102+12
 2979 0048 1A88     		ldrh	r2, [r3]
 2980 004a 074B     		ldr	r3, .L102+8
 2981 004c 1A80     		strh	r2, [r3]
 408:.\ssd1306.c   ****             _height = WIDTH;
 2982              		.loc 1 408 0
 2983 004e 054B     		ldr	r3, .L102+4
 2984 0050 1A88     		ldrh	r2, [r3]
 2985 0052 074B     		ldr	r3, .L102+16
 2986 0054 1A80     		strh	r2, [r3]
 409:.\ssd1306.c   ****         break;
 2987              		.loc 1 409 0
 2988 0056 C046     		mov	r8, r8
 2989              	.L97:
 410:.\ssd1306.c   ****     }
 411:.\ssd1306.c   **** }
 2990              		.loc 1 411 0
 2991 0058 BD46     		mov	sp, r7
 2992 005a 02B0     		add	sp, sp, #8
 2993              		@ sp needed
 2994 005c 80BD     		pop	{r7, pc}
 2995              	.L103:
 2996 005e C046     		.align	2
 2997              	.L102:
 2998 0060 00000000 		.word	rotation
 2999 0064 00000000 		.word	WIDTH
 3000 0068 02000000 		.word	_width
ARM GAS  C:\DOCUME~1\Owner\LOCALS~1\Temp\cc1p5VcC.s 			page 61


 3001 006c 00000000 		.word	HEIGHT
 3002 0070 04000000 		.word	_height
 3003              		.cfi_endproc
 3004              	.LFE52:
 3005              		.size	gfx_setRotation, .-gfx_setRotation
 3006              		.section	.text.gfx_rotation_adjust,"ax",%progbits
 3007              		.align	2
 3008              		.code	16
 3009              		.thumb_func
 3010              		.type	gfx_rotation_adjust, %function
 3011              	gfx_rotation_adjust:
 3012              	.LFB53:
 412:.\ssd1306.c   **** 
 413:.\ssd1306.c   **** static void gfx_rotation_adjust( int16_t* px, int16_t* py ){
 3013              		.loc 1 413 0
 3014              		.cfi_startproc
 3015 0000 80B5     		push	{r7, lr}
 3016              		.cfi_def_cfa_offset 8
 3017              		.cfi_offset 7, -8
 3018              		.cfi_offset 14, -4
 3019 0002 84B0     		sub	sp, sp, #16
 3020              		.cfi_def_cfa_offset 24
 3021 0004 00AF     		add	r7, sp, #0
 3022              		.cfi_def_cfa_register 7
 3023 0006 7860     		str	r0, [r7, #4]
 3024 0008 3960     		str	r1, [r7]
 414:.\ssd1306.c   **** 
 415:.\ssd1306.c   ****     int16_t y0 = *py;
 3025              		.loc 1 415 0
 3026 000a 3B1C     		mov	r3, r7
 3027 000c 0E33     		add	r3, r3, #14
 3028 000e 3A68     		ldr	r2, [r7]
 3029 0010 1288     		ldrh	r2, [r2]
 3030 0012 1A80     		strh	r2, [r3]
 416:.\ssd1306.c   ****     
 417:.\ssd1306.c   ****     switch( rotation ){
 3031              		.loc 1 417 0
 3032 0014 254B     		ldr	r3, .L109
 3033 0016 1B78     		ldrb	r3, [r3]
 3034 0018 022B     		cmp	r3, #2
 3035 001a 15D0     		beq	.L106
 3036 001c 032B     		cmp	r3, #3
 3037 001e 2ED0     		beq	.L107
 3038 0020 012B     		cmp	r3, #1
 3039 0022 3FD1     		bne	.L104
 418:.\ssd1306.c   ****         case 1:
 419:.\ssd1306.c   ****             *py = *px;
 3040              		.loc 1 419 0
 3041 0024 7B68     		ldr	r3, [r7, #4]
 3042 0026 1A88     		ldrh	r2, [r3]
 3043 0028 3B68     		ldr	r3, [r7]
 3044 002a 1A80     		strh	r2, [r3]
 420:.\ssd1306.c   ****             *px = WIDTH - y0 - 1;
 3045              		.loc 1 420 0
 3046 002c 204B     		ldr	r3, .L109+4
 3047 002e 1B88     		ldrh	r3, [r3]
 3048 0030 9AB2     		uxth	r2, r3
ARM GAS  C:\DOCUME~1\Owner\LOCALS~1\Temp\cc1p5VcC.s 			page 62


 3049 0032 3B1C     		mov	r3, r7
 3050 0034 0E33     		add	r3, r3, #14
 3051 0036 1B88     		ldrh	r3, [r3]
 3052 0038 D31A     		sub	r3, r2, r3
 3053 003a 9BB2     		uxth	r3, r3
 3054 003c 013B     		sub	r3, r3, #1
 3055 003e 9BB2     		uxth	r3, r3
 3056 0040 9AB2     		uxth	r2, r3
 3057 0042 7B68     		ldr	r3, [r7, #4]
 3058 0044 1A80     		strh	r2, [r3]
 421:.\ssd1306.c   ****             break;
 3059              		.loc 1 421 0
 3060 0046 2DE0     		b	.L104
 3061              	.L106:
 422:.\ssd1306.c   ****         case 2:
 423:.\ssd1306.c   ****             *px = WIDTH - *px - 1;
 3062              		.loc 1 423 0
 3063 0048 194B     		ldr	r3, .L109+4
 3064 004a 1B88     		ldrh	r3, [r3]
 3065 004c 9AB2     		uxth	r2, r3
 3066 004e 7B68     		ldr	r3, [r7, #4]
 3067 0050 1B88     		ldrh	r3, [r3]
 3068 0052 9BB2     		uxth	r3, r3
 3069 0054 D31A     		sub	r3, r2, r3
 3070 0056 9BB2     		uxth	r3, r3
 3071 0058 013B     		sub	r3, r3, #1
 3072 005a 9BB2     		uxth	r3, r3
 3073 005c 9AB2     		uxth	r2, r3
 3074 005e 7B68     		ldr	r3, [r7, #4]
 3075 0060 1A80     		strh	r2, [r3]
 424:.\ssd1306.c   ****             *py = HEIGHT - *py - 1;
 3076              		.loc 1 424 0
 3077 0062 144B     		ldr	r3, .L109+8
 3078 0064 1B88     		ldrh	r3, [r3]
 3079 0066 9AB2     		uxth	r2, r3
 3080 0068 3B68     		ldr	r3, [r7]
 3081 006a 1B88     		ldrh	r3, [r3]
 3082 006c 9BB2     		uxth	r3, r3
 3083 006e D31A     		sub	r3, r2, r3
 3084 0070 9BB2     		uxth	r3, r3
 3085 0072 013B     		sub	r3, r3, #1
 3086 0074 9BB2     		uxth	r3, r3
 3087 0076 9AB2     		uxth	r2, r3
 3088 0078 3B68     		ldr	r3, [r7]
 3089 007a 1A80     		strh	r2, [r3]
 425:.\ssd1306.c   ****             break;
 3090              		.loc 1 425 0
 3091 007c 12E0     		b	.L104
 3092              	.L107:
 426:.\ssd1306.c   ****         case 3:
 427:.\ssd1306.c   ****             *py = HEIGHT - *px - 1;
 3093              		.loc 1 427 0
 3094 007e 0D4B     		ldr	r3, .L109+8
 3095 0080 1B88     		ldrh	r3, [r3]
 3096 0082 9AB2     		uxth	r2, r3
 3097 0084 7B68     		ldr	r3, [r7, #4]
 3098 0086 1B88     		ldrh	r3, [r3]
ARM GAS  C:\DOCUME~1\Owner\LOCALS~1\Temp\cc1p5VcC.s 			page 63


 3099 0088 9BB2     		uxth	r3, r3
 3100 008a D31A     		sub	r3, r2, r3
 3101 008c 9BB2     		uxth	r3, r3
 3102 008e 013B     		sub	r3, r3, #1
 3103 0090 9BB2     		uxth	r3, r3
 3104 0092 9AB2     		uxth	r2, r3
 3105 0094 3B68     		ldr	r3, [r7]
 3106 0096 1A80     		strh	r2, [r3]
 428:.\ssd1306.c   ****             *px = y0;
 3107              		.loc 1 428 0
 3108 0098 7B68     		ldr	r3, [r7, #4]
 3109 009a 3A1C     		mov	r2, r7
 3110 009c 0E32     		add	r2, r2, #14
 3111 009e 1288     		ldrh	r2, [r2]
 3112 00a0 1A80     		strh	r2, [r3]
 429:.\ssd1306.c   ****             break;
 3113              		.loc 1 429 0
 3114 00a2 C046     		mov	r8, r8
 3115              	.L104:
 430:.\ssd1306.c   ****     }
 431:.\ssd1306.c   **** }
 3116              		.loc 1 431 0
 3117 00a4 BD46     		mov	sp, r7
 3118 00a6 04B0     		add	sp, sp, #16
 3119              		@ sp needed
 3120 00a8 80BD     		pop	{r7, pc}
 3121              	.L110:
 3122 00aa C046     		.align	2
 3123              	.L109:
 3124 00ac 00000000 		.word	rotation
 3125 00b0 00000000 		.word	WIDTH
 3126 00b4 00000000 		.word	HEIGHT
 3127              		.cfi_endproc
 3128              	.LFE53:
 3129              		.size	gfx_rotation_adjust, .-gfx_rotation_adjust
 3130              		.section	.text.gfx_drawPixel,"ax",%progbits
 3131              		.align	2
 3132              		.global	gfx_drawPixel
 3133              		.code	16
 3134              		.thumb_func
 3135              		.type	gfx_drawPixel, %function
 3136              	gfx_drawPixel:
 3137              	.LFB54:
 432:.\ssd1306.c   **** 
 433:.\ssd1306.c   **** void gfx_drawPixel( int16_t x, int16_t y, uint16_t color ){
 3138              		.loc 1 433 0
 3139              		.cfi_startproc
 3140 0000 80B5     		push	{r7, lr}
 3141              		.cfi_def_cfa_offset 8
 3142              		.cfi_offset 7, -8
 3143              		.cfi_offset 14, -4
 3144 0002 82B0     		sub	sp, sp, #8
 3145              		.cfi_def_cfa_offset 16
 3146 0004 00AF     		add	r7, sp, #0
 3147              		.cfi_def_cfa_register 7
 3148 0006 BB1D     		add	r3, r7, #6
 3149 0008 1880     		strh	r0, [r3]
ARM GAS  C:\DOCUME~1\Owner\LOCALS~1\Temp\cc1p5VcC.s 			page 64


 3150 000a 3B1D     		add	r3, r7, #4
 3151 000c 1980     		strh	r1, [r3]
 3152 000e BB1C     		add	r3, r7, #2
 3153 0010 1A80     		strh	r2, [r3]
 434:.\ssd1306.c   ****     
 435:.\ssd1306.c   ****     if( (x < 0) || (x >= _width) || (y < 0) || (y >= _height) )
 3154              		.loc 1 435 0
 3155 0012 BB1D     		add	r3, r7, #6
 3156 0014 1B88     		ldrh	r3, [r3]
 3157 0016 1BB2     		sxth	r3, r3
 3158 0018 002B     		cmp	r3, #0
 3159 001a 14DB     		blt	.L112
 3160              		.loc 1 435 0 is_stmt 0 discriminator 1
 3161 001c BB1D     		add	r3, r7, #6
 3162 001e 1A88     		ldrh	r2, [r3]
 3163 0020 144B     		ldr	r3, .L115
 3164 0022 1B88     		ldrh	r3, [r3]
 3165 0024 12B2     		sxth	r2, r2
 3166 0026 1BB2     		sxth	r3, r3
 3167 0028 9A42     		cmp	r2, r3
 3168 002a 0CDA     		bge	.L112
 3169 002c 3B1D     		add	r3, r7, #4
 3170 002e 1B88     		ldrh	r3, [r3]
 3171 0030 1BB2     		sxth	r3, r3
 3172 0032 002B     		cmp	r3, #0
 3173 0034 07DB     		blt	.L112
 3174 0036 3B1D     		add	r3, r7, #4
 3175 0038 1A88     		ldrh	r2, [r3]
 3176 003a 0F4B     		ldr	r3, .L115+4
 3177 003c 1B88     		ldrh	r3, [r3]
 3178 003e 12B2     		sxth	r2, r2
 3179 0040 1BB2     		sxth	r3, r3
 3180 0042 9A42     		cmp	r2, r3
 3181 0044 00DB     		blt	.L113
 3182              	.L112:
 436:.\ssd1306.c   ****         return;
 3183              		.loc 1 436 0 is_stmt 1
 3184 0046 12E0     		b	.L111
 3185              	.L113:
 437:.\ssd1306.c   ****     
 438:.\ssd1306.c   ****     gfx_rotation_adjust( &x, &y );
 3186              		.loc 1 438 0
 3187 0048 BA1D     		add	r2, r7, #6
 3188 004a 3B1D     		add	r3, r7, #4
 3189 004c 101C     		mov	r0, r2
 3190 004e 191C     		mov	r1, r3
 3191 0050 FFF7FEFF 		bl	gfx_rotation_adjust
 439:.\ssd1306.c   **** 
 440:.\ssd1306.c   ****     display_setPixel(x,y,color);
 3192              		.loc 1 440 0
 3193 0054 BB1D     		add	r3, r7, #6
 3194 0056 1A88     		ldrh	r2, [r3]
 3195 0058 3B1D     		add	r3, r7, #4
 3196 005a 1B88     		ldrh	r3, [r3]
 3197 005c 11B2     		sxth	r1, r2
 3198 005e 1AB2     		sxth	r2, r3
 3199 0060 BB1C     		add	r3, r7, #2
ARM GAS  C:\DOCUME~1\Owner\LOCALS~1\Temp\cc1p5VcC.s 			page 65


 3200 0062 1B88     		ldrh	r3, [r3]
 3201 0064 081C     		mov	r0, r1
 3202 0066 111C     		mov	r1, r2
 3203 0068 1A1C     		mov	r2, r3
 3204 006a FFF7FEFF 		bl	display_setPixel
 3205              	.L111:
 441:.\ssd1306.c   **** }
 3206              		.loc 1 441 0
 3207 006e BD46     		mov	sp, r7
 3208 0070 02B0     		add	sp, sp, #8
 3209              		@ sp needed
 3210 0072 80BD     		pop	{r7, pc}
 3211              	.L116:
 3212              		.align	2
 3213              	.L115:
 3214 0074 02000000 		.word	_width
 3215 0078 04000000 		.word	_height
 3216              		.cfi_endproc
 3217              	.LFE54:
 3218              		.size	gfx_drawPixel, .-gfx_drawPixel
 3219              		.section	.text.gfx_hvLine,"ax",%progbits
 3220              		.align	2
 3221              		.code	16
 3222              		.thumb_func
 3223              		.type	gfx_hvLine, %function
 3224              	gfx_hvLine:
 3225              	.LFB55:
 442:.\ssd1306.c   **** 
 443:.\ssd1306.c   **** // helper function for gfx_drawLine, handles special cases of horizontal and vertical lines
 444:.\ssd1306.c   **** static void gfx_hvLine( int16_t x1, int16_t y1, int16_t x2, int16_t y2, uint16_t color ){
 3226              		.loc 1 444 0
 3227              		.cfi_startproc
 3228 0000 90B5     		push	{r4, r7, lr}
 3229              		.cfi_def_cfa_offset 12
 3230              		.cfi_offset 4, -12
 3231              		.cfi_offset 7, -8
 3232              		.cfi_offset 14, -4
 3233 0002 87B0     		sub	sp, sp, #28
 3234              		.cfi_def_cfa_offset 40
 3235 0004 02AF     		add	r7, sp, #8
 3236              		.cfi_def_cfa 7, 32
 3237 0006 041C     		mov	r4, r0
 3238 0008 081C     		mov	r0, r1
 3239 000a 111C     		mov	r1, r2
 3240 000c 1A1C     		mov	r2, r3
 3241 000e BB1D     		add	r3, r7, #6
 3242 0010 1C80     		strh	r4, [r3]
 3243 0012 3B1D     		add	r3, r7, #4
 3244 0014 1880     		strh	r0, [r3]
 3245 0016 BB1C     		add	r3, r7, #2
 3246 0018 1980     		strh	r1, [r3]
 3247 001a 3B1C     		mov	r3, r7
 3248 001c 1A80     		strh	r2, [r3]
 445:.\ssd1306.c   ****     
 446:.\ssd1306.c   ****     if( x1 != x2 && y1 != y2 ){
 3249              		.loc 1 446 0
 3250 001e BB1D     		add	r3, r7, #6
ARM GAS  C:\DOCUME~1\Owner\LOCALS~1\Temp\cc1p5VcC.s 			page 66


 3251 0020 1A88     		ldrh	r2, [r3]
 3252 0022 BB1C     		add	r3, r7, #2
 3253 0024 1B88     		ldrh	r3, [r3]
 3254 0026 12B2     		sxth	r2, r2
 3255 0028 1BB2     		sxth	r3, r3
 3256 002a 9A42     		cmp	r2, r3
 3257 002c 08D0     		beq	.L118
 3258              		.loc 1 446 0 is_stmt 0 discriminator 1
 3259 002e 3B1D     		add	r3, r7, #4
 3260 0030 1A88     		ldrh	r2, [r3]
 3261 0032 3B1C     		mov	r3, r7
 3262 0034 1B88     		ldrh	r3, [r3]
 3263 0036 12B2     		sxth	r2, r2
 3264 0038 1BB2     		sxth	r3, r3
 3265 003a 9A42     		cmp	r2, r3
 3266 003c 00D0     		beq	.L118
 447:.\ssd1306.c   ****         // neither vertical nor horizontal
 448:.\ssd1306.c   ****         return;
 3267              		.loc 1 448 0 is_stmt 1
 3268 003e CEE0     		b	.L117
 3269              	.L118:
 449:.\ssd1306.c   ****     }    
 450:.\ssd1306.c   ****     
 451:.\ssd1306.c   ****     // bounds check
 452:.\ssd1306.c   ****     if( rotation == 1 || rotation == 3 ){
 3270              		.loc 1 452 0
 3271 0040 684B     		ldr	r3, .L133
 3272 0042 1B78     		ldrb	r3, [r3]
 3273 0044 012B     		cmp	r3, #1
 3274 0046 03D0     		beq	.L120
 3275              		.loc 1 452 0 is_stmt 0 discriminator 1
 3276 0048 664B     		ldr	r3, .L133
 3277 004a 1B78     		ldrb	r3, [r3]
 3278 004c 032B     		cmp	r3, #3
 3279 004e 36D1     		bne	.L121
 3280              	.L120:
 453:.\ssd1306.c   ****         if( x1 < 0 || x1 >= HEIGHT || x2 < 0 || x2 >= HEIGHT )
 3281              		.loc 1 453 0 is_stmt 1
 3282 0050 BB1D     		add	r3, r7, #6
 3283 0052 1B88     		ldrh	r3, [r3]
 3284 0054 1BB2     		sxth	r3, r3
 3285 0056 002B     		cmp	r3, #0
 3286 0058 14DB     		blt	.L122
 3287              		.loc 1 453 0 is_stmt 0 discriminator 1
 3288 005a BB1D     		add	r3, r7, #6
 3289 005c 1A88     		ldrh	r2, [r3]
 3290 005e 624B     		ldr	r3, .L133+4
 3291 0060 1B88     		ldrh	r3, [r3]
 3292 0062 12B2     		sxth	r2, r2
 3293 0064 1BB2     		sxth	r3, r3
 3294 0066 9A42     		cmp	r2, r3
 3295 0068 0CDA     		bge	.L122
 3296 006a BB1C     		add	r3, r7, #2
 3297 006c 1B88     		ldrh	r3, [r3]
 3298 006e 1BB2     		sxth	r3, r3
 3299 0070 002B     		cmp	r3, #0
 3300 0072 07DB     		blt	.L122
ARM GAS  C:\DOCUME~1\Owner\LOCALS~1\Temp\cc1p5VcC.s 			page 67


 3301 0074 BB1C     		add	r3, r7, #2
 3302 0076 1A88     		ldrh	r2, [r3]
 3303 0078 5B4B     		ldr	r3, .L133+4
 3304 007a 1B88     		ldrh	r3, [r3]
 3305 007c 12B2     		sxth	r2, r2
 3306 007e 1BB2     		sxth	r3, r3
 3307 0080 9A42     		cmp	r2, r3
 3308 0082 00DB     		blt	.L123
 3309              	.L122:
 454:.\ssd1306.c   ****             return;
 3310              		.loc 1 454 0 is_stmt 1
 3311 0084 ABE0     		b	.L117
 3312              	.L123:
 455:.\ssd1306.c   ****         if( y1 < 0 || y1 >= WIDTH || y2 < 0 || y2 >= WIDTH )
 3313              		.loc 1 455 0
 3314 0086 3B1D     		add	r3, r7, #4
 3315 0088 1B88     		ldrh	r3, [r3]
 3316 008a 1BB2     		sxth	r3, r3
 3317 008c 002B     		cmp	r3, #0
 3318 008e 14DB     		blt	.L124
 3319              		.loc 1 455 0 is_stmt 0 discriminator 1
 3320 0090 3B1D     		add	r3, r7, #4
 3321 0092 1A88     		ldrh	r2, [r3]
 3322 0094 554B     		ldr	r3, .L133+8
 3323 0096 1B88     		ldrh	r3, [r3]
 3324 0098 12B2     		sxth	r2, r2
 3325 009a 1BB2     		sxth	r3, r3
 3326 009c 9A42     		cmp	r2, r3
 3327 009e 0CDA     		bge	.L124
 3328 00a0 3B1C     		mov	r3, r7
 3329 00a2 1B88     		ldrh	r3, [r3]
 3330 00a4 1BB2     		sxth	r3, r3
 3331 00a6 002B     		cmp	r3, #0
 3332 00a8 07DB     		blt	.L124
 3333 00aa 3B1C     		mov	r3, r7
 3334 00ac 1A88     		ldrh	r2, [r3]
 3335 00ae 4F4B     		ldr	r3, .L133+8
 3336 00b0 1B88     		ldrh	r3, [r3]
 3337 00b2 12B2     		sxth	r2, r2
 3338 00b4 1BB2     		sxth	r3, r3
 3339 00b6 9A42     		cmp	r2, r3
 3340 00b8 00DB     		blt	.L125
 3341              	.L124:
 456:.\ssd1306.c   ****             return;
 3342              		.loc 1 456 0 is_stmt 1
 3343 00ba 90E0     		b	.L117
 3344              	.L125:
 455:.\ssd1306.c   ****         if( y1 < 0 || y1 >= WIDTH || y2 < 0 || y2 >= WIDTH )
 3345              		.loc 1 455 0 discriminator 1
 3346 00bc 35E0     		b	.L126
 3347              	.L121:
 457:.\ssd1306.c   ****     }else{
 458:.\ssd1306.c   ****         if( y1 < 0 || y1 >= HEIGHT || y2 < 0 || y2 >= HEIGHT )
 3348              		.loc 1 458 0
 3349 00be 3B1D     		add	r3, r7, #4
 3350 00c0 1B88     		ldrh	r3, [r3]
 3351 00c2 1BB2     		sxth	r3, r3
ARM GAS  C:\DOCUME~1\Owner\LOCALS~1\Temp\cc1p5VcC.s 			page 68


 3352 00c4 002B     		cmp	r3, #0
 3353 00c6 14DB     		blt	.L127
 3354              		.loc 1 458 0 is_stmt 0 discriminator 1
 3355 00c8 3B1D     		add	r3, r7, #4
 3356 00ca 1A88     		ldrh	r2, [r3]
 3357 00cc 464B     		ldr	r3, .L133+4
 3358 00ce 1B88     		ldrh	r3, [r3]
 3359 00d0 12B2     		sxth	r2, r2
 3360 00d2 1BB2     		sxth	r3, r3
 3361 00d4 9A42     		cmp	r2, r3
 3362 00d6 0CDA     		bge	.L127
 3363 00d8 3B1C     		mov	r3, r7
 3364 00da 1B88     		ldrh	r3, [r3]
 3365 00dc 1BB2     		sxth	r3, r3
 3366 00de 002B     		cmp	r3, #0
 3367 00e0 07DB     		blt	.L127
 3368 00e2 3B1C     		mov	r3, r7
 3369 00e4 1A88     		ldrh	r2, [r3]
 3370 00e6 404B     		ldr	r3, .L133+4
 3371 00e8 1B88     		ldrh	r3, [r3]
 3372 00ea 12B2     		sxth	r2, r2
 3373 00ec 1BB2     		sxth	r3, r3
 3374 00ee 9A42     		cmp	r2, r3
 3375 00f0 00DB     		blt	.L128
 3376              	.L127:
 459:.\ssd1306.c   ****             return;
 3377              		.loc 1 459 0 is_stmt 1
 3378 00f2 74E0     		b	.L117
 3379              	.L128:
 460:.\ssd1306.c   ****         if( x1 < 0 || x1 >= WIDTH || x2 < 0 || x2 >= WIDTH )
 3380              		.loc 1 460 0
 3381 00f4 BB1D     		add	r3, r7, #6
 3382 00f6 1B88     		ldrh	r3, [r3]
 3383 00f8 1BB2     		sxth	r3, r3
 3384 00fa 002B     		cmp	r3, #0
 3385 00fc 14DB     		blt	.L129
 3386              		.loc 1 460 0 is_stmt 0 discriminator 1
 3387 00fe BB1D     		add	r3, r7, #6
 3388 0100 1A88     		ldrh	r2, [r3]
 3389 0102 3A4B     		ldr	r3, .L133+8
 3390 0104 1B88     		ldrh	r3, [r3]
 3391 0106 12B2     		sxth	r2, r2
 3392 0108 1BB2     		sxth	r3, r3
 3393 010a 9A42     		cmp	r2, r3
 3394 010c 0CDA     		bge	.L129
 3395 010e BB1C     		add	r3, r7, #2
 3396 0110 1B88     		ldrh	r3, [r3]
 3397 0112 1BB2     		sxth	r3, r3
 3398 0114 002B     		cmp	r3, #0
 3399 0116 07DB     		blt	.L129
 3400 0118 BB1C     		add	r3, r7, #2
 3401 011a 1A88     		ldrh	r2, [r3]
 3402 011c 334B     		ldr	r3, .L133+8
 3403 011e 1B88     		ldrh	r3, [r3]
 3404 0120 12B2     		sxth	r2, r2
 3405 0122 1BB2     		sxth	r3, r3
 3406 0124 9A42     		cmp	r2, r3
ARM GAS  C:\DOCUME~1\Owner\LOCALS~1\Temp\cc1p5VcC.s 			page 69


 3407 0126 00DB     		blt	.L126
 3408              	.L129:
 461:.\ssd1306.c   ****             return;
 3409              		.loc 1 461 0 is_stmt 1
 3410 0128 59E0     		b	.L117
 3411              	.L126:
 462:.\ssd1306.c   ****     }
 463:.\ssd1306.c   ****     
 464:.\ssd1306.c   ****     gfx_rotation_adjust( &x1, &y1 );
 3412              		.loc 1 464 0
 3413 012a BA1D     		add	r2, r7, #6
 3414 012c 3B1D     		add	r3, r7, #4
 3415 012e 101C     		mov	r0, r2
 3416 0130 191C     		mov	r1, r3
 3417 0132 FFF7FEFF 		bl	gfx_rotation_adjust
 465:.\ssd1306.c   ****     gfx_rotation_adjust( &x2, &y2 );
 3418              		.loc 1 465 0
 3419 0136 BA1C     		add	r2, r7, #2
 3420 0138 3B1C     		mov	r3, r7
 3421 013a 101C     		mov	r0, r2
 3422 013c 191C     		mov	r1, r3
 3423 013e FFF7FEFF 		bl	gfx_rotation_adjust
 466:.\ssd1306.c   ****     
 467:.\ssd1306.c   ****     // ensure coords are from left to right and top to bottom
 468:.\ssd1306.c   ****     if( (x1 == x2 && y2 < y1) || (y1 == y2 && x2 < x1) ){
 3424              		.loc 1 468 0
 3425 0142 BB1D     		add	r3, r7, #6
 3426 0144 1A88     		ldrh	r2, [r3]
 3427 0146 BB1C     		add	r3, r7, #2
 3428 0148 1B88     		ldrh	r3, [r3]
 3429 014a 12B2     		sxth	r2, r2
 3430 014c 1BB2     		sxth	r3, r3
 3431 014e 9A42     		cmp	r2, r3
 3432 0150 07D1     		bne	.L130
 3433              		.loc 1 468 0 is_stmt 0 discriminator 1
 3434 0152 3B1C     		mov	r3, r7
 3435 0154 1A88     		ldrh	r2, [r3]
 3436 0156 3B1D     		add	r3, r7, #4
 3437 0158 1B88     		ldrh	r3, [r3]
 3438 015a 12B2     		sxth	r2, r2
 3439 015c 1BB2     		sxth	r3, r3
 3440 015e 9A42     		cmp	r2, r3
 3441 0160 0FDB     		blt	.L131
 3442              	.L130:
 3443              		.loc 1 468 0 discriminator 2
 3444 0162 3B1D     		add	r3, r7, #4
 3445 0164 1A88     		ldrh	r2, [r3]
 3446 0166 3B1C     		mov	r3, r7
 3447 0168 1B88     		ldrh	r3, [r3]
 3448 016a 12B2     		sxth	r2, r2
 3449 016c 1BB2     		sxth	r3, r3
 3450 016e 9A42     		cmp	r2, r3
 3451 0170 23D1     		bne	.L132
 3452              		.loc 1 468 0 discriminator 1
 3453 0172 BB1C     		add	r3, r7, #2
 3454 0174 1A88     		ldrh	r2, [r3]
 3455 0176 BB1D     		add	r3, r7, #6
ARM GAS  C:\DOCUME~1\Owner\LOCALS~1\Temp\cc1p5VcC.s 			page 70


 3456 0178 1B88     		ldrh	r3, [r3]
 3457 017a 12B2     		sxth	r2, r2
 3458 017c 1BB2     		sxth	r3, r3
 3459 017e 9A42     		cmp	r2, r3
 3460 0180 1BDA     		bge	.L132
 3461              	.L131:
 3462              	.LBB6:
 469:.\ssd1306.c   ****         // swap as needed
 470:.\ssd1306.c   ****         int16_t t = x1; x1 = x2; x2 = t;
 3463              		.loc 1 470 0 is_stmt 1
 3464 0182 3B1C     		mov	r3, r7
 3465 0184 0E33     		add	r3, r3, #14
 3466 0186 BA1D     		add	r2, r7, #6
 3467 0188 1288     		ldrh	r2, [r2]
 3468 018a 1A80     		strh	r2, [r3]
 3469 018c BB1C     		add	r3, r7, #2
 3470 018e 1A88     		ldrh	r2, [r3]
 3471 0190 BB1D     		add	r3, r7, #6
 3472 0192 1A80     		strh	r2, [r3]
 3473 0194 BB1C     		add	r3, r7, #2
 3474 0196 3A1C     		mov	r2, r7
 3475 0198 0E32     		add	r2, r2, #14
 3476 019a 1288     		ldrh	r2, [r2]
 3477 019c 1A80     		strh	r2, [r3]
 471:.\ssd1306.c   ****         t = y1; y1 = y2; y2 = t;
 3478              		.loc 1 471 0
 3479 019e 3B1C     		mov	r3, r7
 3480 01a0 0E33     		add	r3, r3, #14
 3481 01a2 3A1D     		add	r2, r7, #4
 3482 01a4 1288     		ldrh	r2, [r2]
 3483 01a6 1A80     		strh	r2, [r3]
 3484 01a8 3B1C     		mov	r3, r7
 3485 01aa 1A88     		ldrh	r2, [r3]
 3486 01ac 3B1D     		add	r3, r7, #4
 3487 01ae 1A80     		strh	r2, [r3]
 3488 01b0 3B1C     		mov	r3, r7
 3489 01b2 3A1C     		mov	r2, r7
 3490 01b4 0E32     		add	r2, r2, #14
 3491 01b6 1288     		ldrh	r2, [r2]
 3492 01b8 1A80     		strh	r2, [r3]
 3493              	.L132:
 3494              	.LBE6:
 472:.\ssd1306.c   ****     }
 473:.\ssd1306.c   ****     
 474:.\ssd1306.c   ****     display_line( x1, y1, x2, y2, color );
 3495              		.loc 1 474 0
 3496 01ba BB1D     		add	r3, r7, #6
 3497 01bc 1888     		ldrh	r0, [r3]
 3498 01be 3B1D     		add	r3, r7, #4
 3499 01c0 1988     		ldrh	r1, [r3]
 3500 01c2 BB1C     		add	r3, r7, #2
 3501 01c4 1A88     		ldrh	r2, [r3]
 3502 01c6 3B1C     		mov	r3, r7
 3503 01c8 1B88     		ldrh	r3, [r3]
 3504 01ca 00B2     		sxth	r0, r0
 3505 01cc 09B2     		sxth	r1, r1
 3506 01ce 12B2     		sxth	r2, r2
ARM GAS  C:\DOCUME~1\Owner\LOCALS~1\Temp\cc1p5VcC.s 			page 71


 3507 01d0 1BB2     		sxth	r3, r3
 3508 01d2 3C1C     		mov	r4, r7
 3509 01d4 2034     		add	r4, r4, #32
 3510 01d6 2488     		ldrh	r4, [r4]
 3511 01d8 0094     		str	r4, [sp]
 3512 01da FFF7FEFF 		bl	display_line
 3513              	.L117:
 475:.\ssd1306.c   **** }
 3514              		.loc 1 475 0
 3515 01de BD46     		mov	sp, r7
 3516 01e0 05B0     		add	sp, sp, #20
 3517              		@ sp needed
 3518 01e2 90BD     		pop	{r4, r7, pc}
 3519              	.L134:
 3520              		.align	2
 3521              	.L133:
 3522 01e4 00000000 		.word	rotation
 3523 01e8 00000000 		.word	HEIGHT
 3524 01ec 00000000 		.word	WIDTH
 3525              		.cfi_endproc
 3526              	.LFE55:
 3527              		.size	gfx_hvLine, .-gfx_hvLine
 3528              		.section	.text.gfx_drawLine,"ax",%progbits
 3529              		.align	2
 3530              		.global	gfx_drawLine
 3531              		.code	16
 3532              		.thumb_func
 3533              		.type	gfx_drawLine, %function
 3534              	gfx_drawLine:
 3535              	.LFB56:
 476:.\ssd1306.c   **** 
 477:.\ssd1306.c   **** // always use this function for line drawing
 478:.\ssd1306.c   **** void gfx_drawLine( int16_t x0, int16_t y0, int16_t x1, int16_t y1, uint16_t color ){
 3536              		.loc 1 478 0
 3537              		.cfi_startproc
 3538 0000 90B5     		push	{r4, r7, lr}
 3539              		.cfi_def_cfa_offset 12
 3540              		.cfi_offset 4, -12
 3541              		.cfi_offset 7, -8
 3542              		.cfi_offset 14, -4
 3543 0002 89B0     		sub	sp, sp, #36
 3544              		.cfi_def_cfa_offset 48
 3545 0004 02AF     		add	r7, sp, #8
 3546              		.cfi_def_cfa 7, 40
 3547 0006 041C     		mov	r4, r0
 3548 0008 081C     		mov	r0, r1
 3549 000a 111C     		mov	r1, r2
 3550 000c 1A1C     		mov	r2, r3
 3551 000e BB1D     		add	r3, r7, #6
 3552 0010 1C80     		strh	r4, [r3]
 3553 0012 3B1D     		add	r3, r7, #4
 3554 0014 1880     		strh	r0, [r3]
 3555 0016 BB1C     		add	r3, r7, #2
 3556 0018 1980     		strh	r1, [r3]
 3557 001a 3B1C     		mov	r3, r7
 3558 001c 1A80     		strh	r2, [r3]
 479:.\ssd1306.c   ****  
ARM GAS  C:\DOCUME~1\Owner\LOCALS~1\Temp\cc1p5VcC.s 			page 72


 480:.\ssd1306.c   ****     if( x0 == x1 || y0 == y1 ){
 3559              		.loc 1 480 0
 3560 001e BA1D     		add	r2, r7, #6
 3561 0020 BB1C     		add	r3, r7, #2
 3562 0022 0020     		mov	r0, #0
 3563 0024 125E     		ldrsh	r2, [r2, r0]
 3564 0026 0021     		mov	r1, #0
 3565 0028 5B5E     		ldrsh	r3, [r3, r1]
 3566 002a 9A42     		cmp	r2, r3
 3567 002c 07D0     		beq	.L136
 3568              		.loc 1 480 0 is_stmt 0 discriminator 1
 3569 002e 3A1D     		add	r2, r7, #4
 3570 0030 3B1C     		mov	r3, r7
 3571 0032 0024     		mov	r4, #0
 3572 0034 125F     		ldrsh	r2, [r2, r4]
 3573 0036 0020     		mov	r0, #0
 3574 0038 1B5E     		ldrsh	r3, [r3, r0]
 3575 003a 9A42     		cmp	r2, r3
 3576 003c 12D1     		bne	.L137
 3577              	.L136:
 481:.\ssd1306.c   ****         // vertical and horizontal lines can be drawn faster
 482:.\ssd1306.c   ****         gfx_hvLine( x0, y0, x1, y1, color );
 3578              		.loc 1 482 0 is_stmt 1
 3579 003e BB1D     		add	r3, r7, #6
 3580 0040 0021     		mov	r1, #0
 3581 0042 585E     		ldrsh	r0, [r3, r1]
 3582 0044 3B1D     		add	r3, r7, #4
 3583 0046 0022     		mov	r2, #0
 3584 0048 995E     		ldrsh	r1, [r3, r2]
 3585 004a BB1C     		add	r3, r7, #2
 3586 004c 0024     		mov	r4, #0
 3587 004e 1A5F     		ldrsh	r2, [r3, r4]
 3588 0050 3B1C     		mov	r3, r7
 3589 0052 0024     		mov	r4, #0
 3590 0054 1B5F     		ldrsh	r3, [r3, r4]
 3591 0056 3C1C     		mov	r4, r7
 3592 0058 2834     		add	r4, r4, #40
 3593 005a 2488     		ldrh	r4, [r4]
 3594 005c 0094     		str	r4, [sp]
 3595 005e FFF7FEFF 		bl	gfx_hvLine
 483:.\ssd1306.c   ****         return;
 3596              		.loc 1 483 0
 3597 0062 EAE0     		b	.L135
 3598              	.L137:
 484:.\ssd1306.c   ****     }
 485:.\ssd1306.c   ****     
 486:.\ssd1306.c   ****     int16_t t;
 487:.\ssd1306.c   ****     
 488:.\ssd1306.c   ****     int16_t steep = abs(y1 - y0) > abs(x1 - x0);
 3599              		.loc 1 488 0
 3600 0064 3B1C     		mov	r3, r7
 3601 0066 0020     		mov	r0, #0
 3602 0068 1A5E     		ldrsh	r2, [r3, r0]
 3603 006a 3B1D     		add	r3, r7, #4
 3604 006c 0021     		mov	r1, #0
 3605 006e 5B5E     		ldrsh	r3, [r3, r1]
 3606 0070 D31A     		sub	r3, r2, r3
ARM GAS  C:\DOCUME~1\Owner\LOCALS~1\Temp\cc1p5VcC.s 			page 73


 3607 0072 DA17     		asr	r2, r3, #31
 3608 0074 9918     		add	r1, r3, r2
 3609 0076 5140     		eor	r1, r2
 3610 0078 BB1C     		add	r3, r7, #2
 3611 007a 0024     		mov	r4, #0
 3612 007c 1A5F     		ldrsh	r2, [r3, r4]
 3613 007e BB1D     		add	r3, r7, #6
 3614 0080 0020     		mov	r0, #0
 3615 0082 1B5E     		ldrsh	r3, [r3, r0]
 3616 0084 D31A     		sub	r3, r2, r3
 3617 0086 DC17     		asr	r4, r3, #31
 3618 0088 1A19     		add	r2, r3, r4
 3619 008a 6240     		eor	r2, r4
 3620 008c 0123     		mov	r3, #1
 3621 008e 9142     		cmp	r1, r2
 3622 0090 00DC     		bgt	.L139
 3623 0092 0023     		mov	r3, #0
 3624              	.L139:
 3625 0094 DAB2     		uxtb	r2, r3
 3626 0096 3B1C     		mov	r3, r7
 3627 0098 1233     		add	r3, r3, #18
 3628 009a 1A80     		strh	r2, [r3]
 489:.\ssd1306.c   ****     if( steep ){
 3629              		.loc 1 489 0
 3630 009c 3B1C     		mov	r3, r7
 3631 009e 1233     		add	r3, r3, #18
 3632 00a0 0020     		mov	r0, #0
 3633 00a2 1B5E     		ldrsh	r3, [r3, r0]
 3634 00a4 002B     		cmp	r3, #0
 3635 00a6 1BD0     		beq	.L140
 490:.\ssd1306.c   ****         t = x0; x0 = y0; y0 = t;
 3636              		.loc 1 490 0
 3637 00a8 3B1C     		mov	r3, r7
 3638 00aa 1033     		add	r3, r3, #16
 3639 00ac BA1D     		add	r2, r7, #6
 3640 00ae 1288     		ldrh	r2, [r2]
 3641 00b0 1A80     		strh	r2, [r3]
 3642 00b2 BB1D     		add	r3, r7, #6
 3643 00b4 3A1D     		add	r2, r7, #4
 3644 00b6 1288     		ldrh	r2, [r2]
 3645 00b8 1A80     		strh	r2, [r3]
 3646 00ba 3B1D     		add	r3, r7, #4
 3647 00bc 3A1C     		mov	r2, r7
 3648 00be 1032     		add	r2, r2, #16
 3649 00c0 1288     		ldrh	r2, [r2]
 3650 00c2 1A80     		strh	r2, [r3]
 491:.\ssd1306.c   ****         t = x1; x1 = y1; y1 = t;
 3651              		.loc 1 491 0
 3652 00c4 3B1C     		mov	r3, r7
 3653 00c6 1033     		add	r3, r3, #16
 3654 00c8 BA1C     		add	r2, r7, #2
 3655 00ca 1288     		ldrh	r2, [r2]
 3656 00cc 1A80     		strh	r2, [r3]
 3657 00ce BB1C     		add	r3, r7, #2
 3658 00d0 3A1C     		mov	r2, r7
 3659 00d2 1288     		ldrh	r2, [r2]
 3660 00d4 1A80     		strh	r2, [r3]
ARM GAS  C:\DOCUME~1\Owner\LOCALS~1\Temp\cc1p5VcC.s 			page 74


 3661 00d6 3B1C     		mov	r3, r7
 3662 00d8 3A1C     		mov	r2, r7
 3663 00da 1032     		add	r2, r2, #16
 3664 00dc 1288     		ldrh	r2, [r2]
 3665 00de 1A80     		strh	r2, [r3]
 3666              	.L140:
 492:.\ssd1306.c   ****     }
 493:.\ssd1306.c   ****     if( x0 > x1 ){
 3667              		.loc 1 493 0
 3668 00e0 BA1D     		add	r2, r7, #6
 3669 00e2 BB1C     		add	r3, r7, #2
 3670 00e4 0021     		mov	r1, #0
 3671 00e6 525E     		ldrsh	r2, [r2, r1]
 3672 00e8 0024     		mov	r4, #0
 3673 00ea 1B5F     		ldrsh	r3, [r3, r4]
 3674 00ec 9A42     		cmp	r2, r3
 3675 00ee 1BDD     		ble	.L141
 494:.\ssd1306.c   ****         t = x0; x0 = x1; x1 = t;
 3676              		.loc 1 494 0
 3677 00f0 3B1C     		mov	r3, r7
 3678 00f2 1033     		add	r3, r3, #16
 3679 00f4 BA1D     		add	r2, r7, #6
 3680 00f6 1288     		ldrh	r2, [r2]
 3681 00f8 1A80     		strh	r2, [r3]
 3682 00fa BB1D     		add	r3, r7, #6
 3683 00fc BA1C     		add	r2, r7, #2
 3684 00fe 1288     		ldrh	r2, [r2]
 3685 0100 1A80     		strh	r2, [r3]
 3686 0102 BB1C     		add	r3, r7, #2
 3687 0104 3A1C     		mov	r2, r7
 3688 0106 1032     		add	r2, r2, #16
 3689 0108 1288     		ldrh	r2, [r2]
 3690 010a 1A80     		strh	r2, [r3]
 495:.\ssd1306.c   ****         t = y0; y0 = y1; y1 = t;
 3691              		.loc 1 495 0
 3692 010c 3B1C     		mov	r3, r7
 3693 010e 1033     		add	r3, r3, #16
 3694 0110 3A1D     		add	r2, r7, #4
 3695 0112 1288     		ldrh	r2, [r2]
 3696 0114 1A80     		strh	r2, [r3]
 3697 0116 3B1D     		add	r3, r7, #4
 3698 0118 3A1C     		mov	r2, r7
 3699 011a 1288     		ldrh	r2, [r2]
 3700 011c 1A80     		strh	r2, [r3]
 3701 011e 3B1C     		mov	r3, r7
 3702 0120 3A1C     		mov	r2, r7
 3703 0122 1032     		add	r2, r2, #16
 3704 0124 1288     		ldrh	r2, [r2]
 3705 0126 1A80     		strh	r2, [r3]
 3706              	.L141:
 496:.\ssd1306.c   ****     }
 497:.\ssd1306.c   ****     int16_t dx, dy;
 498:.\ssd1306.c   ****     dx = x1 - x0;
 3707              		.loc 1 498 0
 3708 0128 BB1C     		add	r3, r7, #2
 3709 012a 1A88     		ldrh	r2, [r3]
 3710 012c BB1D     		add	r3, r7, #6
ARM GAS  C:\DOCUME~1\Owner\LOCALS~1\Temp\cc1p5VcC.s 			page 75


 3711 012e 1B88     		ldrh	r3, [r3]
 3712 0130 D31A     		sub	r3, r2, r3
 3713 0132 9AB2     		uxth	r2, r3
 3714 0134 3B1C     		mov	r3, r7
 3715 0136 0E33     		add	r3, r3, #14
 3716 0138 1A80     		strh	r2, [r3]
 499:.\ssd1306.c   ****     dy = abs(y1 - y0);
 3717              		.loc 1 499 0
 3718 013a 3B1C     		mov	r3, r7
 3719 013c 0020     		mov	r0, #0
 3720 013e 1A5E     		ldrsh	r2, [r3, r0]
 3721 0140 3B1D     		add	r3, r7, #4
 3722 0142 0021     		mov	r1, #0
 3723 0144 5B5E     		ldrsh	r3, [r3, r1]
 3724 0146 D31A     		sub	r3, r2, r3
 3725 0148 DC17     		asr	r4, r3, #31
 3726 014a 1A19     		add	r2, r3, r4
 3727 014c 6240     		eor	r2, r4
 3728 014e 3B1C     		mov	r3, r7
 3729 0150 0C33     		add	r3, r3, #12
 3730 0152 1A80     		strh	r2, [r3]
 500:.\ssd1306.c   ****     int16_t err = dx / 2;
 3731              		.loc 1 500 0
 3732 0154 3A1C     		mov	r2, r7
 3733 0156 1632     		add	r2, r2, #22
 3734 0158 3B1C     		mov	r3, r7
 3735 015a 0E33     		add	r3, r3, #14
 3736 015c 0020     		mov	r0, #0
 3737 015e 1B5E     		ldrsh	r3, [r3, r0]
 3738 0160 002B     		cmp	r3, #0
 3739 0162 00DA     		bge	.L142
 3740 0164 0133     		add	r3, r3, #1
 3741              	.L142:
 3742 0166 5B10     		asr	r3, r3, #1
 3743 0168 1380     		strh	r3, [r2]
 501:.\ssd1306.c   ****     int16_t ystep;
 502:.\ssd1306.c   ****     if( y0 < y1 ){
 3744              		.loc 1 502 0
 3745 016a 3A1D     		add	r2, r7, #4
 3746 016c 3B1C     		mov	r3, r7
 3747 016e 0021     		mov	r1, #0
 3748 0170 525E     		ldrsh	r2, [r2, r1]
 3749 0172 0024     		mov	r4, #0
 3750 0174 1B5F     		ldrsh	r3, [r3, r4]
 3751 0176 9A42     		cmp	r2, r3
 3752 0178 04DA     		bge	.L143
 503:.\ssd1306.c   ****         ystep = 1;
 3753              		.loc 1 503 0
 3754 017a 3B1C     		mov	r3, r7
 3755 017c 1433     		add	r3, r3, #20
 3756 017e 0122     		mov	r2, #1
 3757 0180 1A80     		strh	r2, [r3]
 504:.\ssd1306.c   ****     }else{
 505:.\ssd1306.c   ****         ystep = -1;
 506:.\ssd1306.c   ****     }
 507:.\ssd1306.c   ****     for( ; x0<=x1; x0++ ){
 3758              		.loc 1 507 0
ARM GAS  C:\DOCUME~1\Owner\LOCALS~1\Temp\cc1p5VcC.s 			page 76


 3759 0182 52E0     		b	.L145
 3760              	.L143:
 505:.\ssd1306.c   ****         ystep = -1;
 3761              		.loc 1 505 0
 3762 0184 3B1C     		mov	r3, r7
 3763 0186 1433     		add	r3, r3, #20
 3764 0188 0122     		mov	r2, #1
 3765 018a 5242     		neg	r2, r2
 3766 018c 1A80     		strh	r2, [r3]
 3767              		.loc 1 507 0
 3768 018e 4CE0     		b	.L145
 3769              	.L149:
 508:.\ssd1306.c   ****         if( steep ){
 3770              		.loc 1 508 0
 3771 0190 3B1C     		mov	r3, r7
 3772 0192 1233     		add	r3, r3, #18
 3773 0194 0020     		mov	r0, #0
 3774 0196 1B5E     		ldrsh	r3, [r3, r0]
 3775 0198 002B     		cmp	r3, #0
 3776 019a 0ED0     		beq	.L146
 509:.\ssd1306.c   ****             gfx_drawPixel( y0, x0, color );
 3777              		.loc 1 509 0
 3778 019c 3B1D     		add	r3, r7, #4
 3779 019e 0022     		mov	r2, #0
 3780 01a0 995E     		ldrsh	r1, [r3, r2]
 3781 01a2 BB1D     		add	r3, r7, #6
 3782 01a4 0024     		mov	r4, #0
 3783 01a6 1A5F     		ldrsh	r2, [r3, r4]
 3784 01a8 3B1C     		mov	r3, r7
 3785 01aa 2833     		add	r3, r3, #40
 3786 01ac 1B88     		ldrh	r3, [r3]
 3787 01ae 081C     		mov	r0, r1
 3788 01b0 111C     		mov	r1, r2
 3789 01b2 1A1C     		mov	r2, r3
 3790 01b4 FFF7FEFF 		bl	gfx_drawPixel
 3791 01b8 0DE0     		b	.L147
 3792              	.L146:
 510:.\ssd1306.c   ****         }else{
 511:.\ssd1306.c   ****             gfx_drawPixel( x0, y0, color );
 3793              		.loc 1 511 0
 3794 01ba BB1D     		add	r3, r7, #6
 3795 01bc 0020     		mov	r0, #0
 3796 01be 195E     		ldrsh	r1, [r3, r0]
 3797 01c0 3B1D     		add	r3, r7, #4
 3798 01c2 0024     		mov	r4, #0
 3799 01c4 1A5F     		ldrsh	r2, [r3, r4]
 3800 01c6 3B1C     		mov	r3, r7
 3801 01c8 2833     		add	r3, r3, #40
 3802 01ca 1B88     		ldrh	r3, [r3]
 3803 01cc 081C     		mov	r0, r1
 3804 01ce 111C     		mov	r1, r2
 3805 01d0 1A1C     		mov	r2, r3
 3806 01d2 FFF7FEFF 		bl	gfx_drawPixel
 3807              	.L147:
 512:.\ssd1306.c   ****         }
 513:.\ssd1306.c   ****         err -= dy;
 3808              		.loc 1 513 0
ARM GAS  C:\DOCUME~1\Owner\LOCALS~1\Temp\cc1p5VcC.s 			page 77


 3809 01d6 3B1C     		mov	r3, r7
 3810 01d8 1633     		add	r3, r3, #22
 3811 01da 1A88     		ldrh	r2, [r3]
 3812 01dc 3B1C     		mov	r3, r7
 3813 01de 0C33     		add	r3, r3, #12
 3814 01e0 1B88     		ldrh	r3, [r3]
 3815 01e2 D31A     		sub	r3, r2, r3
 3816 01e4 9AB2     		uxth	r2, r3
 3817 01e6 3B1C     		mov	r3, r7
 3818 01e8 1633     		add	r3, r3, #22
 3819 01ea 1A80     		strh	r2, [r3]
 514:.\ssd1306.c   ****         if( err < 0 ){
 3820              		.loc 1 514 0
 3821 01ec 3B1C     		mov	r3, r7
 3822 01ee 1633     		add	r3, r3, #22
 3823 01f0 0020     		mov	r0, #0
 3824 01f2 1B5E     		ldrsh	r3, [r3, r0]
 3825 01f4 002B     		cmp	r3, #0
 3826 01f6 13DA     		bge	.L148
 515:.\ssd1306.c   ****             y0 += ystep;
 3827              		.loc 1 515 0
 3828 01f8 3B1D     		add	r3, r7, #4
 3829 01fa 1A88     		ldrh	r2, [r3]
 3830 01fc 3B1C     		mov	r3, r7
 3831 01fe 1433     		add	r3, r3, #20
 3832 0200 1B88     		ldrh	r3, [r3]
 3833 0202 D318     		add	r3, r2, r3
 3834 0204 9AB2     		uxth	r2, r3
 3835 0206 3B1D     		add	r3, r7, #4
 3836 0208 1A80     		strh	r2, [r3]
 516:.\ssd1306.c   ****             err += dx;
 3837              		.loc 1 516 0
 3838 020a 3B1C     		mov	r3, r7
 3839 020c 1633     		add	r3, r3, #22
 3840 020e 1A88     		ldrh	r2, [r3]
 3841 0210 3B1C     		mov	r3, r7
 3842 0212 0E33     		add	r3, r3, #14
 3843 0214 1B88     		ldrh	r3, [r3]
 3844 0216 D318     		add	r3, r2, r3
 3845 0218 9AB2     		uxth	r2, r3
 3846 021a 3B1C     		mov	r3, r7
 3847 021c 1633     		add	r3, r3, #22
 3848 021e 1A80     		strh	r2, [r3]
 3849              	.L148:
 507:.\ssd1306.c   ****     for( ; x0<=x1; x0++ ){
 3850              		.loc 1 507 0
 3851 0220 BB1D     		add	r3, r7, #6
 3852 0222 1A88     		ldrh	r2, [r3]
 3853 0224 BB1D     		add	r3, r7, #6
 3854 0226 0132     		add	r2, r2, #1
 3855 0228 1A80     		strh	r2, [r3]
 3856              	.L145:
 507:.\ssd1306.c   ****     for( ; x0<=x1; x0++ ){
 3857              		.loc 1 507 0 is_stmt 0 discriminator 1
 3858 022a BA1D     		add	r2, r7, #6
 3859 022c BB1C     		add	r3, r7, #2
 3860 022e 0021     		mov	r1, #0
ARM GAS  C:\DOCUME~1\Owner\LOCALS~1\Temp\cc1p5VcC.s 			page 78


 3861 0230 525E     		ldrsh	r2, [r2, r1]
 3862 0232 0024     		mov	r4, #0
 3863 0234 1B5F     		ldrsh	r3, [r3, r4]
 3864 0236 9A42     		cmp	r2, r3
 3865 0238 AADD     		ble	.L149
 3866              	.L135:
 517:.\ssd1306.c   ****         }
 518:.\ssd1306.c   ****     }
 519:.\ssd1306.c   **** }
 3867              		.loc 1 519 0 is_stmt 1
 3868 023a BD46     		mov	sp, r7
 3869 023c 07B0     		add	sp, sp, #28
 3870              		@ sp needed
 3871 023e 90BD     		pop	{r4, r7, pc}
 3872              		.cfi_endproc
 3873              	.LFE56:
 3874              		.size	gfx_drawLine, .-gfx_drawLine
 3875              		.section	.text.gfx_drawRect,"ax",%progbits
 3876              		.align	2
 3877              		.global	gfx_drawRect
 3878              		.code	16
 3879              		.thumb_func
 3880              		.type	gfx_drawRect, %function
 3881              	gfx_drawRect:
 3882              	.LFB57:
 520:.\ssd1306.c   **** 
 521:.\ssd1306.c   **** void gfx_drawRect( int16_t x, int16_t y, int16_t w, int16_t h, uint16_t color ){
 3883              		.loc 1 521 0
 3884              		.cfi_startproc
 3885 0000 90B5     		push	{r4, r7, lr}
 3886              		.cfi_def_cfa_offset 12
 3887              		.cfi_offset 4, -12
 3888              		.cfi_offset 7, -8
 3889              		.cfi_offset 14, -4
 3890 0002 85B0     		sub	sp, sp, #20
 3891              		.cfi_def_cfa_offset 32
 3892 0004 02AF     		add	r7, sp, #8
 3893              		.cfi_def_cfa 7, 24
 3894 0006 041C     		mov	r4, r0
 3895 0008 081C     		mov	r0, r1
 3896 000a 111C     		mov	r1, r2
 3897 000c 1A1C     		mov	r2, r3
 3898 000e BB1D     		add	r3, r7, #6
 3899 0010 1C80     		strh	r4, [r3]
 3900 0012 3B1D     		add	r3, r7, #4
 3901 0014 1880     		strh	r0, [r3]
 3902 0016 BB1C     		add	r3, r7, #2
 3903 0018 1980     		strh	r1, [r3]
 3904 001a 3B1C     		mov	r3, r7
 3905 001c 1A80     		strh	r2, [r3]
 522:.\ssd1306.c   ****     
 523:.\ssd1306.c   ****     gfx_drawLine( x, y, x+w-1, y, color );
 3906              		.loc 1 523 0
 3907 001e BB1D     		add	r3, r7, #6
 3908 0020 1A88     		ldrh	r2, [r3]
 3909 0022 BB1C     		add	r3, r7, #2
 3910 0024 1B88     		ldrh	r3, [r3]
ARM GAS  C:\DOCUME~1\Owner\LOCALS~1\Temp\cc1p5VcC.s 			page 79


 3911 0026 D318     		add	r3, r2, r3
 3912 0028 9BB2     		uxth	r3, r3
 3913 002a 013B     		sub	r3, r3, #1
 3914 002c 9BB2     		uxth	r3, r3
 3915 002e 9BB2     		uxth	r3, r3
 3916 0030 BA1D     		add	r2, r7, #6
 3917 0032 0021     		mov	r1, #0
 3918 0034 505E     		ldrsh	r0, [r2, r1]
 3919 0036 3A1D     		add	r2, r7, #4
 3920 0038 0024     		mov	r4, #0
 3921 003a 115F     		ldrsh	r1, [r2, r4]
 3922 003c 1AB2     		sxth	r2, r3
 3923 003e 3B1D     		add	r3, r7, #4
 3924 0040 0024     		mov	r4, #0
 3925 0042 1B5F     		ldrsh	r3, [r3, r4]
 3926 0044 3C1C     		mov	r4, r7
 3927 0046 1834     		add	r4, r4, #24
 3928 0048 2488     		ldrh	r4, [r4]
 3929 004a 0094     		str	r4, [sp]
 3930 004c FFF7FEFF 		bl	gfx_drawLine
 524:.\ssd1306.c   ****     gfx_drawLine( x, y+h-1, x+w-1, y+h-1, color );
 3931              		.loc 1 524 0
 3932 0050 3B1D     		add	r3, r7, #4
 3933 0052 1A88     		ldrh	r2, [r3]
 3934 0054 3B1C     		mov	r3, r7
 3935 0056 1B88     		ldrh	r3, [r3]
 3936 0058 D318     		add	r3, r2, r3
 3937 005a 9BB2     		uxth	r3, r3
 3938 005c 013B     		sub	r3, r3, #1
 3939 005e 9BB2     		uxth	r3, r3
 3940 0060 99B2     		uxth	r1, r3
 3941 0062 BB1D     		add	r3, r7, #6
 3942 0064 1A88     		ldrh	r2, [r3]
 3943 0066 BB1C     		add	r3, r7, #2
 3944 0068 1B88     		ldrh	r3, [r3]
 3945 006a D318     		add	r3, r2, r3
 3946 006c 9BB2     		uxth	r3, r3
 3947 006e 013B     		sub	r3, r3, #1
 3948 0070 9BB2     		uxth	r3, r3
 3949 0072 9AB2     		uxth	r2, r3
 3950 0074 3B1D     		add	r3, r7, #4
 3951 0076 1888     		ldrh	r0, [r3]
 3952 0078 3B1C     		mov	r3, r7
 3953 007a 1B88     		ldrh	r3, [r3]
 3954 007c C318     		add	r3, r0, r3
 3955 007e 9BB2     		uxth	r3, r3
 3956 0080 013B     		sub	r3, r3, #1
 3957 0082 9BB2     		uxth	r3, r3
 3958 0084 9BB2     		uxth	r3, r3
 3959 0086 B81D     		add	r0, r7, #6
 3960 0088 0024     		mov	r4, #0
 3961 008a 005F     		ldrsh	r0, [r0, r4]
 3962 008c 09B2     		sxth	r1, r1
 3963 008e 12B2     		sxth	r2, r2
 3964 0090 1BB2     		sxth	r3, r3
 3965 0092 3C1C     		mov	r4, r7
 3966 0094 1834     		add	r4, r4, #24
ARM GAS  C:\DOCUME~1\Owner\LOCALS~1\Temp\cc1p5VcC.s 			page 80


 3967 0096 2488     		ldrh	r4, [r4]
 3968 0098 0094     		str	r4, [sp]
 3969 009a FFF7FEFF 		bl	gfx_drawLine
 525:.\ssd1306.c   ****     gfx_drawLine( x, y, x, y+h-1, color );
 3970              		.loc 1 525 0
 3971 009e 3B1D     		add	r3, r7, #4
 3972 00a0 1A88     		ldrh	r2, [r3]
 3973 00a2 3B1C     		mov	r3, r7
 3974 00a4 1B88     		ldrh	r3, [r3]
 3975 00a6 D318     		add	r3, r2, r3
 3976 00a8 9BB2     		uxth	r3, r3
 3977 00aa 013B     		sub	r3, r3, #1
 3978 00ac 9BB2     		uxth	r3, r3
 3979 00ae 9BB2     		uxth	r3, r3
 3980 00b0 BA1D     		add	r2, r7, #6
 3981 00b2 0021     		mov	r1, #0
 3982 00b4 505E     		ldrsh	r0, [r2, r1]
 3983 00b6 3A1D     		add	r2, r7, #4
 3984 00b8 0024     		mov	r4, #0
 3985 00ba 115F     		ldrsh	r1, [r2, r4]
 3986 00bc BA1D     		add	r2, r7, #6
 3987 00be 0024     		mov	r4, #0
 3988 00c0 125F     		ldrsh	r2, [r2, r4]
 3989 00c2 1BB2     		sxth	r3, r3
 3990 00c4 3C1C     		mov	r4, r7
 3991 00c6 1834     		add	r4, r4, #24
 3992 00c8 2488     		ldrh	r4, [r4]
 3993 00ca 0094     		str	r4, [sp]
 3994 00cc FFF7FEFF 		bl	gfx_drawLine
 526:.\ssd1306.c   ****     gfx_drawLine( x+w-1, y, x+w-1, y+h-1, color );
 3995              		.loc 1 526 0
 3996 00d0 BB1D     		add	r3, r7, #6
 3997 00d2 1A88     		ldrh	r2, [r3]
 3998 00d4 BB1C     		add	r3, r7, #2
 3999 00d6 1B88     		ldrh	r3, [r3]
 4000 00d8 D318     		add	r3, r2, r3
 4001 00da 9BB2     		uxth	r3, r3
 4002 00dc 013B     		sub	r3, r3, #1
 4003 00de 9BB2     		uxth	r3, r3
 4004 00e0 99B2     		uxth	r1, r3
 4005 00e2 BB1D     		add	r3, r7, #6
 4006 00e4 1A88     		ldrh	r2, [r3]
 4007 00e6 BB1C     		add	r3, r7, #2
 4008 00e8 1B88     		ldrh	r3, [r3]
 4009 00ea D318     		add	r3, r2, r3
 4010 00ec 9BB2     		uxth	r3, r3
 4011 00ee 013B     		sub	r3, r3, #1
 4012 00f0 9BB2     		uxth	r3, r3
 4013 00f2 9AB2     		uxth	r2, r3
 4014 00f4 3B1D     		add	r3, r7, #4
 4015 00f6 1888     		ldrh	r0, [r3]
 4016 00f8 3B1C     		mov	r3, r7
 4017 00fa 1B88     		ldrh	r3, [r3]
 4018 00fc C318     		add	r3, r0, r3
 4019 00fe 9BB2     		uxth	r3, r3
 4020 0100 013B     		sub	r3, r3, #1
 4021 0102 9BB2     		uxth	r3, r3
ARM GAS  C:\DOCUME~1\Owner\LOCALS~1\Temp\cc1p5VcC.s 			page 81


 4022 0104 9BB2     		uxth	r3, r3
 4023 0106 08B2     		sxth	r0, r1
 4024 0108 391D     		add	r1, r7, #4
 4025 010a 0024     		mov	r4, #0
 4026 010c 095F     		ldrsh	r1, [r1, r4]
 4027 010e 12B2     		sxth	r2, r2
 4028 0110 1BB2     		sxth	r3, r3
 4029 0112 3C1C     		mov	r4, r7
 4030 0114 1834     		add	r4, r4, #24
 4031 0116 2488     		ldrh	r4, [r4]
 4032 0118 0094     		str	r4, [sp]
 4033 011a FFF7FEFF 		bl	gfx_drawLine
 527:.\ssd1306.c   **** }
 4034              		.loc 1 527 0
 4035 011e BD46     		mov	sp, r7
 4036 0120 03B0     		add	sp, sp, #12
 4037              		@ sp needed
 4038 0122 90BD     		pop	{r4, r7, pc}
 4039              		.cfi_endproc
 4040              	.LFE57:
 4041              		.size	gfx_drawRect, .-gfx_drawRect
 4042              		.section	.text.gfx_fillRect,"ax",%progbits
 4043              		.align	2
 4044              		.global	gfx_fillRect
 4045              		.code	16
 4046              		.thumb_func
 4047              		.type	gfx_fillRect, %function
 4048              	gfx_fillRect:
 4049              	.LFB58:
 528:.\ssd1306.c   **** 
 529:.\ssd1306.c   **** void gfx_fillRect( int16_t x, int16_t y, int16_t w, int16_t h, uint16_t color ){
 4050              		.loc 1 529 0
 4051              		.cfi_startproc
 4052 0000 90B5     		push	{r4, r7, lr}
 4053              		.cfi_def_cfa_offset 12
 4054              		.cfi_offset 4, -12
 4055              		.cfi_offset 7, -8
 4056              		.cfi_offset 14, -4
 4057 0002 87B0     		sub	sp, sp, #28
 4058              		.cfi_def_cfa_offset 40
 4059 0004 02AF     		add	r7, sp, #8
 4060              		.cfi_def_cfa 7, 32
 4061 0006 041C     		mov	r4, r0
 4062 0008 081C     		mov	r0, r1
 4063 000a 111C     		mov	r1, r2
 4064 000c 1A1C     		mov	r2, r3
 4065 000e BB1D     		add	r3, r7, #6
 4066 0010 1C80     		strh	r4, [r3]
 4067 0012 3B1D     		add	r3, r7, #4
 4068 0014 1880     		strh	r0, [r3]
 4069 0016 BB1C     		add	r3, r7, #2
 4070 0018 1980     		strh	r1, [r3]
 4071 001a 3B1C     		mov	r3, r7
 4072 001c 1A80     		strh	r2, [r3]
 530:.\ssd1306.c   ****     int16_t i = 0;
 4073              		.loc 1 530 0
 4074 001e 3B1C     		mov	r3, r7
ARM GAS  C:\DOCUME~1\Owner\LOCALS~1\Temp\cc1p5VcC.s 			page 82


 4075 0020 0E33     		add	r3, r3, #14
 4076 0022 0022     		mov	r2, #0
 4077 0024 1A80     		strh	r2, [r3]
 531:.\ssd1306.c   ****     if( h > w ){
 4078              		.loc 1 531 0
 4079 0026 3A1C     		mov	r2, r7
 4080 0028 BB1C     		add	r3, r7, #2
 4081 002a 0020     		mov	r0, #0
 4082 002c 125E     		ldrsh	r2, [r2, r0]
 4083 002e 0021     		mov	r1, #0
 4084 0030 5B5E     		ldrsh	r3, [r3, r1]
 4085 0032 9A42     		cmp	r2, r3
 4086 0034 35DD     		ble	.L152
 532:.\ssd1306.c   ****         for( i = x ; i < x+w ; i++ ){
 4087              		.loc 1 532 0
 4088 0036 3B1C     		mov	r3, r7
 4089 0038 0E33     		add	r3, r3, #14
 4090 003a BA1D     		add	r2, r7, #6
 4091 003c 1288     		ldrh	r2, [r2]
 4092 003e 1A80     		strh	r2, [r3]
 4093 0040 21E0     		b	.L153
 4094              	.L154:
 533:.\ssd1306.c   ****             gfx_drawLine( i, y, i, y+h-1, color );
 4095              		.loc 1 533 0 discriminator 2
 4096 0042 3B1D     		add	r3, r7, #4
 4097 0044 1A88     		ldrh	r2, [r3]
 4098 0046 3B1C     		mov	r3, r7
 4099 0048 1B88     		ldrh	r3, [r3]
 4100 004a D318     		add	r3, r2, r3
 4101 004c 9BB2     		uxth	r3, r3
 4102 004e 013B     		sub	r3, r3, #1
 4103 0050 9BB2     		uxth	r3, r3
 4104 0052 9BB2     		uxth	r3, r3
 4105 0054 3A1C     		mov	r2, r7
 4106 0056 0E32     		add	r2, r2, #14
 4107 0058 0024     		mov	r4, #0
 4108 005a 105F     		ldrsh	r0, [r2, r4]
 4109 005c 3A1D     		add	r2, r7, #4
 4110 005e 0024     		mov	r4, #0
 4111 0060 115F     		ldrsh	r1, [r2, r4]
 4112 0062 3A1C     		mov	r2, r7
 4113 0064 0E32     		add	r2, r2, #14
 4114 0066 0024     		mov	r4, #0
 4115 0068 125F     		ldrsh	r2, [r2, r4]
 4116 006a 1BB2     		sxth	r3, r3
 4117 006c 3C1C     		mov	r4, r7
 4118 006e 2034     		add	r4, r4, #32
 4119 0070 2488     		ldrh	r4, [r4]
 4120 0072 0094     		str	r4, [sp]
 4121 0074 FFF7FEFF 		bl	gfx_drawLine
 532:.\ssd1306.c   ****         for( i = x ; i < x+w ; i++ ){
 4122              		.loc 1 532 0 discriminator 2
 4123 0078 3B1C     		mov	r3, r7
 4124 007a 0E33     		add	r3, r3, #14
 4125 007c 1A88     		ldrh	r2, [r3]
 4126 007e 3B1C     		mov	r3, r7
 4127 0080 0E33     		add	r3, r3, #14
ARM GAS  C:\DOCUME~1\Owner\LOCALS~1\Temp\cc1p5VcC.s 			page 83


 4128 0082 0132     		add	r2, r2, #1
 4129 0084 1A80     		strh	r2, [r3]
 4130              	.L153:
 532:.\ssd1306.c   ****         for( i = x ; i < x+w ; i++ ){
 4131              		.loc 1 532 0 is_stmt 0 discriminator 1
 4132 0086 3B1C     		mov	r3, r7
 4133 0088 0E33     		add	r3, r3, #14
 4134 008a 0020     		mov	r0, #0
 4135 008c 1A5E     		ldrsh	r2, [r3, r0]
 4136 008e BB1D     		add	r3, r7, #6
 4137 0090 0024     		mov	r4, #0
 4138 0092 195F     		ldrsh	r1, [r3, r4]
 4139 0094 BB1C     		add	r3, r7, #2
 4140 0096 0020     		mov	r0, #0
 4141 0098 1B5E     		ldrsh	r3, [r3, r0]
 4142 009a CB18     		add	r3, r1, r3
 4143 009c 9A42     		cmp	r2, r3
 4144 009e D0DB     		blt	.L154
 4145 00a0 34E0     		b	.L151
 4146              	.L152:
 534:.\ssd1306.c   ****         }
 535:.\ssd1306.c   ****     }else{
 536:.\ssd1306.c   ****         for( i = y ; i < y+h ; i++ ){
 4147              		.loc 1 536 0 is_stmt 1
 4148 00a2 3B1C     		mov	r3, r7
 4149 00a4 0E33     		add	r3, r3, #14
 4150 00a6 3A1D     		add	r2, r7, #4
 4151 00a8 1288     		ldrh	r2, [r2]
 4152 00aa 1A80     		strh	r2, [r3]
 4153 00ac 21E0     		b	.L156
 4154              	.L157:
 537:.\ssd1306.c   ****             gfx_drawLine( x, i, x+w-1, i, color );
 4155              		.loc 1 537 0 discriminator 2
 4156 00ae BB1D     		add	r3, r7, #6
 4157 00b0 1A88     		ldrh	r2, [r3]
 4158 00b2 BB1C     		add	r3, r7, #2
 4159 00b4 1B88     		ldrh	r3, [r3]
 4160 00b6 D318     		add	r3, r2, r3
 4161 00b8 9BB2     		uxth	r3, r3
 4162 00ba 013B     		sub	r3, r3, #1
 4163 00bc 9BB2     		uxth	r3, r3
 4164 00be 9BB2     		uxth	r3, r3
 4165 00c0 BA1D     		add	r2, r7, #6
 4166 00c2 0021     		mov	r1, #0
 4167 00c4 505E     		ldrsh	r0, [r2, r1]
 4168 00c6 3A1C     		mov	r2, r7
 4169 00c8 0E32     		add	r2, r2, #14
 4170 00ca 0024     		mov	r4, #0
 4171 00cc 115F     		ldrsh	r1, [r2, r4]
 4172 00ce 1AB2     		sxth	r2, r3
 4173 00d0 3B1C     		mov	r3, r7
 4174 00d2 0E33     		add	r3, r3, #14
 4175 00d4 0024     		mov	r4, #0
 4176 00d6 1B5F     		ldrsh	r3, [r3, r4]
 4177 00d8 3C1C     		mov	r4, r7
 4178 00da 2034     		add	r4, r4, #32
 4179 00dc 2488     		ldrh	r4, [r4]
ARM GAS  C:\DOCUME~1\Owner\LOCALS~1\Temp\cc1p5VcC.s 			page 84


 4180 00de 0094     		str	r4, [sp]
 4181 00e0 FFF7FEFF 		bl	gfx_drawLine
 536:.\ssd1306.c   ****         for( i = y ; i < y+h ; i++ ){
 4182              		.loc 1 536 0 discriminator 2
 4183 00e4 3B1C     		mov	r3, r7
 4184 00e6 0E33     		add	r3, r3, #14
 4185 00e8 1A88     		ldrh	r2, [r3]
 4186 00ea 3B1C     		mov	r3, r7
 4187 00ec 0E33     		add	r3, r3, #14
 4188 00ee 0132     		add	r2, r2, #1
 4189 00f0 1A80     		strh	r2, [r3]
 4190              	.L156:
 536:.\ssd1306.c   ****         for( i = y ; i < y+h ; i++ ){
 4191              		.loc 1 536 0 is_stmt 0 discriminator 1
 4192 00f2 3B1C     		mov	r3, r7
 4193 00f4 0E33     		add	r3, r3, #14
 4194 00f6 0020     		mov	r0, #0
 4195 00f8 1A5E     		ldrsh	r2, [r3, r0]
 4196 00fa 3B1D     		add	r3, r7, #4
 4197 00fc 0024     		mov	r4, #0
 4198 00fe 195F     		ldrsh	r1, [r3, r4]
 4199 0100 3B1C     		mov	r3, r7
 4200 0102 0020     		mov	r0, #0
 4201 0104 1B5E     		ldrsh	r3, [r3, r0]
 4202 0106 CB18     		add	r3, r1, r3
 4203 0108 9A42     		cmp	r2, r3
 4204 010a D0DB     		blt	.L157
 4205              	.L151:
 538:.\ssd1306.c   ****         }
 539:.\ssd1306.c   ****     }
 540:.\ssd1306.c   **** }
 4206              		.loc 1 540 0 is_stmt 1
 4207 010c BD46     		mov	sp, r7
 4208 010e 05B0     		add	sp, sp, #20
 4209              		@ sp needed
 4210 0110 90BD     		pop	{r4, r7, pc}
 4211              		.cfi_endproc
 4212              	.LFE58:
 4213              		.size	gfx_fillRect, .-gfx_fillRect
 4214 0112 C046     		.section	.text.gfx_drawCircle,"ax",%progbits
 4215              		.align	2
 4216              		.global	gfx_drawCircle
 4217              		.code	16
 4218              		.thumb_func
 4219              		.type	gfx_drawCircle, %function
 4220              	gfx_drawCircle:
 4221              	.LFB59:
 541:.\ssd1306.c   **** 
 542:.\ssd1306.c   **** 
 543:.\ssd1306.c   **** // circle outline
 544:.\ssd1306.c   **** void gfx_drawCircle( int16_t x0, int16_t y0, int16_t r,uint16_t color ){
 4222              		.loc 1 544 0
 4223              		.cfi_startproc
 4224 0000 90B5     		push	{r4, r7, lr}
 4225              		.cfi_def_cfa_offset 12
 4226              		.cfi_offset 4, -12
 4227              		.cfi_offset 7, -8
ARM GAS  C:\DOCUME~1\Owner\LOCALS~1\Temp\cc1p5VcC.s 			page 85


 4228              		.cfi_offset 14, -4
 4229 0002 87B0     		sub	sp, sp, #28
 4230              		.cfi_def_cfa_offset 40
 4231 0004 00AF     		add	r7, sp, #0
 4232              		.cfi_def_cfa_register 7
 4233 0006 041C     		mov	r4, r0
 4234 0008 081C     		mov	r0, r1
 4235 000a 111C     		mov	r1, r2
 4236 000c 1A1C     		mov	r2, r3
 4237 000e BB1D     		add	r3, r7, #6
 4238 0010 1C80     		strh	r4, [r3]
 4239 0012 3B1D     		add	r3, r7, #4
 4240 0014 1880     		strh	r0, [r3]
 4241 0016 BB1C     		add	r3, r7, #2
 4242 0018 1980     		strh	r1, [r3]
 4243 001a 3B1C     		mov	r3, r7
 4244 001c 1A80     		strh	r2, [r3]
 545:.\ssd1306.c   **** 
 546:.\ssd1306.c   ****     int16_t f = 1 - r;
 4245              		.loc 1 546 0
 4246 001e BB1C     		add	r3, r7, #2
 4247 0020 1B88     		ldrh	r3, [r3]
 4248 0022 0122     		mov	r2, #1
 4249 0024 D31A     		sub	r3, r2, r3
 4250 0026 9AB2     		uxth	r2, r3
 4251 0028 3B1C     		mov	r3, r7
 4252 002a 1633     		add	r3, r3, #22
 4253 002c 1A80     		strh	r2, [r3]
 547:.\ssd1306.c   ****     int16_t ddF_x = 1;
 4254              		.loc 1 547 0
 4255 002e 3B1C     		mov	r3, r7
 4256 0030 1433     		add	r3, r3, #20
 4257 0032 0122     		mov	r2, #1
 4258 0034 1A80     		strh	r2, [r3]
 548:.\ssd1306.c   ****     int16_t ddF_y = -2 * r;
 4259              		.loc 1 548 0
 4260 0036 BB1C     		add	r3, r7, #2
 4261 0038 1B88     		ldrh	r3, [r3]
 4262 003a 1A1C     		add	r2, r3, #0
 4263 003c D203     		lsl	r2, r2, #15
 4264 003e D31A     		sub	r3, r2, r3
 4265 0040 DB18     		add	r3, r3, r3
 4266 0042 9AB2     		uxth	r2, r3
 4267 0044 3B1C     		mov	r3, r7
 4268 0046 1233     		add	r3, r3, #18
 4269 0048 1A80     		strh	r2, [r3]
 549:.\ssd1306.c   ****     int16_t x = 0;
 4270              		.loc 1 549 0
 4271 004a 3B1C     		mov	r3, r7
 4272 004c 1033     		add	r3, r3, #16
 4273 004e 0022     		mov	r2, #0
 4274 0050 1A80     		strh	r2, [r3]
 550:.\ssd1306.c   ****     int16_t y = r;
 4275              		.loc 1 550 0
 4276 0052 3B1C     		mov	r3, r7
 4277 0054 0E33     		add	r3, r3, #14
 4278 0056 BA1C     		add	r2, r7, #2
ARM GAS  C:\DOCUME~1\Owner\LOCALS~1\Temp\cc1p5VcC.s 			page 86


 4279 0058 1288     		ldrh	r2, [r2]
 4280 005a 1A80     		strh	r2, [r3]
 551:.\ssd1306.c   ****     gfx_drawPixel( x0 , y0+r, color );
 4281              		.loc 1 551 0
 4282 005c 3B1D     		add	r3, r7, #4
 4283 005e 1A88     		ldrh	r2, [r3]
 4284 0060 BB1C     		add	r3, r7, #2
 4285 0062 1B88     		ldrh	r3, [r3]
 4286 0064 D318     		add	r3, r2, r3
 4287 0066 9BB2     		uxth	r3, r3
 4288 0068 9BB2     		uxth	r3, r3
 4289 006a BA1D     		add	r2, r7, #6
 4290 006c 0020     		mov	r0, #0
 4291 006e 115E     		ldrsh	r1, [r2, r0]
 4292 0070 1AB2     		sxth	r2, r3
 4293 0072 3B1C     		mov	r3, r7
 4294 0074 1B88     		ldrh	r3, [r3]
 4295 0076 081C     		mov	r0, r1
 4296 0078 111C     		mov	r1, r2
 4297 007a 1A1C     		mov	r2, r3
 4298 007c FFF7FEFF 		bl	gfx_drawPixel
 552:.\ssd1306.c   ****     gfx_drawPixel( x0 , y0-r, color );
 4299              		.loc 1 552 0
 4300 0080 3B1D     		add	r3, r7, #4
 4301 0082 1A88     		ldrh	r2, [r3]
 4302 0084 BB1C     		add	r3, r7, #2
 4303 0086 1B88     		ldrh	r3, [r3]
 4304 0088 D31A     		sub	r3, r2, r3
 4305 008a 9BB2     		uxth	r3, r3
 4306 008c 9BB2     		uxth	r3, r3
 4307 008e BA1D     		add	r2, r7, #6
 4308 0090 0020     		mov	r0, #0
 4309 0092 115E     		ldrsh	r1, [r2, r0]
 4310 0094 1AB2     		sxth	r2, r3
 4311 0096 3B1C     		mov	r3, r7
 4312 0098 1B88     		ldrh	r3, [r3]
 4313 009a 081C     		mov	r0, r1
 4314 009c 111C     		mov	r1, r2
 4315 009e 1A1C     		mov	r2, r3
 4316 00a0 FFF7FEFF 		bl	gfx_drawPixel
 553:.\ssd1306.c   ****     gfx_drawPixel( x0+r, y0 , color );
 4317              		.loc 1 553 0
 4318 00a4 BB1D     		add	r3, r7, #6
 4319 00a6 1A88     		ldrh	r2, [r3]
 4320 00a8 BB1C     		add	r3, r7, #2
 4321 00aa 1B88     		ldrh	r3, [r3]
 4322 00ac D318     		add	r3, r2, r3
 4323 00ae 9BB2     		uxth	r3, r3
 4324 00b0 9BB2     		uxth	r3, r3
 4325 00b2 19B2     		sxth	r1, r3
 4326 00b4 3B1D     		add	r3, r7, #4
 4327 00b6 0020     		mov	r0, #0
 4328 00b8 1A5E     		ldrsh	r2, [r3, r0]
 4329 00ba 3B1C     		mov	r3, r7
 4330 00bc 1B88     		ldrh	r3, [r3]
 4331 00be 081C     		mov	r0, r1
 4332 00c0 111C     		mov	r1, r2
ARM GAS  C:\DOCUME~1\Owner\LOCALS~1\Temp\cc1p5VcC.s 			page 87


 4333 00c2 1A1C     		mov	r2, r3
 4334 00c4 FFF7FEFF 		bl	gfx_drawPixel
 554:.\ssd1306.c   ****     gfx_drawPixel( x0-r, y0 , color );
 4335              		.loc 1 554 0
 4336 00c8 BB1D     		add	r3, r7, #6
 4337 00ca 1A88     		ldrh	r2, [r3]
 4338 00cc BB1C     		add	r3, r7, #2
 4339 00ce 1B88     		ldrh	r3, [r3]
 4340 00d0 D31A     		sub	r3, r2, r3
 4341 00d2 9BB2     		uxth	r3, r3
 4342 00d4 9BB2     		uxth	r3, r3
 4343 00d6 19B2     		sxth	r1, r3
 4344 00d8 3B1D     		add	r3, r7, #4
 4345 00da 0020     		mov	r0, #0
 4346 00dc 1A5E     		ldrsh	r2, [r3, r0]
 4347 00de 3B1C     		mov	r3, r7
 4348 00e0 1B88     		ldrh	r3, [r3]
 4349 00e2 081C     		mov	r0, r1
 4350 00e4 111C     		mov	r1, r2
 4351 00e6 1A1C     		mov	r2, r3
 4352 00e8 FFF7FEFF 		bl	gfx_drawPixel
 555:.\ssd1306.c   ****     while( x < y ){
 4353              		.loc 1 555 0
 4354 00ec 01E1     		b	.L159
 4355              	.L161:
 556:.\ssd1306.c   ****         if( f >= 0 ){
 4356              		.loc 1 556 0
 4357 00ee 3B1C     		mov	r3, r7
 4358 00f0 1633     		add	r3, r3, #22
 4359 00f2 0021     		mov	r1, #0
 4360 00f4 5B5E     		ldrsh	r3, [r3, r1]
 4361 00f6 002B     		cmp	r3, #0
 4362 00f8 19DB     		blt	.L160
 557:.\ssd1306.c   ****             y--;
 4363              		.loc 1 557 0
 4364 00fa 3B1C     		mov	r3, r7
 4365 00fc 0E33     		add	r3, r3, #14
 4366 00fe 1A88     		ldrh	r2, [r3]
 4367 0100 3B1C     		mov	r3, r7
 4368 0102 0E33     		add	r3, r3, #14
 4369 0104 013A     		sub	r2, r2, #1
 4370 0106 1A80     		strh	r2, [r3]
 558:.\ssd1306.c   ****             ddF_y += 2;
 4371              		.loc 1 558 0
 4372 0108 3B1C     		mov	r3, r7
 4373 010a 1233     		add	r3, r3, #18
 4374 010c 1B88     		ldrh	r3, [r3]
 4375 010e 0233     		add	r3, r3, #2
 4376 0110 9AB2     		uxth	r2, r3
 4377 0112 3B1C     		mov	r3, r7
 4378 0114 1233     		add	r3, r3, #18
 4379 0116 1A80     		strh	r2, [r3]
 559:.\ssd1306.c   ****             f += ddF_y;
 4380              		.loc 1 559 0
 4381 0118 3B1C     		mov	r3, r7
 4382 011a 1633     		add	r3, r3, #22
 4383 011c 1A88     		ldrh	r2, [r3]
ARM GAS  C:\DOCUME~1\Owner\LOCALS~1\Temp\cc1p5VcC.s 			page 88


 4384 011e 3B1C     		mov	r3, r7
 4385 0120 1233     		add	r3, r3, #18
 4386 0122 1B88     		ldrh	r3, [r3]
 4387 0124 D318     		add	r3, r2, r3
 4388 0126 9AB2     		uxth	r2, r3
 4389 0128 3B1C     		mov	r3, r7
 4390 012a 1633     		add	r3, r3, #22
 4391 012c 1A80     		strh	r2, [r3]
 4392              	.L160:
 560:.\ssd1306.c   ****         }
 561:.\ssd1306.c   ****         x++;
 4393              		.loc 1 561 0
 4394 012e 3B1C     		mov	r3, r7
 4395 0130 1033     		add	r3, r3, #16
 4396 0132 1A88     		ldrh	r2, [r3]
 4397 0134 3B1C     		mov	r3, r7
 4398 0136 1033     		add	r3, r3, #16
 4399 0138 0132     		add	r2, r2, #1
 4400 013a 1A80     		strh	r2, [r3]
 562:.\ssd1306.c   ****         ddF_x += 2;
 4401              		.loc 1 562 0
 4402 013c 3B1C     		mov	r3, r7
 4403 013e 1433     		add	r3, r3, #20
 4404 0140 1B88     		ldrh	r3, [r3]
 4405 0142 0233     		add	r3, r3, #2
 4406 0144 9AB2     		uxth	r2, r3
 4407 0146 3B1C     		mov	r3, r7
 4408 0148 1433     		add	r3, r3, #20
 4409 014a 1A80     		strh	r2, [r3]
 563:.\ssd1306.c   ****         f += ddF_x;
 4410              		.loc 1 563 0
 4411 014c 3B1C     		mov	r3, r7
 4412 014e 1633     		add	r3, r3, #22
 4413 0150 1A88     		ldrh	r2, [r3]
 4414 0152 3B1C     		mov	r3, r7
 4415 0154 1433     		add	r3, r3, #20
 4416 0156 1B88     		ldrh	r3, [r3]
 4417 0158 D318     		add	r3, r2, r3
 4418 015a 9AB2     		uxth	r2, r3
 4419 015c 3B1C     		mov	r3, r7
 4420 015e 1633     		add	r3, r3, #22
 4421 0160 1A80     		strh	r2, [r3]
 564:.\ssd1306.c   ****         gfx_drawPixel( x0 + x, y0 + y, color );
 4422              		.loc 1 564 0
 4423 0162 BB1D     		add	r3, r7, #6
 4424 0164 1A88     		ldrh	r2, [r3]
 4425 0166 3B1C     		mov	r3, r7
 4426 0168 1033     		add	r3, r3, #16
 4427 016a 1B88     		ldrh	r3, [r3]
 4428 016c D318     		add	r3, r2, r3
 4429 016e 9BB2     		uxth	r3, r3
 4430 0170 9AB2     		uxth	r2, r3
 4431 0172 3B1D     		add	r3, r7, #4
 4432 0174 1988     		ldrh	r1, [r3]
 4433 0176 3B1C     		mov	r3, r7
 4434 0178 0E33     		add	r3, r3, #14
 4435 017a 1B88     		ldrh	r3, [r3]
ARM GAS  C:\DOCUME~1\Owner\LOCALS~1\Temp\cc1p5VcC.s 			page 89


 4436 017c CB18     		add	r3, r1, r3
 4437 017e 9BB2     		uxth	r3, r3
 4438 0180 9BB2     		uxth	r3, r3
 4439 0182 11B2     		sxth	r1, r2
 4440 0184 1AB2     		sxth	r2, r3
 4441 0186 3B1C     		mov	r3, r7
 4442 0188 1B88     		ldrh	r3, [r3]
 4443 018a 081C     		mov	r0, r1
 4444 018c 111C     		mov	r1, r2
 4445 018e 1A1C     		mov	r2, r3
 4446 0190 FFF7FEFF 		bl	gfx_drawPixel
 565:.\ssd1306.c   ****         gfx_drawPixel( x0 - x, y0 + y, color );
 4447              		.loc 1 565 0
 4448 0194 BB1D     		add	r3, r7, #6
 4449 0196 1A88     		ldrh	r2, [r3]
 4450 0198 3B1C     		mov	r3, r7
 4451 019a 1033     		add	r3, r3, #16
 4452 019c 1B88     		ldrh	r3, [r3]
 4453 019e D31A     		sub	r3, r2, r3
 4454 01a0 9BB2     		uxth	r3, r3
 4455 01a2 9AB2     		uxth	r2, r3
 4456 01a4 3B1D     		add	r3, r7, #4
 4457 01a6 1988     		ldrh	r1, [r3]
 4458 01a8 3B1C     		mov	r3, r7
 4459 01aa 0E33     		add	r3, r3, #14
 4460 01ac 1B88     		ldrh	r3, [r3]
 4461 01ae CB18     		add	r3, r1, r3
 4462 01b0 9BB2     		uxth	r3, r3
 4463 01b2 9BB2     		uxth	r3, r3
 4464 01b4 11B2     		sxth	r1, r2
 4465 01b6 1AB2     		sxth	r2, r3
 4466 01b8 3B1C     		mov	r3, r7
 4467 01ba 1B88     		ldrh	r3, [r3]
 4468 01bc 081C     		mov	r0, r1
 4469 01be 111C     		mov	r1, r2
 4470 01c0 1A1C     		mov	r2, r3
 4471 01c2 FFF7FEFF 		bl	gfx_drawPixel
 566:.\ssd1306.c   ****         gfx_drawPixel( x0 + x, y0 - y, color );
 4472              		.loc 1 566 0
 4473 01c6 BB1D     		add	r3, r7, #6
 4474 01c8 1A88     		ldrh	r2, [r3]
 4475 01ca 3B1C     		mov	r3, r7
 4476 01cc 1033     		add	r3, r3, #16
 4477 01ce 1B88     		ldrh	r3, [r3]
 4478 01d0 D318     		add	r3, r2, r3
 4479 01d2 9BB2     		uxth	r3, r3
 4480 01d4 9AB2     		uxth	r2, r3
 4481 01d6 3B1D     		add	r3, r7, #4
 4482 01d8 1988     		ldrh	r1, [r3]
 4483 01da 3B1C     		mov	r3, r7
 4484 01dc 0E33     		add	r3, r3, #14
 4485 01de 1B88     		ldrh	r3, [r3]
 4486 01e0 CB1A     		sub	r3, r1, r3
 4487 01e2 9BB2     		uxth	r3, r3
 4488 01e4 9BB2     		uxth	r3, r3
 4489 01e6 11B2     		sxth	r1, r2
 4490 01e8 1AB2     		sxth	r2, r3
ARM GAS  C:\DOCUME~1\Owner\LOCALS~1\Temp\cc1p5VcC.s 			page 90


 4491 01ea 3B1C     		mov	r3, r7
 4492 01ec 1B88     		ldrh	r3, [r3]
 4493 01ee 081C     		mov	r0, r1
 4494 01f0 111C     		mov	r1, r2
 4495 01f2 1A1C     		mov	r2, r3
 4496 01f4 FFF7FEFF 		bl	gfx_drawPixel
 567:.\ssd1306.c   ****         gfx_drawPixel( x0 - x, y0 - y, color );
 4497              		.loc 1 567 0
 4498 01f8 BB1D     		add	r3, r7, #6
 4499 01fa 1A88     		ldrh	r2, [r3]
 4500 01fc 3B1C     		mov	r3, r7
 4501 01fe 1033     		add	r3, r3, #16
 4502 0200 1B88     		ldrh	r3, [r3]
 4503 0202 D31A     		sub	r3, r2, r3
 4504 0204 9BB2     		uxth	r3, r3
 4505 0206 9AB2     		uxth	r2, r3
 4506 0208 3B1D     		add	r3, r7, #4
 4507 020a 1988     		ldrh	r1, [r3]
 4508 020c 3B1C     		mov	r3, r7
 4509 020e 0E33     		add	r3, r3, #14
 4510 0210 1B88     		ldrh	r3, [r3]
 4511 0212 CB1A     		sub	r3, r1, r3
 4512 0214 9BB2     		uxth	r3, r3
 4513 0216 9BB2     		uxth	r3, r3
 4514 0218 11B2     		sxth	r1, r2
 4515 021a 1AB2     		sxth	r2, r3
 4516 021c 3B1C     		mov	r3, r7
 4517 021e 1B88     		ldrh	r3, [r3]
 4518 0220 081C     		mov	r0, r1
 4519 0222 111C     		mov	r1, r2
 4520 0224 1A1C     		mov	r2, r3
 4521 0226 FFF7FEFF 		bl	gfx_drawPixel
 568:.\ssd1306.c   ****         gfx_drawPixel( x0 + y, y0 + x, color );
 4522              		.loc 1 568 0
 4523 022a BB1D     		add	r3, r7, #6
 4524 022c 1A88     		ldrh	r2, [r3]
 4525 022e 3B1C     		mov	r3, r7
 4526 0230 0E33     		add	r3, r3, #14
 4527 0232 1B88     		ldrh	r3, [r3]
 4528 0234 D318     		add	r3, r2, r3
 4529 0236 9BB2     		uxth	r3, r3
 4530 0238 9AB2     		uxth	r2, r3
 4531 023a 3B1D     		add	r3, r7, #4
 4532 023c 1988     		ldrh	r1, [r3]
 4533 023e 3B1C     		mov	r3, r7
 4534 0240 1033     		add	r3, r3, #16
 4535 0242 1B88     		ldrh	r3, [r3]
 4536 0244 CB18     		add	r3, r1, r3
 4537 0246 9BB2     		uxth	r3, r3
 4538 0248 9BB2     		uxth	r3, r3
 4539 024a 11B2     		sxth	r1, r2
 4540 024c 1AB2     		sxth	r2, r3
 4541 024e 3B1C     		mov	r3, r7
 4542 0250 1B88     		ldrh	r3, [r3]
 4543 0252 081C     		mov	r0, r1
 4544 0254 111C     		mov	r1, r2
 4545 0256 1A1C     		mov	r2, r3
ARM GAS  C:\DOCUME~1\Owner\LOCALS~1\Temp\cc1p5VcC.s 			page 91


 4546 0258 FFF7FEFF 		bl	gfx_drawPixel
 569:.\ssd1306.c   ****         gfx_drawPixel( x0 - y, y0 + x, color );
 4547              		.loc 1 569 0
 4548 025c BB1D     		add	r3, r7, #6
 4549 025e 1A88     		ldrh	r2, [r3]
 4550 0260 3B1C     		mov	r3, r7
 4551 0262 0E33     		add	r3, r3, #14
 4552 0264 1B88     		ldrh	r3, [r3]
 4553 0266 D31A     		sub	r3, r2, r3
 4554 0268 9BB2     		uxth	r3, r3
 4555 026a 9AB2     		uxth	r2, r3
 4556 026c 3B1D     		add	r3, r7, #4
 4557 026e 1988     		ldrh	r1, [r3]
 4558 0270 3B1C     		mov	r3, r7
 4559 0272 1033     		add	r3, r3, #16
 4560 0274 1B88     		ldrh	r3, [r3]
 4561 0276 CB18     		add	r3, r1, r3
 4562 0278 9BB2     		uxth	r3, r3
 4563 027a 9BB2     		uxth	r3, r3
 4564 027c 11B2     		sxth	r1, r2
 4565 027e 1AB2     		sxth	r2, r3
 4566 0280 3B1C     		mov	r3, r7
 4567 0282 1B88     		ldrh	r3, [r3]
 4568 0284 081C     		mov	r0, r1
 4569 0286 111C     		mov	r1, r2
 4570 0288 1A1C     		mov	r2, r3
 4571 028a FFF7FEFF 		bl	gfx_drawPixel
 570:.\ssd1306.c   ****         gfx_drawPixel( x0 + y, y0 - x, color );
 4572              		.loc 1 570 0
 4573 028e BB1D     		add	r3, r7, #6
 4574 0290 1A88     		ldrh	r2, [r3]
 4575 0292 3B1C     		mov	r3, r7
 4576 0294 0E33     		add	r3, r3, #14
 4577 0296 1B88     		ldrh	r3, [r3]
 4578 0298 D318     		add	r3, r2, r3
 4579 029a 9BB2     		uxth	r3, r3
 4580 029c 9AB2     		uxth	r2, r3
 4581 029e 3B1D     		add	r3, r7, #4
 4582 02a0 1988     		ldrh	r1, [r3]
 4583 02a2 3B1C     		mov	r3, r7
 4584 02a4 1033     		add	r3, r3, #16
 4585 02a6 1B88     		ldrh	r3, [r3]
 4586 02a8 CB1A     		sub	r3, r1, r3
 4587 02aa 9BB2     		uxth	r3, r3
 4588 02ac 9BB2     		uxth	r3, r3
 4589 02ae 11B2     		sxth	r1, r2
 4590 02b0 1AB2     		sxth	r2, r3
 4591 02b2 3B1C     		mov	r3, r7
 4592 02b4 1B88     		ldrh	r3, [r3]
 4593 02b6 081C     		mov	r0, r1
 4594 02b8 111C     		mov	r1, r2
 4595 02ba 1A1C     		mov	r2, r3
 4596 02bc FFF7FEFF 		bl	gfx_drawPixel
 571:.\ssd1306.c   ****         gfx_drawPixel( x0 - y, y0 - x, color );
 4597              		.loc 1 571 0
 4598 02c0 BB1D     		add	r3, r7, #6
 4599 02c2 1A88     		ldrh	r2, [r3]
ARM GAS  C:\DOCUME~1\Owner\LOCALS~1\Temp\cc1p5VcC.s 			page 92


 4600 02c4 3B1C     		mov	r3, r7
 4601 02c6 0E33     		add	r3, r3, #14
 4602 02c8 1B88     		ldrh	r3, [r3]
 4603 02ca D31A     		sub	r3, r2, r3
 4604 02cc 9BB2     		uxth	r3, r3
 4605 02ce 9AB2     		uxth	r2, r3
 4606 02d0 3B1D     		add	r3, r7, #4
 4607 02d2 1988     		ldrh	r1, [r3]
 4608 02d4 3B1C     		mov	r3, r7
 4609 02d6 1033     		add	r3, r3, #16
 4610 02d8 1B88     		ldrh	r3, [r3]
 4611 02da CB1A     		sub	r3, r1, r3
 4612 02dc 9BB2     		uxth	r3, r3
 4613 02de 9BB2     		uxth	r3, r3
 4614 02e0 11B2     		sxth	r1, r2
 4615 02e2 1AB2     		sxth	r2, r3
 4616 02e4 3B1C     		mov	r3, r7
 4617 02e6 1B88     		ldrh	r3, [r3]
 4618 02e8 081C     		mov	r0, r1
 4619 02ea 111C     		mov	r1, r2
 4620 02ec 1A1C     		mov	r2, r3
 4621 02ee FFF7FEFF 		bl	gfx_drawPixel
 4622              	.L159:
 555:.\ssd1306.c   ****     while( x < y ){
 4623              		.loc 1 555 0 discriminator 1
 4624 02f2 3A1C     		mov	r2, r7
 4625 02f4 1032     		add	r2, r2, #16
 4626 02f6 3B1C     		mov	r3, r7
 4627 02f8 0E33     		add	r3, r3, #14
 4628 02fa 0020     		mov	r0, #0
 4629 02fc 125E     		ldrsh	r2, [r2, r0]
 4630 02fe 0021     		mov	r1, #0
 4631 0300 5B5E     		ldrsh	r3, [r3, r1]
 4632 0302 9A42     		cmp	r2, r3
 4633 0304 00DA     		bge	.LCB2995
 4634 0306 F2E6     		b	.L161	@long jump
 4635              	.LCB2995:
 572:.\ssd1306.c   ****     }
 573:.\ssd1306.c   **** }
 4636              		.loc 1 573 0
 4637 0308 BD46     		mov	sp, r7
 4638 030a 07B0     		add	sp, sp, #28
 4639              		@ sp needed
 4640 030c 90BD     		pop	{r4, r7, pc}
 4641              		.cfi_endproc
 4642              	.LFE59:
 4643              		.size	gfx_drawCircle, .-gfx_drawCircle
 4644 030e C046     		.section	.text.gfx_drawTriangle,"ax",%progbits
 4645              		.align	2
 4646              		.global	gfx_drawTriangle
 4647              		.code	16
 4648              		.thumb_func
 4649              		.type	gfx_drawTriangle, %function
 4650              	gfx_drawTriangle:
 4651              	.LFB60:
 574:.\ssd1306.c   **** 
 575:.\ssd1306.c   **** void gfx_drawTriangle( int16_t x0, int16_t y0,int16_t x1, int16_t y1, int16_t x2, int16_t y2, uint1
ARM GAS  C:\DOCUME~1\Owner\LOCALS~1\Temp\cc1p5VcC.s 			page 93


 4652              		.loc 1 575 0
 4653              		.cfi_startproc
 4654 0000 90B5     		push	{r4, r7, lr}
 4655              		.cfi_def_cfa_offset 12
 4656              		.cfi_offset 4, -12
 4657              		.cfi_offset 7, -8
 4658              		.cfi_offset 14, -4
 4659 0002 85B0     		sub	sp, sp, #20
 4660              		.cfi_def_cfa_offset 32
 4661 0004 02AF     		add	r7, sp, #8
 4662              		.cfi_def_cfa 7, 24
 4663 0006 041C     		mov	r4, r0
 4664 0008 081C     		mov	r0, r1
 4665 000a 111C     		mov	r1, r2
 4666 000c 1A1C     		mov	r2, r3
 4667 000e BB1D     		add	r3, r7, #6
 4668 0010 1C80     		strh	r4, [r3]
 4669 0012 3B1D     		add	r3, r7, #4
 4670 0014 1880     		strh	r0, [r3]
 4671 0016 BB1C     		add	r3, r7, #2
 4672 0018 1980     		strh	r1, [r3]
 4673 001a 3B1C     		mov	r3, r7
 4674 001c 1A80     		strh	r2, [r3]
 576:.\ssd1306.c   ****     
 577:.\ssd1306.c   ****     gfx_drawLine( x0, y0, x1, y1, color );
 4675              		.loc 1 577 0
 4676 001e BB1D     		add	r3, r7, #6
 4677 0020 0022     		mov	r2, #0
 4678 0022 985E     		ldrsh	r0, [r3, r2]
 4679 0024 3B1D     		add	r3, r7, #4
 4680 0026 0024     		mov	r4, #0
 4681 0028 195F     		ldrsh	r1, [r3, r4]
 4682 002a BB1C     		add	r3, r7, #2
 4683 002c 0024     		mov	r4, #0
 4684 002e 1A5F     		ldrsh	r2, [r3, r4]
 4685 0030 3B1C     		mov	r3, r7
 4686 0032 0024     		mov	r4, #0
 4687 0034 1B5F     		ldrsh	r3, [r3, r4]
 4688 0036 3C1C     		mov	r4, r7
 4689 0038 2034     		add	r4, r4, #32
 4690 003a 2488     		ldrh	r4, [r4]
 4691 003c 0094     		str	r4, [sp]
 4692 003e FFF7FEFF 		bl	gfx_drawLine
 578:.\ssd1306.c   ****     gfx_drawLine( x1, y1, x2, y2, color );
 4693              		.loc 1 578 0
 4694 0042 BB1C     		add	r3, r7, #2
 4695 0044 0022     		mov	r2, #0
 4696 0046 985E     		ldrsh	r0, [r3, r2]
 4697 0048 3B1C     		mov	r3, r7
 4698 004a 0024     		mov	r4, #0
 4699 004c 195F     		ldrsh	r1, [r3, r4]
 4700 004e 3B1C     		mov	r3, r7
 4701 0050 1833     		add	r3, r3, #24
 4702 0052 0024     		mov	r4, #0
 4703 0054 1A5F     		ldrsh	r2, [r3, r4]
 4704 0056 3B1C     		mov	r3, r7
 4705 0058 1C33     		add	r3, r3, #28
ARM GAS  C:\DOCUME~1\Owner\LOCALS~1\Temp\cc1p5VcC.s 			page 94


 4706 005a 0024     		mov	r4, #0
 4707 005c 1B5F     		ldrsh	r3, [r3, r4]
 4708 005e 3C1C     		mov	r4, r7
 4709 0060 2034     		add	r4, r4, #32
 4710 0062 2488     		ldrh	r4, [r4]
 4711 0064 0094     		str	r4, [sp]
 4712 0066 FFF7FEFF 		bl	gfx_drawLine
 579:.\ssd1306.c   ****     gfx_drawLine( x2, y2, x0, y0, color );
 4713              		.loc 1 579 0
 4714 006a 3B1C     		mov	r3, r7
 4715 006c 1833     		add	r3, r3, #24
 4716 006e 0022     		mov	r2, #0
 4717 0070 985E     		ldrsh	r0, [r3, r2]
 4718 0072 3B1C     		mov	r3, r7
 4719 0074 1C33     		add	r3, r3, #28
 4720 0076 0024     		mov	r4, #0
 4721 0078 195F     		ldrsh	r1, [r3, r4]
 4722 007a BB1D     		add	r3, r7, #6
 4723 007c 0024     		mov	r4, #0
 4724 007e 1A5F     		ldrsh	r2, [r3, r4]
 4725 0080 3B1D     		add	r3, r7, #4
 4726 0082 0024     		mov	r4, #0
 4727 0084 1B5F     		ldrsh	r3, [r3, r4]
 4728 0086 3C1C     		mov	r4, r7
 4729 0088 2034     		add	r4, r4, #32
 4730 008a 2488     		ldrh	r4, [r4]
 4731 008c 0094     		str	r4, [sp]
 4732 008e FFF7FEFF 		bl	gfx_drawLine
 580:.\ssd1306.c   **** }
 4733              		.loc 1 580 0
 4734 0092 BD46     		mov	sp, r7
 4735 0094 03B0     		add	sp, sp, #12
 4736              		@ sp needed
 4737 0096 90BD     		pop	{r4, r7, pc}
 4738              		.cfi_endproc
 4739              	.LFE60:
 4740              		.size	gfx_drawTriangle, .-gfx_drawTriangle
 4741              		.section	.text.gfx_drawChar,"ax",%progbits
 4742              		.align	2
 4743              		.global	gfx_drawChar
 4744              		.code	16
 4745              		.thumb_func
 4746              		.type	gfx_drawChar, %function
 4747              	gfx_drawChar:
 4748              	.LFB61:
 581:.\ssd1306.c   **** 
 582:.\ssd1306.c   **** 
 583:.\ssd1306.c   **** // Draw a character
 584:.\ssd1306.c   **** void gfx_drawChar( int16_t x, int16_t y, unsigned char c,uint16_t color, uint16_t bg, uint8_t size)
 4749              		.loc 1 584 0
 4750              		.cfi_startproc
 4751 0000 90B5     		push	{r4, r7, lr}
 4752              		.cfi_def_cfa_offset 12
 4753              		.cfi_offset 4, -12
 4754              		.cfi_offset 7, -8
 4755              		.cfi_offset 14, -4
 4756 0002 87B0     		sub	sp, sp, #28
ARM GAS  C:\DOCUME~1\Owner\LOCALS~1\Temp\cc1p5VcC.s 			page 95


 4757              		.cfi_def_cfa_offset 40
 4758 0004 02AF     		add	r7, sp, #8
 4759              		.cfi_def_cfa 7, 32
 4760 0006 041C     		mov	r4, r0
 4761 0008 081C     		mov	r0, r1
 4762 000a 111C     		mov	r1, r2
 4763 000c 1A1C     		mov	r2, r3
 4764 000e BB1D     		add	r3, r7, #6
 4765 0010 1C80     		strh	r4, [r3]
 4766 0012 3B1D     		add	r3, r7, #4
 4767 0014 1880     		strh	r0, [r3]
 4768 0016 FB1C     		add	r3, r7, #3
 4769 0018 1970     		strb	r1, [r3]
 4770 001a 3B1C     		mov	r3, r7
 4771 001c 1A80     		strh	r2, [r3]
 585:.\ssd1306.c   ****     if( (x >= _width) || // Clip right
 4772              		.loc 1 585 0
 4773 001e 9A4B     		ldr	r3, .L178
 4774 0020 1B88     		ldrh	r3, [r3]
 4775 0022 BA1D     		add	r2, r7, #6
 4776 0024 0021     		mov	r1, #0
 4777 0026 525E     		ldrsh	r2, [r2, r1]
 4778 0028 1BB2     		sxth	r3, r3
 4779 002a 9A42     		cmp	r2, r3
 4780 002c 20DA     		bge	.L164
 586:.\ssd1306.c   ****         (y >= _height) || // Clip bottom
 4781              		.loc 1 586 0 discriminator 1
 4782 002e 974B     		ldr	r3, .L178+4
 4783 0030 1B88     		ldrh	r3, [r3]
 585:.\ssd1306.c   ****     if( (x >= _width) || // Clip right
 4784              		.loc 1 585 0 discriminator 1
 4785 0032 3A1D     		add	r2, r7, #4
 4786 0034 0021     		mov	r1, #0
 4787 0036 525E     		ldrsh	r2, [r2, r1]
 4788 0038 1BB2     		sxth	r3, r3
 4789 003a 9A42     		cmp	r2, r3
 4790 003c 18DA     		bge	.L164
 587:.\ssd1306.c   ****         ((x + 6 * size - 1) < 0) || // Clip left
 4791              		.loc 1 587 0
 4792 003e BB1D     		add	r3, r7, #6
 4793 0040 0022     		mov	r2, #0
 4794 0042 995E     		ldrsh	r1, [r3, r2]
 4795 0044 3B1C     		mov	r3, r7
 4796 0046 2433     		add	r3, r3, #36
 4797 0048 1A78     		ldrb	r2, [r3]
 4798 004a 131C     		mov	r3, r2
 4799 004c 5B00     		lsl	r3, r3, #1
 4800 004e 9B18     		add	r3, r3, r2
 4801 0050 5B00     		lsl	r3, r3, #1
 4802 0052 CB18     		add	r3, r1, r3
 4803 0054 013B     		sub	r3, r3, #1
 586:.\ssd1306.c   ****         (y >= _height) || // Clip bottom
 4804              		.loc 1 586 0
 4805 0056 002B     		cmp	r3, #0
 4806 0058 0ADB     		blt	.L164
 588:.\ssd1306.c   ****         ((y + 8 * size - 1) < 0)) // Clip top
 4807              		.loc 1 588 0
ARM GAS  C:\DOCUME~1\Owner\LOCALS~1\Temp\cc1p5VcC.s 			page 96


 4808 005a 3B1D     		add	r3, r7, #4
 4809 005c 0021     		mov	r1, #0
 4810 005e 5A5E     		ldrsh	r2, [r3, r1]
 4811 0060 3B1C     		mov	r3, r7
 4812 0062 2433     		add	r3, r3, #36
 4813 0064 1B78     		ldrb	r3, [r3]
 4814 0066 DB00     		lsl	r3, r3, #3
 4815 0068 D318     		add	r3, r2, r3
 4816 006a 013B     		sub	r3, r3, #1
 587:.\ssd1306.c   ****         ((x + 6 * size - 1) < 0) || // Clip left
 4817              		.loc 1 587 0
 4818 006c 002B     		cmp	r3, #0
 4819 006e 00DA     		bge	.L165
 4820              	.L164:
 589:.\ssd1306.c   ****         return;
 4821              		.loc 1 589 0
 4822 0070 06E1     		b	.L163
 4823              	.L165:
 590:.\ssd1306.c   **** 
 591:.\ssd1306.c   ****     int8_t i = 0;
 4824              		.loc 1 591 0
 4825 0072 3B1C     		mov	r3, r7
 4826 0074 0F33     		add	r3, r3, #15
 4827 0076 0022     		mov	r2, #0
 4828 0078 1A70     		strb	r2, [r3]
 592:.\ssd1306.c   ****     for( i = 0 ; i < 6 ; i++ ){
 4829              		.loc 1 592 0
 4830 007a 3B1C     		mov	r3, r7
 4831 007c 0F33     		add	r3, r3, #15
 4832 007e 0022     		mov	r2, #0
 4833 0080 1A70     		strb	r2, [r3]
 4834 0082 F6E0     		b	.L167
 4835              	.L177:
 4836              	.LBB7:
 593:.\ssd1306.c   ****         uint8_t line;
 594:.\ssd1306.c   ****         if( i == 5 )
 4837              		.loc 1 594 0
 4838 0084 3B1C     		mov	r3, r7
 4839 0086 0F33     		add	r3, r3, #15
 4840 0088 1B78     		ldrb	r3, [r3]
 4841 008a 5BB2     		sxtb	r3, r3
 4842 008c 052B     		cmp	r3, #5
 4843 008e 04D1     		bne	.L168
 595:.\ssd1306.c   ****             line = 0x0;
 4844              		.loc 1 595 0
 4845 0090 3B1C     		mov	r3, r7
 4846 0092 0E33     		add	r3, r3, #14
 4847 0094 0022     		mov	r2, #0
 4848 0096 1A70     		strb	r2, [r3]
 4849 0098 0EE0     		b	.L169
 4850              	.L168:
 596:.\ssd1306.c   ****         else
 597:.\ssd1306.c   ****            line = font[(c*5)+i];
 4851              		.loc 1 597 0
 4852 009a FB1C     		add	r3, r7, #3
 4853 009c 1A78     		ldrb	r2, [r3]
 4854 009e 131C     		mov	r3, r2
ARM GAS  C:\DOCUME~1\Owner\LOCALS~1\Temp\cc1p5VcC.s 			page 97


 4855 00a0 9B00     		lsl	r3, r3, #2
 4856 00a2 9A18     		add	r2, r3, r2
 4857 00a4 3B1C     		mov	r3, r7
 4858 00a6 0F33     		add	r3, r3, #15
 4859 00a8 1B78     		ldrb	r3, [r3]
 4860 00aa 5BB2     		sxtb	r3, r3
 4861 00ac D218     		add	r2, r2, r3
 4862 00ae 3B1C     		mov	r3, r7
 4863 00b0 0E33     		add	r3, r3, #14
 4864 00b2 7749     		ldr	r1, .L178+8
 4865 00b4 8A5C     		ldrb	r2, [r1, r2]
 4866 00b6 1A70     		strb	r2, [r3]
 4867              	.L169:
 598:.\ssd1306.c   ****         int8_t j = 0;
 4868              		.loc 1 598 0
 4869 00b8 3B1C     		mov	r3, r7
 4870 00ba 0D33     		add	r3, r3, #13
 4871 00bc 0022     		mov	r2, #0
 4872 00be 1A70     		strb	r2, [r3]
 599:.\ssd1306.c   ****         for( j = 0; j < 8 ; j++ ){
 4873              		.loc 1 599 0
 4874 00c0 3B1C     		mov	r3, r7
 4875 00c2 0D33     		add	r3, r3, #13
 4876 00c4 0022     		mov	r2, #0
 4877 00c6 1A70     		strb	r2, [r3]
 4878 00c8 C5E0     		b	.L170
 4879              	.L176:
 600:.\ssd1306.c   ****             if( line & 0x1 ){
 4880              		.loc 1 600 0
 4881 00ca 3B1C     		mov	r3, r7
 4882 00cc 0E33     		add	r3, r3, #14
 4883 00ce 1A78     		ldrb	r2, [r3]
 4884 00d0 0123     		mov	r3, #1
 4885 00d2 1340     		and	r3, r2
 4886 00d4 54D0     		beq	.L171
 601:.\ssd1306.c   ****                 if( size == 1 ) // default size
 4887              		.loc 1 601 0
 4888 00d6 3B1C     		mov	r3, r7
 4889 00d8 2433     		add	r3, r3, #36
 4890 00da 1B78     		ldrb	r3, [r3]
 4891 00dc 012B     		cmp	r3, #1
 4892 00de 1DD1     		bne	.L172
 602:.\ssd1306.c   ****                     gfx_drawPixel( x+i, y+j, color );
 4893              		.loc 1 602 0
 4894 00e0 3B1C     		mov	r3, r7
 4895 00e2 0F33     		add	r3, r3, #15
 4896 00e4 1B78     		ldrb	r3, [r3]
 4897 00e6 5BB2     		sxtb	r3, r3
 4898 00e8 9AB2     		uxth	r2, r3
 4899 00ea BB1D     		add	r3, r7, #6
 4900 00ec 1B88     		ldrh	r3, [r3]
 4901 00ee D318     		add	r3, r2, r3
 4902 00f0 9BB2     		uxth	r3, r3
 4903 00f2 9AB2     		uxth	r2, r3
 4904 00f4 3B1C     		mov	r3, r7
 4905 00f6 0D33     		add	r3, r3, #13
 4906 00f8 1B78     		ldrb	r3, [r3]
ARM GAS  C:\DOCUME~1\Owner\LOCALS~1\Temp\cc1p5VcC.s 			page 98


 4907 00fa 5BB2     		sxtb	r3, r3
 4908 00fc 99B2     		uxth	r1, r3
 4909 00fe 3B1D     		add	r3, r7, #4
 4910 0100 1B88     		ldrh	r3, [r3]
 4911 0102 CB18     		add	r3, r1, r3
 4912 0104 9BB2     		uxth	r3, r3
 4913 0106 9BB2     		uxth	r3, r3
 4914 0108 11B2     		sxth	r1, r2
 4915 010a 1AB2     		sxth	r2, r3
 4916 010c 3B1C     		mov	r3, r7
 4917 010e 1B88     		ldrh	r3, [r3]
 4918 0110 081C     		mov	r0, r1
 4919 0112 111C     		mov	r1, r2
 4920 0114 1A1C     		mov	r2, r3
 4921 0116 FFF7FEFF 		bl	gfx_drawPixel
 4922 011a 8EE0     		b	.L174
 4923              	.L172:
 603:.\ssd1306.c   ****                 else { // big size
 604:.\ssd1306.c   ****                     gfx_fillRect( x+(i*size), y+(j*size), size, size, color );
 4924              		.loc 1 604 0
 4925 011c 3B1C     		mov	r3, r7
 4926 011e 0F33     		add	r3, r3, #15
 4927 0120 1B78     		ldrb	r3, [r3]
 4928 0122 5BB2     		sxtb	r3, r3
 4929 0124 9BB2     		uxth	r3, r3
 4930 0126 3A1C     		mov	r2, r7
 4931 0128 2432     		add	r2, r2, #36
 4932 012a 1278     		ldrb	r2, [r2]
 4933 012c 92B2     		uxth	r2, r2
 4934 012e 5343     		mul	r3, r2
 4935 0130 9AB2     		uxth	r2, r3
 4936 0132 BB1D     		add	r3, r7, #6
 4937 0134 1B88     		ldrh	r3, [r3]
 4938 0136 D318     		add	r3, r2, r3
 4939 0138 9BB2     		uxth	r3, r3
 4940 013a 98B2     		uxth	r0, r3
 4941 013c 3B1C     		mov	r3, r7
 4942 013e 0D33     		add	r3, r3, #13
 4943 0140 1B78     		ldrb	r3, [r3]
 4944 0142 5BB2     		sxtb	r3, r3
 4945 0144 9BB2     		uxth	r3, r3
 4946 0146 3A1C     		mov	r2, r7
 4947 0148 2432     		add	r2, r2, #36
 4948 014a 1278     		ldrb	r2, [r2]
 4949 014c 92B2     		uxth	r2, r2
 4950 014e 5343     		mul	r3, r2
 4951 0150 9AB2     		uxth	r2, r3
 4952 0152 3B1D     		add	r3, r7, #4
 4953 0154 1B88     		ldrh	r3, [r3]
 4954 0156 D318     		add	r3, r2, r3
 4955 0158 9BB2     		uxth	r3, r3
 4956 015a 99B2     		uxth	r1, r3
 4957 015c 3B1C     		mov	r3, r7
 4958 015e 2433     		add	r3, r3, #36
 4959 0160 1B78     		ldrb	r3, [r3]
 4960 0162 9AB2     		uxth	r2, r3
 4961 0164 3B1C     		mov	r3, r7
ARM GAS  C:\DOCUME~1\Owner\LOCALS~1\Temp\cc1p5VcC.s 			page 99


 4962 0166 2433     		add	r3, r3, #36
 4963 0168 1B78     		ldrb	r3, [r3]
 4964 016a 9BB2     		uxth	r3, r3
 4965 016c 00B2     		sxth	r0, r0
 4966 016e 09B2     		sxth	r1, r1
 4967 0170 12B2     		sxth	r2, r2
 4968 0172 1BB2     		sxth	r3, r3
 4969 0174 3C1C     		mov	r4, r7
 4970 0176 2488     		ldrh	r4, [r4]
 4971 0178 0094     		str	r4, [sp]
 4972 017a FFF7FEFF 		bl	gfx_fillRect
 4973 017e 5CE0     		b	.L174
 4974              	.L171:
 605:.\ssd1306.c   ****                 }
 606:.\ssd1306.c   ****             } else if( bg != color ){
 4975              		.loc 1 606 0
 4976 0180 3A1C     		mov	r2, r7
 4977 0182 2032     		add	r2, r2, #32
 4978 0184 3B1C     		mov	r3, r7
 4979 0186 1288     		ldrh	r2, [r2]
 4980 0188 1B88     		ldrh	r3, [r3]
 4981 018a 9A42     		cmp	r2, r3
 4982 018c 55D0     		beq	.L174
 607:.\ssd1306.c   ****                 if( size == 1 ) // default size
 4983              		.loc 1 607 0
 4984 018e 3B1C     		mov	r3, r7
 4985 0190 2433     		add	r3, r3, #36
 4986 0192 1B78     		ldrb	r3, [r3]
 4987 0194 012B     		cmp	r3, #1
 4988 0196 1ED1     		bne	.L175
 608:.\ssd1306.c   ****                     gfx_drawPixel( x+i, y+j, bg );
 4989              		.loc 1 608 0
 4990 0198 3B1C     		mov	r3, r7
 4991 019a 0F33     		add	r3, r3, #15
 4992 019c 1B78     		ldrb	r3, [r3]
 4993 019e 5BB2     		sxtb	r3, r3
 4994 01a0 9AB2     		uxth	r2, r3
 4995 01a2 BB1D     		add	r3, r7, #6
 4996 01a4 1B88     		ldrh	r3, [r3]
 4997 01a6 D318     		add	r3, r2, r3
 4998 01a8 9BB2     		uxth	r3, r3
 4999 01aa 9AB2     		uxth	r2, r3
 5000 01ac 3B1C     		mov	r3, r7
 5001 01ae 0D33     		add	r3, r3, #13
 5002 01b0 1B78     		ldrb	r3, [r3]
 5003 01b2 5BB2     		sxtb	r3, r3
 5004 01b4 99B2     		uxth	r1, r3
 5005 01b6 3B1D     		add	r3, r7, #4
 5006 01b8 1B88     		ldrh	r3, [r3]
 5007 01ba CB18     		add	r3, r1, r3
 5008 01bc 9BB2     		uxth	r3, r3
 5009 01be 9BB2     		uxth	r3, r3
 5010 01c0 11B2     		sxth	r1, r2
 5011 01c2 1AB2     		sxth	r2, r3
 5012 01c4 3B1C     		mov	r3, r7
 5013 01c6 2033     		add	r3, r3, #32
 5014 01c8 1B88     		ldrh	r3, [r3]
ARM GAS  C:\DOCUME~1\Owner\LOCALS~1\Temp\cc1p5VcC.s 			page 100


 5015 01ca 081C     		mov	r0, r1
 5016 01cc 111C     		mov	r1, r2
 5017 01ce 1A1C     		mov	r2, r3
 5018 01d0 FFF7FEFF 		bl	gfx_drawPixel
 5019 01d4 31E0     		b	.L174
 5020              	.L175:
 609:.\ssd1306.c   ****                 else { // big size
 610:.\ssd1306.c   ****                     gfx_fillRect( x+i*size, y+j*size, size, size, bg );
 5021              		.loc 1 610 0
 5022 01d6 3B1C     		mov	r3, r7
 5023 01d8 0F33     		add	r3, r3, #15
 5024 01da 1B78     		ldrb	r3, [r3]
 5025 01dc 5BB2     		sxtb	r3, r3
 5026 01de 9BB2     		uxth	r3, r3
 5027 01e0 3A1C     		mov	r2, r7
 5028 01e2 2432     		add	r2, r2, #36
 5029 01e4 1278     		ldrb	r2, [r2]
 5030 01e6 92B2     		uxth	r2, r2
 5031 01e8 5343     		mul	r3, r2
 5032 01ea 9AB2     		uxth	r2, r3
 5033 01ec BB1D     		add	r3, r7, #6
 5034 01ee 1B88     		ldrh	r3, [r3]
 5035 01f0 D318     		add	r3, r2, r3
 5036 01f2 9BB2     		uxth	r3, r3
 5037 01f4 98B2     		uxth	r0, r3
 5038 01f6 3B1C     		mov	r3, r7
 5039 01f8 0D33     		add	r3, r3, #13
 5040 01fa 1B78     		ldrb	r3, [r3]
 5041 01fc 5BB2     		sxtb	r3, r3
 5042 01fe 9BB2     		uxth	r3, r3
 5043 0200 3A1C     		mov	r2, r7
 5044 0202 2432     		add	r2, r2, #36
 5045 0204 1278     		ldrb	r2, [r2]
 5046 0206 92B2     		uxth	r2, r2
 5047 0208 5343     		mul	r3, r2
 5048 020a 9AB2     		uxth	r2, r3
 5049 020c 3B1D     		add	r3, r7, #4
 5050 020e 1B88     		ldrh	r3, [r3]
 5051 0210 D318     		add	r3, r2, r3
 5052 0212 9BB2     		uxth	r3, r3
 5053 0214 99B2     		uxth	r1, r3
 5054 0216 3B1C     		mov	r3, r7
 5055 0218 2433     		add	r3, r3, #36
 5056 021a 1B78     		ldrb	r3, [r3]
 5057 021c 9AB2     		uxth	r2, r3
 5058 021e 3B1C     		mov	r3, r7
 5059 0220 2433     		add	r3, r3, #36
 5060 0222 1B78     		ldrb	r3, [r3]
 5061 0224 9BB2     		uxth	r3, r3
 5062 0226 00B2     		sxth	r0, r0
 5063 0228 09B2     		sxth	r1, r1
 5064 022a 12B2     		sxth	r2, r2
 5065 022c 1BB2     		sxth	r3, r3
 5066 022e 3C1C     		mov	r4, r7
 5067 0230 2034     		add	r4, r4, #32
 5068 0232 2488     		ldrh	r4, [r4]
 5069 0234 0094     		str	r4, [sp]
ARM GAS  C:\DOCUME~1\Owner\LOCALS~1\Temp\cc1p5VcC.s 			page 101


 5070 0236 FFF7FEFF 		bl	gfx_fillRect
 5071              	.L174:
 611:.\ssd1306.c   ****                 }
 612:.\ssd1306.c   ****             }
 613:.\ssd1306.c   ****             line >>= 1;
 5072              		.loc 1 613 0
 5073 023a 3B1C     		mov	r3, r7
 5074 023c 0E33     		add	r3, r3, #14
 5075 023e 3A1C     		mov	r2, r7
 5076 0240 0E32     		add	r2, r2, #14
 5077 0242 1278     		ldrb	r2, [r2]
 5078 0244 5208     		lsr	r2, r2, #1
 5079 0246 1A70     		strb	r2, [r3]
 599:.\ssd1306.c   ****         for( j = 0; j < 8 ; j++ ){
 5080              		.loc 1 599 0
 5081 0248 3B1C     		mov	r3, r7
 5082 024a 0D33     		add	r3, r3, #13
 5083 024c 1A78     		ldrb	r2, [r3]
 5084 024e 3B1C     		mov	r3, r7
 5085 0250 0D33     		add	r3, r3, #13
 5086 0252 0132     		add	r2, r2, #1
 5087 0254 1A70     		strb	r2, [r3]
 5088              	.L170:
 599:.\ssd1306.c   ****         for( j = 0; j < 8 ; j++ ){
 5089              		.loc 1 599 0 is_stmt 0 discriminator 1
 5090 0256 3B1C     		mov	r3, r7
 5091 0258 0D33     		add	r3, r3, #13
 5092 025a 1B78     		ldrb	r3, [r3]
 5093 025c 5BB2     		sxtb	r3, r3
 5094 025e 072B     		cmp	r3, #7
 5095 0260 00DC     		bgt	.LCB3420
 5096 0262 32E7     		b	.L176	@long jump
 5097              	.LCB3420:
 5098              	.LBE7:
 592:.\ssd1306.c   ****     for( i = 0 ; i < 6 ; i++ ){
 5099              		.loc 1 592 0 is_stmt 1
 5100 0264 3B1C     		mov	r3, r7
 5101 0266 0F33     		add	r3, r3, #15
 5102 0268 1A78     		ldrb	r2, [r3]
 5103 026a 3B1C     		mov	r3, r7
 5104 026c 0F33     		add	r3, r3, #15
 5105 026e 0132     		add	r2, r2, #1
 5106 0270 1A70     		strb	r2, [r3]
 5107              	.L167:
 592:.\ssd1306.c   ****     for( i = 0 ; i < 6 ; i++ ){
 5108              		.loc 1 592 0 is_stmt 0 discriminator 1
 5109 0272 3B1C     		mov	r3, r7
 5110 0274 0F33     		add	r3, r3, #15
 5111 0276 1B78     		ldrb	r3, [r3]
 5112 0278 5BB2     		sxtb	r3, r3
 5113 027a 052B     		cmp	r3, #5
 5114 027c 00DC     		bgt	.LCB3436
 5115 027e 01E7     		b	.L177	@long jump
 5116              	.LCB3436:
 5117              	.L163:
 614:.\ssd1306.c   ****         }
 615:.\ssd1306.c   ****     }
ARM GAS  C:\DOCUME~1\Owner\LOCALS~1\Temp\cc1p5VcC.s 			page 102


 616:.\ssd1306.c   **** }
 5118              		.loc 1 616 0 is_stmt 1
 5119 0280 BD46     		mov	sp, r7
 5120 0282 05B0     		add	sp, sp, #20
 5121              		@ sp needed
 5122 0284 90BD     		pop	{r4, r7, pc}
 5123              	.L179:
 5124 0286 C046     		.align	2
 5125              	.L178:
 5126 0288 02000000 		.word	_width
 5127 028c 04000000 		.word	_height
 5128 0290 00000000 		.word	font
 5129              		.cfi_endproc
 5130              	.LFE61:
 5131              		.size	gfx_drawChar, .-gfx_drawChar
 5132              		.section	.text.gfx_write,"ax",%progbits
 5133              		.align	2
 5134              		.global	gfx_write
 5135              		.code	16
 5136              		.thumb_func
 5137              		.type	gfx_write, %function
 5138              	gfx_write:
 5139              	.LFB62:
 617:.\ssd1306.c   **** 
 618:.\ssd1306.c   **** void gfx_write( uint8_t ch ){
 5140              		.loc 1 618 0
 5141              		.cfi_startproc
 5142 0000 B0B5     		push	{r4, r5, r7, lr}
 5143              		.cfi_def_cfa_offset 16
 5144              		.cfi_offset 4, -16
 5145              		.cfi_offset 5, -12
 5146              		.cfi_offset 7, -8
 5147              		.cfi_offset 14, -4
 5148 0002 84B0     		sub	sp, sp, #16
 5149              		.cfi_def_cfa_offset 32
 5150 0004 02AF     		add	r7, sp, #8
 5151              		.cfi_def_cfa 7, 24
 5152 0006 021C     		mov	r2, r0
 5153 0008 FB1D     		add	r3, r7, #7
 5154 000a 1A70     		strb	r2, [r3]
 619:.\ssd1306.c   ****     if( ch == '\n' ){
 5155              		.loc 1 619 0
 5156 000c FB1D     		add	r3, r7, #7
 5157 000e 1B78     		ldrb	r3, [r3]
 5158 0010 0A2B     		cmp	r3, #10
 5159 0012 0FD1     		bne	.L181
 620:.\ssd1306.c   ****         cursor_y += textsize*8;
 5160              		.loc 1 620 0
 5161 0014 2D4B     		ldr	r3, .L183
 5162 0016 1B78     		ldrb	r3, [r3]
 5163 0018 DB00     		lsl	r3, r3, #3
 5164 001a 9AB2     		uxth	r2, r3
 5165 001c 2C4B     		ldr	r3, .L183+4
 5166 001e 1B88     		ldrh	r3, [r3]
 5167 0020 9BB2     		uxth	r3, r3
 5168 0022 D318     		add	r3, r2, r3
 5169 0024 9BB2     		uxth	r3, r3
ARM GAS  C:\DOCUME~1\Owner\LOCALS~1\Temp\cc1p5VcC.s 			page 103


 5170 0026 9AB2     		uxth	r2, r3
 5171 0028 294B     		ldr	r3, .L183+4
 5172 002a 1A80     		strh	r2, [r3]
 621:.\ssd1306.c   ****         cursor_x = 0;
 5173              		.loc 1 621 0
 5174 002c 294B     		ldr	r3, .L183+8
 5175 002e 0022     		mov	r2, #0
 5176 0030 1A80     		strh	r2, [r3]
 5177 0032 47E0     		b	.L180
 5178              	.L181:
 622:.\ssd1306.c   ****     }else if( ch == '\r' ){
 5179              		.loc 1 622 0
 5180 0034 FB1D     		add	r3, r7, #7
 5181 0036 1B78     		ldrb	r3, [r3]
 5182 0038 0D2B     		cmp	r3, #13
 5183 003a 43D0     		beq	.L180
 623:.\ssd1306.c   ****         // skip em
 624:.\ssd1306.c   ****     }else{
 625:.\ssd1306.c   ****         gfx_drawChar(cursor_x, cursor_y, ch, textcolor, textbgcolor, textsize);
 5184              		.loc 1 625 0
 5185 003c 254B     		ldr	r3, .L183+8
 5186 003e 1988     		ldrh	r1, [r3]
 5187 0040 234B     		ldr	r3, .L183+4
 5188 0042 1A88     		ldrh	r2, [r3]
 5189 0044 244B     		ldr	r3, .L183+12
 5190 0046 1B88     		ldrh	r3, [r3]
 5191 0048 2448     		ldr	r0, .L183+16
 5192 004a 0588     		ldrh	r5, [r0]
 5193 004c 1F48     		ldr	r0, .L183
 5194 004e 0478     		ldrb	r4, [r0]
 5195 0050 08B2     		sxth	r0, r1
 5196 0052 11B2     		sxth	r1, r2
 5197 0054 FA1D     		add	r2, r7, #7
 5198 0056 1278     		ldrb	r2, [r2]
 5199 0058 0095     		str	r5, [sp]
 5200 005a 0194     		str	r4, [sp, #4]
 5201 005c FFF7FEFF 		bl	gfx_drawChar
 626:.\ssd1306.c   ****         cursor_x += textsize*6;
 5202              		.loc 1 626 0
 5203 0060 1A4B     		ldr	r3, .L183
 5204 0062 1B78     		ldrb	r3, [r3]
 5205 0064 1A1C     		add	r2, r3, #0
 5206 0066 9218     		add	r2, r2, r2
 5207 0068 D318     		add	r3, r2, r3
 5208 006a DB18     		add	r3, r3, r3
 5209 006c 9AB2     		uxth	r2, r3
 5210 006e 194B     		ldr	r3, .L183+8
 5211 0070 1B88     		ldrh	r3, [r3]
 5212 0072 9BB2     		uxth	r3, r3
 5213 0074 D318     		add	r3, r2, r3
 5214 0076 9BB2     		uxth	r3, r3
 5215 0078 9AB2     		uxth	r2, r3
 5216 007a 164B     		ldr	r3, .L183+8
 5217 007c 1A80     		strh	r2, [r3]
 627:.\ssd1306.c   ****         if( wrap && (cursor_x > (_width - textsize*6)) ){
 5218              		.loc 1 627 0
 5219 007e 184B     		ldr	r3, .L183+20
ARM GAS  C:\DOCUME~1\Owner\LOCALS~1\Temp\cc1p5VcC.s 			page 104


 5220 0080 1B78     		ldrb	r3, [r3]
 5221 0082 002B     		cmp	r3, #0
 5222 0084 1ED0     		beq	.L180
 5223              		.loc 1 627 0 is_stmt 0 discriminator 1
 5224 0086 134B     		ldr	r3, .L183+8
 5225 0088 1B88     		ldrh	r3, [r3]
 5226 008a 19B2     		sxth	r1, r3
 5227 008c 154B     		ldr	r3, .L183+24
 5228 008e 1B88     		ldrh	r3, [r3]
 5229 0090 18B2     		sxth	r0, r3
 5230 0092 0E4B     		ldr	r3, .L183
 5231 0094 1B78     		ldrb	r3, [r3]
 5232 0096 1A1C     		mov	r2, r3
 5233 0098 131C     		mov	r3, r2
 5234 009a 9200     		lsl	r2, r2, #2
 5235 009c 9B1A     		sub	r3, r3, r2
 5236 009e 5B00     		lsl	r3, r3, #1
 5237 00a0 C318     		add	r3, r0, r3
 5238 00a2 9942     		cmp	r1, r3
 5239 00a4 0EDD     		ble	.L180
 628:.\ssd1306.c   ****             cursor_y += textsize*8;
 5240              		.loc 1 628 0 is_stmt 1
 5241 00a6 094B     		ldr	r3, .L183
 5242 00a8 1B78     		ldrb	r3, [r3]
 5243 00aa DB00     		lsl	r3, r3, #3
 5244 00ac 9AB2     		uxth	r2, r3
 5245 00ae 084B     		ldr	r3, .L183+4
 5246 00b0 1B88     		ldrh	r3, [r3]
 5247 00b2 9BB2     		uxth	r3, r3
 5248 00b4 D318     		add	r3, r2, r3
 5249 00b6 9BB2     		uxth	r3, r3
 5250 00b8 9AB2     		uxth	r2, r3
 5251 00ba 054B     		ldr	r3, .L183+4
 5252 00bc 1A80     		strh	r2, [r3]
 629:.\ssd1306.c   ****             cursor_x = 0;
 5253              		.loc 1 629 0
 5254 00be 054B     		ldr	r3, .L183+8
 5255 00c0 0022     		mov	r2, #0
 5256 00c2 1A80     		strh	r2, [r3]
 5257              	.L180:
 630:.\ssd1306.c   ****         }
 631:.\ssd1306.c   ****     }
 632:.\ssd1306.c   **** }
 5258              		.loc 1 632 0
 5259 00c4 BD46     		mov	sp, r7
 5260 00c6 02B0     		add	sp, sp, #8
 5261              		@ sp needed
 5262 00c8 B0BD     		pop	{r4, r5, r7, pc}
 5263              	.L184:
 5264 00ca C046     		.align	2
 5265              	.L183:
 5266 00cc 0E000000 		.word	textsize
 5267 00d0 08000000 		.word	cursor_y
 5268 00d4 06000000 		.word	cursor_x
 5269 00d8 0A000000 		.word	textcolor
 5270 00dc 0C000000 		.word	textbgcolor
 5271 00e0 00000000 		.word	wrap
ARM GAS  C:\DOCUME~1\Owner\LOCALS~1\Temp\cc1p5VcC.s 			page 105


 5272 00e4 02000000 		.word	_width
 5273              		.cfi_endproc
 5274              	.LFE62:
 5275              		.size	gfx_write, .-gfx_write
 5276              		.section	.text.gfx_print,"ax",%progbits
 5277              		.align	2
 5278              		.global	gfx_print
 5279              		.code	16
 5280              		.thumb_func
 5281              		.type	gfx_print, %function
 5282              	gfx_print:
 5283              	.LFB63:
 633:.\ssd1306.c   **** 
 634:.\ssd1306.c   **** void gfx_print( const char* s ){
 5284              		.loc 1 634 0
 5285              		.cfi_startproc
 5286 0000 80B5     		push	{r7, lr}
 5287              		.cfi_def_cfa_offset 8
 5288              		.cfi_offset 7, -8
 5289              		.cfi_offset 14, -4
 5290 0002 84B0     		sub	sp, sp, #16
 5291              		.cfi_def_cfa_offset 24
 5292 0004 00AF     		add	r7, sp, #0
 5293              		.cfi_def_cfa_register 7
 5294 0006 7860     		str	r0, [r7, #4]
 635:.\ssd1306.c   ****     
 636:.\ssd1306.c   ****     unsigned int len = strlen( s );
 5295              		.loc 1 636 0
 5296 0008 7B68     		ldr	r3, [r7, #4]
 5297 000a 181C     		mov	r0, r3
 5298 000c FFF7FEFF 		bl	strlen
 5299 0010 031C     		mov	r3, r0
 5300 0012 BB60     		str	r3, [r7, #8]
 637:.\ssd1306.c   ****     unsigned int i = 0; 
 5301              		.loc 1 637 0
 5302 0014 0023     		mov	r3, #0
 5303 0016 FB60     		str	r3, [r7, #12]
 638:.\ssd1306.c   ****     for( i = 0 ; i < len ; i++ ){
 5304              		.loc 1 638 0
 5305 0018 0023     		mov	r3, #0
 5306 001a FB60     		str	r3, [r7, #12]
 5307 001c 09E0     		b	.L186
 5308              	.L187:
 639:.\ssd1306.c   ****         gfx_write( s[i] );
 5309              		.loc 1 639 0 discriminator 2
 5310 001e 7A68     		ldr	r2, [r7, #4]
 5311 0020 FB68     		ldr	r3, [r7, #12]
 5312 0022 D318     		add	r3, r2, r3
 5313 0024 1B78     		ldrb	r3, [r3]
 5314 0026 181C     		mov	r0, r3
 5315 0028 FFF7FEFF 		bl	gfx_write
 638:.\ssd1306.c   ****     for( i = 0 ; i < len ; i++ ){
 5316              		.loc 1 638 0 discriminator 2
 5317 002c FB68     		ldr	r3, [r7, #12]
 5318 002e 0133     		add	r3, r3, #1
 5319 0030 FB60     		str	r3, [r7, #12]
 5320              	.L186:
ARM GAS  C:\DOCUME~1\Owner\LOCALS~1\Temp\cc1p5VcC.s 			page 106


 638:.\ssd1306.c   ****     for( i = 0 ; i < len ; i++ ){
 5321              		.loc 1 638 0 is_stmt 0 discriminator 1
 5322 0032 FA68     		ldr	r2, [r7, #12]
 5323 0034 BB68     		ldr	r3, [r7, #8]
 5324 0036 9A42     		cmp	r2, r3
 5325 0038 F1D3     		bcc	.L187
 640:.\ssd1306.c   ****     }
 641:.\ssd1306.c   **** }
 5326              		.loc 1 641 0 is_stmt 1
 5327 003a BD46     		mov	sp, r7
 5328 003c 04B0     		add	sp, sp, #16
 5329              		@ sp needed
 5330 003e 80BD     		pop	{r7, pc}
 5331              		.cfi_endproc
 5332              	.LFE63:
 5333              		.size	gfx_print, .-gfx_print
 5334              		.section	.text.gfx_println,"ax",%progbits
 5335              		.align	2
 5336              		.global	gfx_println
 5337              		.code	16
 5338              		.thumb_func
 5339              		.type	gfx_println, %function
 5340              	gfx_println:
 5341              	.LFB64:
 642:.\ssd1306.c   **** 
 643:.\ssd1306.c   **** void gfx_println( const char* s ){ 
 5342              		.loc 1 643 0
 5343              		.cfi_startproc
 5344 0000 80B5     		push	{r7, lr}
 5345              		.cfi_def_cfa_offset 8
 5346              		.cfi_offset 7, -8
 5347              		.cfi_offset 14, -4
 5348 0002 82B0     		sub	sp, sp, #8
 5349              		.cfi_def_cfa_offset 16
 5350 0004 00AF     		add	r7, sp, #0
 5351              		.cfi_def_cfa_register 7
 5352 0006 7860     		str	r0, [r7, #4]
 644:.\ssd1306.c   ****     gfx_print( s ); 
 5353              		.loc 1 644 0
 5354 0008 7B68     		ldr	r3, [r7, #4]
 5355 000a 181C     		mov	r0, r3
 5356 000c FFF7FEFF 		bl	gfx_print
 645:.\ssd1306.c   ****     gfx_write( '\n' );
 5357              		.loc 1 645 0
 5358 0010 0A20     		mov	r0, #10
 5359 0012 FFF7FEFF 		bl	gfx_write
 646:.\ssd1306.c   **** }
 5360              		.loc 1 646 0
 5361 0016 BD46     		mov	sp, r7
 5362 0018 02B0     		add	sp, sp, #8
 5363              		@ sp needed
 5364 001a 80BD     		pop	{r7, pc}
 5365              		.cfi_endproc
 5366              	.LFE64:
 5367              		.size	gfx_println, .-gfx_println
 5368              		.text
 5369              	.Letext0:
ARM GAS  C:\DOCUME~1\Owner\LOCALS~1\Temp\cc1p5VcC.s 			page 107


 5370              		.file 2 "c:\\program files\\cypress\\psoc creator\\3.1\\psoc creator\\import\\gnu_cs\\arm\\4.8.4\\
 5371              		.file 3 "c:\\program files\\cypress\\psoc creator\\3.1\\psoc creator\\import\\gnu_cs\\arm\\4.8.4\\
 5372              		.file 4 ".\\Generated_Source\\PSoC4/cytypes.h"
 5373              		.file 5 ".\\ssd1306.h"
 5374              		.file 6 ".\\font.h"